
STM32_x-cube-ai_20200426.elf:     file format elf32-littlearm

Sections:
Idx Name          Size      VMA       LMA       File off  Algn
  0 .isr_vector   0000018c  08000000  08000000  00010000  2**0
                  CONTENTS, ALLOC, LOAD, READONLY, DATA
  1 .text         0000bcd4  08000190  08000190  00010190  2**3
                  CONTENTS, ALLOC, LOAD, READONLY, CODE
  2 .rodata       00027e24  0800be64  0800be64  0001be64  2**2
                  CONTENTS, ALLOC, LOAD, READONLY, DATA
  3 .ARM.extab    00000000  08033c88  08033c88  00050b08  2**0
                  CONTENTS
  4 .ARM          00000008  08033c88  08033c88  00043c88  2**2
                  CONTENTS, ALLOC, LOAD, READONLY, DATA
  5 .preinit_array 00000000  08033c90  08033c90  00050b08  2**0
                  CONTENTS, ALLOC, LOAD, DATA
  6 .init_array   00000004  08033c90  08033c90  00043c90  2**2
                  CONTENTS, ALLOC, LOAD, DATA
  7 .fini_array   00000004  08033c94  08033c94  00043c94  2**2
                  CONTENTS, ALLOC, LOAD, DATA
  8 .data         00000b08  20000000  08033c98  00050000  2**2
                  CONTENTS, ALLOC, LOAD, DATA
  9 .bss          000089e8  20000b08  080347a0  00050b08  2**2
                  ALLOC
 10 ._user_heap_stack 00000600  200094f0  080347a0  000594f0  2**0
                  ALLOC
 11 .ARM.attributes 00000034  00000000  00000000  00050b08  2**0
                  CONTENTS, READONLY
 12 .debug_info   0000821e  00000000  00000000  00050b3c  2**0
                  CONTENTS, READONLY, DEBUGGING
 13 .debug_abbrev 000012de  00000000  00000000  00058d5a  2**0
                  CONTENTS, READONLY, DEBUGGING
 14 .debug_aranges 00000268  00000000  00000000  0005a038  2**3
                  CONTENTS, READONLY, DEBUGGING
 15 .debug_macro  0001b65a  00000000  00000000  0005a2a0  2**0
                  CONTENTS, READONLY, DEBUGGING
 16 .debug_line   00005586  00000000  00000000  000758fa  2**0
                  CONTENTS, READONLY, DEBUGGING
 17 .debug_str    0008fee2  00000000  00000000  0007ae80  2**0
                  CONTENTS, READONLY, DEBUGGING
 18 .comment      000061a1  00000000  00000000  0010ad62  2**0
                  CONTENTS, READONLY
 19 .iar.rtmodel  000001e7  00000000  00000000  00110f03  2**0
                  CONTENTS, READONLY
 20 .iar_vfe_header 00000024  00000000  00000000  001110ec  2**2
                  CONTENTS, READONLY
 21 .debug_ranges 000001b8  00000000  00000000  00111110  2**3
                  CONTENTS, READONLY, DEBUGGING
 22 .debug_frame  00005a04  00000000  00000000  001112c8  2**2
                  CONTENTS, READONLY, DEBUGGING

Disassembly of section .text:

08000190 <__do_global_dtors_aux>:
 8000190:	b510      	push	{r4, lr}
 8000192:	4c05      	ldr	r4, [pc, #20]	; (80001a8 <__do_global_dtors_aux+0x18>)
 8000194:	7823      	ldrb	r3, [r4, #0]
 8000196:	b933      	cbnz	r3, 80001a6 <__do_global_dtors_aux+0x16>
 8000198:	4b04      	ldr	r3, [pc, #16]	; (80001ac <__do_global_dtors_aux+0x1c>)
 800019a:	b113      	cbz	r3, 80001a2 <__do_global_dtors_aux+0x12>
 800019c:	4804      	ldr	r0, [pc, #16]	; (80001b0 <__do_global_dtors_aux+0x20>)
 800019e:	f3af 8000 	nop.w
 80001a2:	2301      	movs	r3, #1
 80001a4:	7023      	strb	r3, [r4, #0]
 80001a6:	bd10      	pop	{r4, pc}
 80001a8:	20000b08 	.word	0x20000b08
 80001ac:	00000000 	.word	0x00000000
 80001b0:	0800be4c 	.word	0x0800be4c

080001b4 <frame_dummy>:
 80001b4:	b508      	push	{r3, lr}
 80001b6:	4b03      	ldr	r3, [pc, #12]	; (80001c4 <frame_dummy+0x10>)
 80001b8:	b11b      	cbz	r3, 80001c2 <frame_dummy+0xe>
 80001ba:	4903      	ldr	r1, [pc, #12]	; (80001c8 <frame_dummy+0x14>)
 80001bc:	4803      	ldr	r0, [pc, #12]	; (80001cc <frame_dummy+0x18>)
 80001be:	f3af 8000 	nop.w
 80001c2:	bd08      	pop	{r3, pc}
 80001c4:	00000000 	.word	0x00000000
 80001c8:	20000b0c 	.word	0x20000b0c
 80001cc:	0800be4c 	.word	0x0800be4c

080001d0 <_ai_platform_get_io_buffers_info>:
 80001d0:	e92d 4ff2 	stmdb	sp!, {r1, r4, r5, r6, r7, r8, r9, sl, fp, lr}
 80001d4:	2500      	movs	r5, #0
 80001d6:	46aa      	mov	sl, r5
 80001d8:	b082      	sub	sp, #8
 80001da:	4607      	mov	r7, r0
 80001dc:	46ab      	mov	fp, r5
 80001de:	46d0      	mov	r8, sl
 80001e0:	46d1      	mov	r9, sl
 80001e2:	e028      	b.n	8000236 <_ai_platform_get_io_buffers_info+0x66>
 80001e4:	2000      	movs	r0, #0
 80001e6:	e01c      	b.n	8000222 <_ai_platform_get_io_buffers_info+0x52>
 80001e8:	f850 400a 	ldr.w	r4, [r0, sl]
 80001ec:	b364      	cbz	r4, 8000248 <_ai_platform_get_io_buffers_info+0x78>
 80001ee:	68b8      	ldr	r0, [r7, #8]
 80001f0:	6841      	ldr	r1, [r0, #4]
 80001f2:	6880      	ldr	r0, [r0, #8]
 80001f4:	4440      	add	r0, r8
 80001f6:	eb01 0609 	add.w	r6, r1, r9
 80001fa:	9000      	str	r0, [sp, #0]
 80001fc:	69a1      	ldr	r1, [r4, #24]
 80001fe:	6808      	ldr	r0, [r1, #0]
 8000200:	f005 fd58 	bl	8005cb4 <ai_array_to_buffer_fmt>
 8000204:	6030      	str	r0, [r6, #0]
 8000206:	2101      	movs	r1, #1
 8000208:	80b1      	strh	r1, [r6, #4]
 800020a:	68e0      	ldr	r0, [r4, #12]
 800020c:	68c1      	ldr	r1, [r0, #12]
 800020e:	80f1      	strh	r1, [r6, #6]
 8000210:	6882      	ldr	r2, [r0, #8]
 8000212:	8132      	strh	r2, [r6, #8]
 8000214:	6840      	ldr	r0, [r0, #4]
 8000216:	60f0      	str	r0, [r6, #12]
 8000218:	69a1      	ldr	r1, [r4, #24]
 800021a:	688a      	ldr	r2, [r1, #8]
 800021c:	6132      	str	r2, [r6, #16]
 800021e:	9800      	ldr	r0, [sp, #0]
 8000220:	b9e0      	cbnz	r0, 800025c <_ai_platform_get_io_buffers_info+0x8c>
 8000222:	6170      	str	r0, [r6, #20]
 8000224:	1c6d      	adds	r5, r5, #1
 8000226:	f10b 0b01 	add.w	fp, fp, #1
 800022a:	f109 0918 	add.w	r9, r9, #24
 800022e:	f108 0808 	add.w	r8, r8, #8
 8000232:	f10a 0a04 	add.w	sl, sl, #4
 8000236:	2f00      	cmp	r7, #0
 8000238:	bf14      	ite	ne
 800023a:	8838      	ldrhne	r0, [r7, #0]
 800023c:	2000      	moveq	r0, #0
 800023e:	4583      	cmp	fp, r0
 8000240:	d202      	bcs.n	8000248 <_ai_platform_get_io_buffers_info+0x78>
 8000242:	6878      	ldr	r0, [r7, #4]
 8000244:	2800      	cmp	r0, #0
 8000246:	d1cf      	bne.n	80001e8 <_ai_platform_get_io_buffers_info+0x18>
 8000248:	b2a8      	uxth	r0, r5
 800024a:	b118      	cbz	r0, 8000254 <_ai_platform_get_io_buffers_info+0x84>
 800024c:	68b9      	ldr	r1, [r7, #8]
 800024e:	9802      	ldr	r0, [sp, #8]
 8000250:	684a      	ldr	r2, [r1, #4]
 8000252:	6002      	str	r2, [r0, #0]
 8000254:	b2a8      	uxth	r0, r5
 8000256:	b003      	add	sp, #12
 8000258:	e8bd 8ff0 	ldmia.w	sp!, {r4, r5, r6, r7, r8, r9, sl, fp, pc}
 800025c:	9900      	ldr	r1, [sp, #0]
 800025e:	2000      	movs	r0, #0
 8000260:	6008      	str	r0, [r1, #0]
 8000262:	9a00      	ldr	r2, [sp, #0]
 8000264:	6820      	ldr	r0, [r4, #0]
 8000266:	6050      	str	r0, [r2, #4]
 8000268:	2800      	cmp	r0, #0
 800026a:	bf1c      	itt	ne
 800026c:	8840      	ldrhne	r0, [r0, #2]
 800026e:	2800      	cmpne	r0, #0
 8000270:	d0b8      	beq.n	80001e4 <_ai_platform_get_io_buffers_info+0x14>
 8000272:	9800      	ldr	r0, [sp, #0]
 8000274:	2101      	movs	r1, #1
 8000276:	6001      	str	r1, [r0, #0]
 8000278:	9800      	ldr	r0, [sp, #0]
 800027a:	e7d2      	b.n	8000222 <_ai_platform_get_io_buffers_info+0x52>

0800027c <_platform_network_state_setup>:
 800027c:	b430      	push	{r4, r5}
 800027e:	68d3      	ldr	r3, [r2, #12]
 8000280:	6955      	ldr	r5, [r2, #20]
 8000282:	68dc      	ldr	r4, [r3, #12]
 8000284:	68eb      	ldr	r3, [r5, #12]
 8000286:	435c      	muls	r4, r3
 8000288:	6084      	str	r4, [r0, #8]
 800028a:	888d      	ldrh	r5, [r1, #4]
 800028c:	436c      	muls	r4, r5
 800028e:	60c4      	str	r4, [r0, #12]
 8000290:	6909      	ldr	r1, [r1, #16]
 8000292:	68c3      	ldr	r3, [r0, #12]
 8000294:	6041      	str	r1, [r0, #4]
 8000296:	4419      	add	r1, r3
 8000298:	6001      	str	r1, [r0, #0]
 800029a:	6992      	ldr	r2, [r2, #24]
 800029c:	6814      	ldr	r4, [r2, #0]
 800029e:	00a1      	lsls	r1, r4, #2
 80002a0:	d407      	bmi.n	80002b2 <_platform_network_state_setup+0x36>
 80002a2:	6894      	ldr	r4, [r2, #8]
 80002a4:	68d1      	ldr	r1, [r2, #12]
 80002a6:	6843      	ldr	r3, [r0, #4]
 80002a8:	1a64      	subs	r4, r4, r1
 80002aa:	1919      	adds	r1, r3, r4
 80002ac:	6091      	str	r1, [r2, #8]
 80002ae:	6840      	ldr	r0, [r0, #4]
 80002b0:	60d0      	str	r0, [r2, #12]
 80002b2:	bc30      	pop	{r4, r5}
 80002b4:	4770      	bx	lr

080002b6 <ai_platform_runtime_get_revision>:
 80002b6:	f8df 0814 	ldr.w	r0, [pc, #2068]	; 8000acc <.text_18>
 80002ba:	6801      	ldr	r1, [r0, #0]
 80002bc:	0849      	lsrs	r1, r1, #1
 80002be:	0049      	lsls	r1, r1, #1
 80002c0:	6001      	str	r1, [r0, #0]
 80002c2:	2001      	movs	r0, #1
 80002c4:	f8df 1808 	ldr.w	r1, [pc, #2056]	; 8000ad0 <.text_19>
 80002c8:	6088      	str	r0, [r1, #8]
 80002ca:	6888      	ldr	r0, [r1, #8]
 80002cc:	2800      	cmp	r0, #0
 80002ce:	d1fc      	bne.n	80002ca <ai_platform_runtime_get_revision+0x14>
 80002d0:	f8df 2800 	ldr.w	r2, [pc, #2048]	; 8000ad4 <.text_20>
 80002d4:	600a      	str	r2, [r1, #0]
 80002d6:	6808      	ldr	r0, [r1, #0]
 80002d8:	f8df 17fc 	ldr.w	r1, [pc, #2044]	; 8000ad8 <.text_21>
 80002dc:	4288      	cmp	r0, r1
 80002de:	d000      	beq.n	80002e2 <ai_platform_runtime_get_revision+0x2c>
 80002e0:	e7fe      	b.n	80002e0 <ai_platform_runtime_get_revision+0x2a>
 80002e2:	a0ad      	add	r0, pc, #692	; (adr r0, 8000598 <.text_13>)
 80002e4:	4770      	bx	lr

080002e6 <ai_platform_runtime_get_version>:
 80002e6:	f8df 07e4 	ldr.w	r0, [pc, #2020]	; 8000acc <.text_18>
 80002ea:	6801      	ldr	r1, [r0, #0]
 80002ec:	0849      	lsrs	r1, r1, #1
 80002ee:	0049      	lsls	r1, r1, #1
 80002f0:	6001      	str	r1, [r0, #0]
 80002f2:	2001      	movs	r0, #1
 80002f4:	f8df 17d8 	ldr.w	r1, [pc, #2008]	; 8000ad0 <.text_19>
 80002f8:	6088      	str	r0, [r1, #8]
 80002fa:	6888      	ldr	r0, [r1, #8]
 80002fc:	2800      	cmp	r0, #0
 80002fe:	d1fc      	bne.n	80002fa <ai_platform_runtime_get_version+0x14>
 8000300:	f8df 27d0 	ldr.w	r2, [pc, #2000]	; 8000ad4 <.text_20>
 8000304:	600a      	str	r2, [r1, #0]
 8000306:	6808      	ldr	r0, [r1, #0]
 8000308:	f8df 17cc 	ldr.w	r1, [pc, #1996]	; 8000ad8 <.text_21>
 800030c:	4288      	cmp	r0, r1
 800030e:	d000      	beq.n	8000312 <ai_platform_runtime_get_version+0x2c>
 8000310:	e7fe      	b.n	8000310 <ai_platform_runtime_get_version+0x2a>
 8000312:	f20f 72d0 	addw	r2, pc, #2000	; 0x7d0
 8000316:	6810      	ldr	r0, [r2, #0]
 8000318:	4770      	bx	lr

0800031a <ai_platform_api_get_version>:
 800031a:	f8df 07b0 	ldr.w	r0, [pc, #1968]	; 8000acc <.text_18>
 800031e:	6801      	ldr	r1, [r0, #0]
 8000320:	0849      	lsrs	r1, r1, #1
 8000322:	0049      	lsls	r1, r1, #1
 8000324:	6001      	str	r1, [r0, #0]
 8000326:	2001      	movs	r0, #1
 8000328:	f8df 17a4 	ldr.w	r1, [pc, #1956]	; 8000ad0 <.text_19>
 800032c:	6088      	str	r0, [r1, #8]
 800032e:	6888      	ldr	r0, [r1, #8]
 8000330:	2800      	cmp	r0, #0
 8000332:	d1fc      	bne.n	800032e <ai_platform_api_get_version+0x14>
 8000334:	f8df 279c 	ldr.w	r2, [pc, #1948]	; 8000ad4 <.text_20>
 8000338:	600a      	str	r2, [r1, #0]
 800033a:	6808      	ldr	r0, [r1, #0]
 800033c:	f8df 1798 	ldr.w	r1, [pc, #1944]	; 8000ad8 <.text_21>
 8000340:	4288      	cmp	r0, r1
 8000342:	d000      	beq.n	8000346 <ai_platform_api_get_version+0x2c>
 8000344:	e7fe      	b.n	8000344 <ai_platform_api_get_version+0x2a>
 8000346:	f20f 72a0 	addw	r2, pc, #1952	; 0x7a0
 800034a:	6810      	ldr	r0, [r2, #0]
 800034c:	4770      	bx	lr

0800034e <ai_platform_interface_api_get_version>:
 800034e:	f8df 077c 	ldr.w	r0, [pc, #1916]	; 8000acc <.text_18>
 8000352:	6801      	ldr	r1, [r0, #0]
 8000354:	0849      	lsrs	r1, r1, #1
 8000356:	0049      	lsls	r1, r1, #1
 8000358:	6001      	str	r1, [r0, #0]
 800035a:	2001      	movs	r0, #1
 800035c:	f8df 1770 	ldr.w	r1, [pc, #1904]	; 8000ad0 <.text_19>
 8000360:	6088      	str	r0, [r1, #8]
 8000362:	6888      	ldr	r0, [r1, #8]
 8000364:	2800      	cmp	r0, #0
 8000366:	d1fc      	bne.n	8000362 <ai_platform_interface_api_get_version+0x14>
 8000368:	f8df 2768 	ldr.w	r2, [pc, #1896]	; 8000ad4 <.text_20>
 800036c:	600a      	str	r2, [r1, #0]
 800036e:	6808      	ldr	r0, [r1, #0]
 8000370:	f8df 1764 	ldr.w	r1, [pc, #1892]	; 8000ad8 <.text_21>
 8000374:	4288      	cmp	r0, r1
 8000376:	d000      	beq.n	800037a <ai_platform_interface_api_get_version+0x2c>
 8000378:	e7fe      	b.n	8000378 <ai_platform_interface_api_get_version+0x2a>
 800037a:	f20f 7270 	addw	r2, pc, #1904	; 0x770
 800037e:	6810      	ldr	r0, [r2, #0]
 8000380:	4770      	bx	lr

08000382 <ai_platform_context_acquire>:
 8000382:	b120      	cbz	r0, 800038e <ai_platform_context_acquire+0xc>
 8000384:	6801      	ldr	r1, [r0, #0]
 8000386:	f8df 2754 	ldr.w	r2, [pc, #1876]	; 8000adc <.text_22>
 800038a:	4291      	cmp	r1, r2
 800038c:	d000      	beq.n	8000390 <ai_platform_context_acquire+0xe>
 800038e:	2000      	movs	r0, #0
 8000390:	f8df 1738 	ldr.w	r1, [pc, #1848]	; 8000acc <.text_18>
 8000394:	680a      	ldr	r2, [r1, #0]
 8000396:	0852      	lsrs	r2, r2, #1
 8000398:	0052      	lsls	r2, r2, #1
 800039a:	600a      	str	r2, [r1, #0]
 800039c:	2101      	movs	r1, #1
 800039e:	f8df 2730 	ldr.w	r2, [pc, #1840]	; 8000ad0 <.text_19>
 80003a2:	6091      	str	r1, [r2, #8]
 80003a4:	6891      	ldr	r1, [r2, #8]
 80003a6:	2900      	cmp	r1, #0
 80003a8:	d1fc      	bne.n	80003a4 <ai_platform_context_acquire+0x22>
 80003aa:	f8df 3728 	ldr.w	r3, [pc, #1832]	; 8000ad4 <.text_20>
 80003ae:	6013      	str	r3, [r2, #0]
 80003b0:	6811      	ldr	r1, [r2, #0]
 80003b2:	f8df 2724 	ldr.w	r2, [pc, #1828]	; 8000ad8 <.text_21>
 80003b6:	4291      	cmp	r1, r2
 80003b8:	d000      	beq.n	80003bc <ai_platform_context_acquire+0x3a>
 80003ba:	e7fe      	b.n	80003ba <ai_platform_context_acquire+0x38>
 80003bc:	4770      	bx	lr

080003be <ai_platform_context_release>:
 80003be:	f8df 171c 	ldr.w	r1, [pc, #1820]	; 8000adc <.text_22>
 80003c2:	6001      	str	r1, [r0, #0]
 80003c4:	4770      	bx	lr

080003c6 <ai_platform_network_get_error>:
 80003c6:	b120      	cbz	r0, 80003d2 <ai_platform_network_get_error+0xc>
 80003c8:	6801      	ldr	r1, [r0, #0]
 80003ca:	f8df 2710 	ldr.w	r2, [pc, #1808]	; 8000adc <.text_22>
 80003ce:	4291      	cmp	r1, r2
 80003d0:	d000      	beq.n	80003d4 <ai_platform_network_get_error+0xe>
 80003d2:	2000      	movs	r0, #0
 80003d4:	f8df 16f4 	ldr.w	r1, [pc, #1780]	; 8000acc <.text_18>
 80003d8:	680a      	ldr	r2, [r1, #0]
 80003da:	0852      	lsrs	r2, r2, #1
 80003dc:	0052      	lsls	r2, r2, #1
 80003de:	600a      	str	r2, [r1, #0]
 80003e0:	2101      	movs	r1, #1
 80003e2:	f8df 26ec 	ldr.w	r2, [pc, #1772]	; 8000ad0 <.text_19>
 80003e6:	6091      	str	r1, [r2, #8]
 80003e8:	6891      	ldr	r1, [r2, #8]
 80003ea:	2900      	cmp	r1, #0
 80003ec:	d1fc      	bne.n	80003e8 <ai_platform_network_get_error+0x22>
 80003ee:	f8df 36e4 	ldr.w	r3, [pc, #1764]	; 8000ad4 <.text_20>
 80003f2:	6013      	str	r3, [r2, #0]
 80003f4:	6811      	ldr	r1, [r2, #0]
 80003f6:	f8df 26e0 	ldr.w	r2, [pc, #1760]	; 8000ad8 <.text_21>
 80003fa:	4291      	cmp	r1, r2
 80003fc:	d000      	beq.n	8000400 <ai_platform_network_get_error+0x3a>
 80003fe:	e7fe      	b.n	80003fe <ai_platform_network_get_error+0x38>
 8000400:	2800      	cmp	r0, #0
 8000402:	bf1c      	itt	ne
 8000404:	3010      	addne	r0, #16
 8000406:	f000 bb83 	bne.w	8000b10 <core_get_error>
 800040a:	f20f 60f4 	addw	r0, pc, #1780	; 0x6f4
 800040e:	6800      	ldr	r0, [r0, #0]
 8000410:	4770      	bx	lr

08000412 <ai_platform_network_set_error>:
 8000412:	2800      	cmp	r0, #0
 8000414:	bf1c      	itt	ne
 8000416:	3010      	addne	r0, #16
 8000418:	f000 bb7f 	bne.w	8000b1a <core_set_error>
 800041c:	4770      	bx	lr

0800041e <ai_platform_api_get_network_report>:
 800041e:	e92d 4ff0 	stmdb	sp!, {r4, r5, r6, r7, r8, r9, sl, fp, lr}
 8000422:	ea5f 0900 	movs.w	r9, r0
 8000426:	b081      	sub	sp, #4
 8000428:	460c      	mov	r4, r1
 800042a:	d005      	beq.n	8000438 <ai_platform_api_get_network_report+0x1a>
 800042c:	f8d9 0000 	ldr.w	r0, [r9]
 8000430:	f8df 16a8 	ldr.w	r1, [pc, #1704]	; 8000adc <.text_22>
 8000434:	4288      	cmp	r0, r1
 8000436:	d001      	beq.n	800043c <ai_platform_api_get_network_report+0x1e>
 8000438:	f04f 0900 	mov.w	r9, #0
 800043c:	f8df 568c 	ldr.w	r5, [pc, #1676]	; 8000acc <.text_18>
 8000440:	f8df 668c 	ldr.w	r6, [pc, #1676]	; 8000ad0 <.text_19>
 8000444:	6828      	ldr	r0, [r5, #0]
 8000446:	0840      	lsrs	r0, r0, #1
 8000448:	0040      	lsls	r0, r0, #1
 800044a:	6028      	str	r0, [r5, #0]
 800044c:	2101      	movs	r1, #1
 800044e:	60b1      	str	r1, [r6, #8]
 8000450:	68b0      	ldr	r0, [r6, #8]
 8000452:	2800      	cmp	r0, #0
 8000454:	d1fc      	bne.n	8000450 <ai_platform_api_get_network_report+0x32>
 8000456:	f8df 767c 	ldr.w	r7, [pc, #1660]	; 8000ad4 <.text_20>
 800045a:	f8df 867c 	ldr.w	r8, [pc, #1660]	; 8000ad8 <.text_21>
 800045e:	6037      	str	r7, [r6, #0]
 8000460:	6830      	ldr	r0, [r6, #0]
 8000462:	4540      	cmp	r0, r8
 8000464:	d000      	beq.n	8000468 <ai_platform_api_get_network_report+0x4a>
 8000466:	e7fe      	b.n	8000466 <ai_platform_api_get_network_report+0x48>
 8000468:	f1b9 0f00 	cmp.w	r9, #0
 800046c:	bf18      	it	ne
 800046e:	2c00      	cmpne	r4, #0
 8000470:	d034      	beq.n	80004dc <ai_platform_api_get_network_report+0xbe>
 8000472:	2000      	movs	r0, #0
 8000474:	66e0      	str	r0, [r4, #108]	; 0x6c
 8000476:	f8d9 2050 	ldr.w	r2, [r9, #80]	; 0x50
 800047a:	b152      	cbz	r2, 8000492 <ai_platform_api_get_network_report+0x74>
 800047c:	e000      	b.n	8000480 <ai_platform_api_get_network_report+0x62>
 800047e:	4602      	mov	r2, r0
 8000480:	6ee1      	ldr	r1, [r4, #108]	; 0x6c
 8000482:	1c49      	adds	r1, r1, #1
 8000484:	66e1      	str	r1, [r4, #108]	; 0x6c
 8000486:	68d0      	ldr	r0, [r2, #12]
 8000488:	4282      	cmp	r2, r0
 800048a:	bf18      	it	ne
 800048c:	2800      	cmpne	r0, #0
 800048e:	d1f6      	bne.n	800047e <ai_platform_api_get_network_report+0x60>
 8000490:	b911      	cbnz	r1, 8000498 <ai_platform_api_get_network_report+0x7a>
 8000492:	2218      	movs	r2, #24
 8000494:	2111      	movs	r1, #17
 8000496:	e01d      	b.n	80004d4 <ai_platform_api_get_network_report+0xb6>
 8000498:	f8b9 0048 	ldrh.w	r0, [r9, #72]	; 0x48
 800049c:	b108      	cbz	r0, 80004a2 <ai_platform_api_get_network_report+0x84>
 800049e:	f8d9 004c 	ldr.w	r0, [r9, #76]	; 0x4c
 80004a2:	f104 0134 	add.w	r1, r4, #52	; 0x34
 80004a6:	f7ff fe93 	bl	80001d0 <_ai_platform_get_io_buffers_info>
 80004aa:	8620      	strh	r0, [r4, #48]	; 0x30
 80004ac:	b910      	cbnz	r0, 80004b4 <ai_platform_api_get_network_report+0x96>
 80004ae:	2218      	movs	r2, #24
 80004b0:	2112      	movs	r1, #18
 80004b2:	e00f      	b.n	80004d4 <ai_platform_api_get_network_report+0xb6>
 80004b4:	f8b9 0048 	ldrh.w	r0, [r9, #72]	; 0x48
 80004b8:	2802      	cmp	r0, #2
 80004ba:	bfa6      	itte	ge
 80004bc:	f8d9 004c 	ldrge.w	r0, [r9, #76]	; 0x4c
 80004c0:	300c      	addge	r0, #12
 80004c2:	2000      	movlt	r0, #0
 80004c4:	f104 0138 	add.w	r1, r4, #56	; 0x38
 80004c8:	f7ff fe82 	bl	80001d0 <_ai_platform_get_io_buffers_info>
 80004cc:	8660      	strh	r0, [r4, #50]	; 0x32
 80004ce:	b948      	cbnz	r0, 80004e4 <ai_platform_api_get_network_report+0xc6>
 80004d0:	2218      	movs	r2, #24
 80004d2:	2113      	movs	r1, #19
 80004d4:	f109 0010 	add.w	r0, r9, #16
 80004d8:	f000 fb1f 	bl	8000b1a <core_set_error>
 80004dc:	2000      	movs	r0, #0
 80004de:	b001      	add	sp, #4
 80004e0:	e8bd 8ff0 	ldmia.w	sp!, {r4, r5, r6, r7, r8, r9, sl, fp, pc}
 80004e4:	f8d9 0004 	ldr.w	r0, [r9, #4]
 80004e8:	6720      	str	r0, [r4, #112]	; 0x70
 80004ea:	f109 0230 	add.w	r2, r9, #48	; 0x30
 80004ee:	e892 5c09 	ldmia.w	r2, {r0, r3, sl, fp, ip, lr}
 80004f2:	f104 013c 	add.w	r1, r4, #60	; 0x3c
 80004f6:	f109 0918 	add.w	r9, r9, #24
 80004fa:	e881 5c09 	stmia.w	r1, {r0, r3, sl, fp, ip, lr}
 80004fe:	e899 540e 	ldmia.w	r9, {r1, r2, r3, sl, ip, lr}
 8000502:	f104 0054 	add.w	r0, r4, #84	; 0x54
 8000506:	e880 540e 	stmia.w	r0, {r1, r2, r3, sl, ip, lr}
 800050a:	6828      	ldr	r0, [r5, #0]
 800050c:	0840      	lsrs	r0, r0, #1
 800050e:	0040      	lsls	r0, r0, #1
 8000510:	6028      	str	r0, [r5, #0]
 8000512:	2301      	movs	r3, #1
 8000514:	60b3      	str	r3, [r6, #8]
 8000516:	68b0      	ldr	r0, [r6, #8]
 8000518:	2800      	cmp	r0, #0
 800051a:	d1fc      	bne.n	8000516 <ai_platform_api_get_network_report+0xf8>
 800051c:	6037      	str	r7, [r6, #0]
 800051e:	6831      	ldr	r1, [r6, #0]
 8000520:	4541      	cmp	r1, r8
 8000522:	d000      	beq.n	8000526 <ai_platform_api_get_network_report+0x108>
 8000524:	e7fe      	b.n	8000524 <ai_platform_api_get_network_report+0x106>
 8000526:	a01c      	add	r0, pc, #112	; (adr r0, 8000598 <.text_13>)
 8000528:	6120      	str	r0, [r4, #16]
 800052a:	6829      	ldr	r1, [r5, #0]
 800052c:	0849      	lsrs	r1, r1, #1
 800052e:	0049      	lsls	r1, r1, #1
 8000530:	6029      	str	r1, [r5, #0]
 8000532:	60b3      	str	r3, [r6, #8]
 8000534:	68b0      	ldr	r0, [r6, #8]
 8000536:	2800      	cmp	r0, #0
 8000538:	d1fc      	bne.n	8000534 <ai_platform_api_get_network_report+0x116>
 800053a:	6037      	str	r7, [r6, #0]
 800053c:	6831      	ldr	r1, [r6, #0]
 800053e:	4541      	cmp	r1, r8
 8000540:	d000      	beq.n	8000544 <ai_platform_api_get_network_report+0x126>
 8000542:	e7fe      	b.n	8000542 <ai_platform_api_get_network_report+0x124>
 8000544:	f20f 509c 	addw	r0, pc, #1436	; 0x59c
 8000548:	6802      	ldr	r2, [r0, #0]
 800054a:	6162      	str	r2, [r4, #20]
 800054c:	6829      	ldr	r1, [r5, #0]
 800054e:	0849      	lsrs	r1, r1, #1
 8000550:	0049      	lsls	r1, r1, #1
 8000552:	6029      	str	r1, [r5, #0]
 8000554:	60b3      	str	r3, [r6, #8]
 8000556:	68b0      	ldr	r0, [r6, #8]
 8000558:	2800      	cmp	r0, #0
 800055a:	d1fc      	bne.n	8000556 <ai_platform_api_get_network_report+0x138>
 800055c:	6037      	str	r7, [r6, #0]
 800055e:	6831      	ldr	r1, [r6, #0]
 8000560:	4541      	cmp	r1, r8
 8000562:	d000      	beq.n	8000566 <ai_platform_api_get_network_report+0x148>
 8000564:	e7fe      	b.n	8000564 <ai_platform_api_get_network_report+0x146>
 8000566:	f20f 5080 	addw	r0, pc, #1408	; 0x580
 800056a:	6802      	ldr	r2, [r0, #0]
 800056c:	6262      	str	r2, [r4, #36]	; 0x24
 800056e:	6829      	ldr	r1, [r5, #0]
 8000570:	0849      	lsrs	r1, r1, #1
 8000572:	0049      	lsls	r1, r1, #1
 8000574:	6029      	str	r1, [r5, #0]
 8000576:	60b3      	str	r3, [r6, #8]
 8000578:	68b0      	ldr	r0, [r6, #8]
 800057a:	2800      	cmp	r0, #0
 800057c:	d1fc      	bne.n	8000578 <ai_platform_api_get_network_report+0x15a>
 800057e:	6037      	str	r7, [r6, #0]
 8000580:	6831      	ldr	r1, [r6, #0]
 8000582:	4541      	cmp	r1, r8
 8000584:	d000      	beq.n	8000588 <ai_platform_api_get_network_report+0x16a>
 8000586:	e7fe      	b.n	8000586 <ai_platform_api_get_network_report+0x168>
 8000588:	f20f 5060 	addw	r0, pc, #1376	; 0x560
 800058c:	6802      	ldr	r2, [r0, #0]
 800058e:	62a2      	str	r2, [r4, #40]	; 0x28
 8000590:	2001      	movs	r0, #1
 8000592:	b001      	add	sp, #4
 8000594:	e8bd 8ff0 	ldmia.w	sp!, {r4, r5, r6, r7, r8, r9, sl, fp, pc}

08000598 <.text_13>:
 8000598:	00000000 	.word	0x00000000

0800059c <ai_platform_network_create>:
 800059c:	b570      	push	{r4, r5, r6, lr}
 800059e:	9d04      	ldr	r5, [sp, #16]
 80005a0:	4604      	mov	r4, r0
 80005a2:	9805      	ldr	r0, [sp, #20]
 80005a4:	b2db      	uxtb	r3, r3
 80005a6:	042d      	lsls	r5, r5, #16
 80005a8:	ea45 6503 	orr.w	r5, r5, r3, lsl #24
 80005ac:	ea45 2500 	orr.w	r5, r5, r0, lsl #8
 80005b0:	f20f 5050 	addw	r0, pc, #1360	; 0x550
 80005b4:	6806      	ldr	r6, [r0, #0]
 80005b6:	f8df 0514 	ldr.w	r0, [pc, #1300]	; 8000acc <.text_18>
 80005ba:	6801      	ldr	r1, [r0, #0]
 80005bc:	0849      	lsrs	r1, r1, #1
 80005be:	0049      	lsls	r1, r1, #1
 80005c0:	6001      	str	r1, [r0, #0]
 80005c2:	2001      	movs	r0, #1
 80005c4:	f8df 1508 	ldr.w	r1, [pc, #1288]	; 8000ad0 <.text_19>
 80005c8:	6088      	str	r0, [r1, #8]
 80005ca:	6888      	ldr	r0, [r1, #8]
 80005cc:	2800      	cmp	r0, #0
 80005ce:	d1fc      	bne.n	80005ca <ai_platform_network_create+0x2e>
 80005d0:	f8df 3500 	ldr.w	r3, [pc, #1280]	; 8000ad4 <.text_20>
 80005d4:	600b      	str	r3, [r1, #0]
 80005d6:	6808      	ldr	r0, [r1, #0]
 80005d8:	f8df 14fc 	ldr.w	r1, [pc, #1276]	; 8000ad8 <.text_21>
 80005dc:	4288      	cmp	r0, r1
 80005de:	d000      	beq.n	80005e2 <ai_platform_network_create+0x46>
 80005e0:	e7fe      	b.n	80005e0 <ai_platform_network_create+0x44>
 80005e2:	b91c      	cbnz	r4, 80005ec <ai_platform_network_create+0x50>
 80005e4:	f20f 5020 	addw	r0, pc, #1312	; 0x520
 80005e8:	6800      	ldr	r0, [r0, #0]
 80005ea:	bd70      	pop	{r4, r5, r6, pc}
 80005ec:	f8df 14ec 	ldr.w	r1, [pc, #1260]	; 8000adc <.text_22>
 80005f0:	6011      	str	r1, [r2, #0]
 80005f2:	6022      	str	r2, [r4, #0]
 80005f4:	f000 fa8a 	bl	8000b0c <core_init>
 80005f8:	b910      	cbnz	r0, 8000600 <ai_platform_network_create+0x64>
 80005fa:	f20f 40f4 	addw	r0, pc, #1268	; 0x4f4
 80005fe:	e00d      	b.n	800061c <ai_platform_network_create+0x80>
 8000600:	f8df 14dc 	ldr.w	r1, [pc, #1244]	; 8000ae0 <.text_23>
 8000604:	428d      	cmp	r5, r1
 8000606:	bf28      	it	cs
 8000608:	f20f 40e8 	addwcs	r0, pc, #1256	; 0x4e8
 800060c:	d206      	bcs.n	800061c <ai_platform_network_create+0x80>
 800060e:	f20f 40e8 	addw	r0, pc, #1256	; 0x4e8
 8000612:	f000 fa97 	bl	8000b44 <ai_check_custom_types>
 8000616:	b920      	cbnz	r0, 8000622 <ai_platform_network_create+0x86>
 8000618:	f20f 40e0 	addw	r0, pc, #1248	; 0x4e0
 800061c:	6806      	ldr	r6, [r0, #0]
 800061e:	2100      	movs	r1, #0
 8000620:	6021      	str	r1, [r4, #0]
 8000622:	4630      	mov	r0, r6
 8000624:	bd70      	pop	{r4, r5, r6, pc}

08000626 <ai_platform_network_destroy>:
 8000626:	b130      	cbz	r0, 8000636 <ai_platform_network_destroy+0x10>
 8000628:	6801      	ldr	r1, [r0, #0]
 800062a:	f8df 24b0 	ldr.w	r2, [pc, #1200]	; 8000adc <.text_22>
 800062e:	4291      	cmp	r1, r2
 8000630:	bf08      	it	eq
 8000632:	4602      	moveq	r2, r0
 8000634:	d000      	beq.n	8000638 <ai_platform_network_destroy+0x12>
 8000636:	2200      	movs	r2, #0
 8000638:	f8df 1490 	ldr.w	r1, [pc, #1168]	; 8000acc <.text_18>
 800063c:	680b      	ldr	r3, [r1, #0]
 800063e:	085b      	lsrs	r3, r3, #1
 8000640:	005b      	lsls	r3, r3, #1
 8000642:	600b      	str	r3, [r1, #0]
 8000644:	2101      	movs	r1, #1
 8000646:	f8df 3488 	ldr.w	r3, [pc, #1160]	; 8000ad0 <.text_19>
 800064a:	6099      	str	r1, [r3, #8]
 800064c:	6899      	ldr	r1, [r3, #8]
 800064e:	2900      	cmp	r1, #0
 8000650:	d1fc      	bne.n	800064c <ai_platform_network_destroy+0x26>
 8000652:	f8df c480 	ldr.w	ip, [pc, #1152]	; 8000ad4 <.text_20>
 8000656:	f8c3 c000 	str.w	ip, [r3]
 800065a:	6819      	ldr	r1, [r3, #0]
 800065c:	f8df 3478 	ldr.w	r3, [pc, #1144]	; 8000ad8 <.text_21>
 8000660:	4299      	cmp	r1, r3
 8000662:	d000      	beq.n	8000666 <ai_platform_network_destroy+0x40>
 8000664:	e7fe      	b.n	8000664 <ai_platform_network_destroy+0x3e>
 8000666:	b102      	cbz	r2, 800066a <ai_platform_network_destroy+0x44>
 8000668:	2000      	movs	r0, #0
 800066a:	4770      	bx	lr

0800066c <ai_platform_network_init>:
 800066c:	e92d 4ff0 	stmdb	sp!, {r4, r5, r6, r7, r8, r9, sl, fp, lr}
 8000670:	b081      	sub	sp, #4
 8000672:	460a      	mov	r2, r1
 8000674:	b120      	cbz	r0, 8000680 <ai_platform_network_init+0x14>
 8000676:	6801      	ldr	r1, [r0, #0]
 8000678:	f8df 3460 	ldr.w	r3, [pc, #1120]	; 8000adc <.text_22>
 800067c:	4299      	cmp	r1, r3
 800067e:	d000      	beq.n	8000682 <ai_platform_network_init+0x16>
 8000680:	2000      	movs	r0, #0
 8000682:	f8df 1448 	ldr.w	r1, [pc, #1096]	; 8000acc <.text_18>
 8000686:	680b      	ldr	r3, [r1, #0]
 8000688:	085b      	lsrs	r3, r3, #1
 800068a:	005b      	lsls	r3, r3, #1
 800068c:	600b      	str	r3, [r1, #0]
 800068e:	2101      	movs	r1, #1
 8000690:	f8df 343c 	ldr.w	r3, [pc, #1084]	; 8000ad0 <.text_19>
 8000694:	6099      	str	r1, [r3, #8]
 8000696:	6899      	ldr	r1, [r3, #8]
 8000698:	2900      	cmp	r1, #0
 800069a:	d1fc      	bne.n	8000696 <ai_platform_network_init+0x2a>
 800069c:	f8df 4434 	ldr.w	r4, [pc, #1076]	; 8000ad4 <.text_20>
 80006a0:	601c      	str	r4, [r3, #0]
 80006a2:	6819      	ldr	r1, [r3, #0]
 80006a4:	f8df 3430 	ldr.w	r3, [pc, #1072]	; 8000ad8 <.text_21>
 80006a8:	4299      	cmp	r1, r3
 80006aa:	d000      	beq.n	80006ae <ai_platform_network_init+0x42>
 80006ac:	e7fe      	b.n	80006ac <ai_platform_network_init+0x40>
 80006ae:	2800      	cmp	r0, #0
 80006b0:	d035      	beq.n	800071e <ai_platform_network_init+0xb2>
 80006b2:	b90a      	cbnz	r2, 80006b8 <ai_platform_network_init+0x4c>
 80006b4:	2211      	movs	r2, #17
 80006b6:	e012      	b.n	80006de <ai_platform_network_init+0x72>
 80006b8:	6913      	ldr	r3, [r2, #16]
 80006ba:	6a91      	ldr	r1, [r2, #40]	; 0x28
 80006bc:	b939      	cbnz	r1, 80006ce <ai_platform_network_init+0x62>
 80006be:	8c11      	ldrh	r1, [r2, #32]
 80006c0:	8bd5      	ldrh	r5, [r2, #30]
 80006c2:	6a54      	ldr	r4, [r2, #36]	; 0x24
 80006c4:	4369      	muls	r1, r5
 80006c6:	4361      	muls	r1, r4
 80006c8:	bf18      	it	ne
 80006ca:	2213      	movne	r2, #19
 80006cc:	d107      	bne.n	80006de <ai_platform_network_init+0x72>
 80006ce:	b973      	cbnz	r3, 80006ee <ai_platform_network_init+0x82>
 80006d0:	8911      	ldrh	r1, [r2, #8]
 80006d2:	88d4      	ldrh	r4, [r2, #6]
 80006d4:	68d3      	ldr	r3, [r2, #12]
 80006d6:	4361      	muls	r1, r4
 80006d8:	4359      	muls	r1, r3
 80006da:	d008      	beq.n	80006ee <ai_platform_network_init+0x82>
 80006dc:	2212      	movs	r2, #18
 80006de:	2110      	movs	r1, #16
 80006e0:	3010      	adds	r0, #16
 80006e2:	f000 fa1a 	bl	8000b1a <core_set_error>
 80006e6:	2000      	movs	r0, #0
 80006e8:	b001      	add	sp, #4
 80006ea:	e8bd 8ff0 	ldmia.w	sp!, {r4, r5, r6, r7, r8, r9, sl, fp, pc}
 80006ee:	e8b2 10f8 	ldmia.w	r2!, {r3, r4, r5, r6, r7, ip}
 80006f2:	f100 0118 	add.w	r1, r0, #24
 80006f6:	f100 0e30 	add.w	lr, r0, #48	; 0x30
 80006fa:	e881 10f8 	stmia.w	r1, {r3, r4, r5, r6, r7, ip}
 80006fe:	e892 0f0a 	ldmia.w	r2, {r1, r3, r8, r9, sl, fp}
 8000702:	e88e 0f0a 	stmia.w	lr, {r1, r3, r8, r9, sl, fp}
 8000706:	2103      	movs	r1, #3
 8000708:	6d02      	ldr	r2, [r0, #80]	; 0x50
 800070a:	60c1      	str	r1, [r0, #12]
 800070c:	b13a      	cbz	r2, 800071e <ai_platform_network_init+0xb2>
 800070e:	e000      	b.n	8000712 <ai_platform_network_init+0xa6>
 8000710:	460a      	mov	r2, r1
 8000712:	68d1      	ldr	r1, [r2, #12]
 8000714:	6090      	str	r0, [r2, #8]
 8000716:	428a      	cmp	r2, r1
 8000718:	bf18      	it	ne
 800071a:	2900      	cmpne	r1, #0
 800071c:	d1f8      	bne.n	8000710 <ai_platform_network_init+0xa4>
 800071e:	b001      	add	sp, #4
 8000720:	e8bd 8ff0 	ldmia.w	sp!, {r4, r5, r6, r7, r8, r9, sl, fp, pc}

08000724 <ai_platform_network_process>:
 8000724:	e92d 4ff4 	stmdb	sp!, {r2, r4, r5, r6, r7, r8, r9, sl, fp, lr}
 8000728:	b082      	sub	sp, #8
 800072a:	460a      	mov	r2, r1
 800072c:	b120      	cbz	r0, 8000738 <ai_platform_network_process+0x14>
 800072e:	6801      	ldr	r1, [r0, #0]
 8000730:	f8df 33a8 	ldr.w	r3, [pc, #936]	; 8000adc <.text_22>
 8000734:	4299      	cmp	r1, r3
 8000736:	d000      	beq.n	800073a <ai_platform_network_process+0x16>
 8000738:	2000      	movs	r0, #0
 800073a:	f8df 1390 	ldr.w	r1, [pc, #912]	; 8000acc <.text_18>
 800073e:	680b      	ldr	r3, [r1, #0]
 8000740:	085b      	lsrs	r3, r3, #1
 8000742:	005b      	lsls	r3, r3, #1
 8000744:	600b      	str	r3, [r1, #0]
 8000746:	2101      	movs	r1, #1
 8000748:	f8df 3384 	ldr.w	r3, [pc, #900]	; 8000ad0 <.text_19>
 800074c:	6099      	str	r1, [r3, #8]
 800074e:	6899      	ldr	r1, [r3, #8]
 8000750:	2900      	cmp	r1, #0
 8000752:	d1fc      	bne.n	800074e <ai_platform_network_process+0x2a>
 8000754:	f8df 437c 	ldr.w	r4, [pc, #892]	; 8000ad4 <.text_20>
 8000758:	601c      	str	r4, [r3, #0]
 800075a:	6819      	ldr	r1, [r3, #0]
 800075c:	f8df 3378 	ldr.w	r3, [pc, #888]	; 8000ad8 <.text_21>
 8000760:	4299      	cmp	r1, r3
 8000762:	d000      	beq.n	8000766 <ai_platform_network_process+0x42>
 8000764:	e7fe      	b.n	8000764 <ai_platform_network_process+0x40>
 8000766:	2800      	cmp	r0, #0
 8000768:	f000 8113 	beq.w	8000992 <ai_platform_network_process+0x26e>
 800076c:	f8b0 1048 	ldrh.w	r1, [r0, #72]	; 0x48
 8000770:	b101      	cbz	r1, 8000774 <ai_platform_network_process+0x50>
 8000772:	6cc1      	ldr	r1, [r0, #76]	; 0x4c
 8000774:	2300      	movs	r3, #0
 8000776:	82c3      	strh	r3, [r0, #22]
 8000778:	2400      	movs	r4, #0
 800077a:	7b03      	ldrb	r3, [r0, #12]
 800077c:	8284      	strh	r4, [r0, #20]
 800077e:	f003 0303 	and.w	r3, r3, #3
 8000782:	2b03      	cmp	r3, #3
 8000784:	d002      	beq.n	800078c <ai_platform_network_process+0x68>
 8000786:	2230      	movs	r2, #48	; 0x30
 8000788:	2111      	movs	r1, #17
 800078a:	e0ff      	b.n	800098c <ai_platform_network_process+0x268>
 800078c:	2a00      	cmp	r2, #0
 800078e:	bf1e      	ittt	ne
 8000790:	2900      	cmpne	r1, #0
 8000792:	880b      	ldrhne	r3, [r1, #0]
 8000794:	2b00      	cmpne	r3, #0
 8000796:	f000 80f7 	beq.w	8000988 <ai_platform_network_process+0x264>
 800079a:	f8b2 b004 	ldrh.w	fp, [r2, #4]
 800079e:	9100      	str	r1, [sp, #0]
 80007a0:	46a0      	mov	r8, r4
 80007a2:	46a1      	mov	r9, r4
 80007a4:	2600      	movs	r6, #0
 80007a6:	1d17      	adds	r7, r2, #4
 80007a8:	4682      	mov	sl, r0
 80007aa:	e014      	b.n	80007d6 <ai_platform_network_process+0xb2>
 80007ac:	68f8      	ldr	r0, [r7, #12]
 80007ae:	2800      	cmp	r0, #0
 80007b0:	f000 80e9 	beq.w	8000986 <ai_platform_network_process+0x262>
 80007b4:	8838      	ldrh	r0, [r7, #0]
 80007b6:	2800      	cmp	r0, #0
 80007b8:	d052      	beq.n	8000860 <ai_platform_network_process+0x13c>
 80007ba:	4558      	cmp	r0, fp
 80007bc:	bf28      	it	cs
 80007be:	4683      	movcs	fp, r0
 80007c0:	4622      	mov	r2, r4
 80007c2:	1f39      	subs	r1, r7, #4
 80007c4:	4628      	mov	r0, r5
 80007c6:	f7ff fd59 	bl	800027c <_platform_network_state_setup>
 80007ca:	f108 0801 	add.w	r8, r8, #1
 80007ce:	3718      	adds	r7, #24
 80007d0:	3610      	adds	r6, #16
 80007d2:	f109 0904 	add.w	r9, r9, #4
 80007d6:	9800      	ldr	r0, [sp, #0]
 80007d8:	8801      	ldrh	r1, [r0, #0]
 80007da:	4588      	cmp	r8, r1
 80007dc:	d24a      	bcs.n	8000874 <ai_platform_network_process+0x150>
 80007de:	6840      	ldr	r0, [r0, #4]
 80007e0:	2800      	cmp	r0, #0
 80007e2:	bf1c      	itt	ne
 80007e4:	f850 4009 	ldrne.w	r4, [r0, r9]
 80007e8:	2c00      	cmpne	r4, #0
 80007ea:	d043      	beq.n	8000874 <ai_platform_network_process+0x150>
 80007ec:	9800      	ldr	r0, [sp, #0]
 80007ee:	6881      	ldr	r1, [r0, #8]
 80007f0:	680a      	ldr	r2, [r1, #0]
 80007f2:	1995      	adds	r5, r2, r6
 80007f4:	f000 80c7 	beq.w	8000986 <ai_platform_network_process+0x262>
 80007f8:	69a0      	ldr	r0, [r4, #24]
 80007fa:	6841      	ldr	r1, [r0, #4]
 80007fc:	887b      	ldrh	r3, [r7, #2]
 80007fe:	88ba      	ldrh	r2, [r7, #4]
 8000800:	68b8      	ldr	r0, [r7, #8]
 8000802:	fb03 fc02 	mul.w	ip, r3, r2
 8000806:	fb00 fc0c 	mul.w	ip, r0, ip
 800080a:	4561      	cmp	r1, ip
 800080c:	d32d      	bcc.n	800086a <ai_platform_network_process+0x146>
 800080e:	f8d4 c00c 	ldr.w	ip, [r4, #12]
 8000812:	f8dc e00c 	ldr.w	lr, [ip, #12]
 8000816:	459e      	cmp	lr, r3
 8000818:	bf01      	itttt	eq
 800081a:	f8dc 3008 	ldreq.w	r3, [ip, #8]
 800081e:	4293      	cmpeq	r3, r2
 8000820:	f8dc 2004 	ldreq.w	r2, [ip, #4]
 8000824:	4282      	cmpeq	r2, r0
 8000826:	d120      	bne.n	800086a <ai_platform_network_process+0x146>
 8000828:	69a0      	ldr	r0, [r4, #24]
 800082a:	6800      	ldr	r0, [r0, #0]
 800082c:	f005 fb1a 	bl	8005e64 <ai_array_get_byte_size>
 8000830:	68e1      	ldr	r1, [r4, #12]
 8000832:	68ca      	ldr	r2, [r1, #12]
 8000834:	6961      	ldr	r1, [r4, #20]
 8000836:	68cb      	ldr	r3, [r1, #12]
 8000838:	435a      	muls	r2, r3
 800083a:	4290      	cmp	r0, r2
 800083c:	d315      	bcc.n	800086a <ai_platform_network_process+0x146>
 800083e:	69a0      	ldr	r0, [r4, #24]
 8000840:	6800      	ldr	r0, [r0, #0]
 8000842:	f005 fa37 	bl	8005cb4 <ai_array_to_buffer_fmt>
 8000846:	f857 1c04 	ldr.w	r1, [r7, #-4]
 800084a:	f020 407e 	bic.w	r0, r0, #4261412864	; 0xfe000000
 800084e:	f021 417e 	bic.w	r1, r1, #4261412864	; 0xfe000000
 8000852:	4288      	cmp	r0, r1
 8000854:	d0aa      	beq.n	80007ac <ai_platform_network_process+0x88>
 8000856:	2219      	movs	r2, #25
 8000858:	2112      	movs	r1, #18
 800085a:	f10a 0010 	add.w	r0, sl, #16
 800085e:	e096      	b.n	800098e <ai_platform_network_process+0x26a>
 8000860:	2221      	movs	r2, #33	; 0x21
 8000862:	2112      	movs	r1, #18
 8000864:	f10a 0010 	add.w	r0, sl, #16
 8000868:	e091      	b.n	800098e <ai_platform_network_process+0x26a>
 800086a:	2218      	movs	r2, #24
 800086c:	2112      	movs	r1, #18
 800086e:	f10a 0010 	add.w	r0, sl, #16
 8000872:	e08c      	b.n	800098e <ai_platform_network_process+0x26a>
 8000874:	9902      	ldr	r1, [sp, #8]
 8000876:	2900      	cmp	r1, #0
 8000878:	4655      	mov	r5, sl
 800087a:	d075      	beq.n	8000968 <ai_platform_network_process+0x244>
 800087c:	f8b5 0048 	ldrh.w	r0, [r5, #72]	; 0x48
 8000880:	2802      	cmp	r0, #2
 8000882:	db7b      	blt.n	800097c <ai_platform_network_process+0x258>
 8000884:	6ce8      	ldr	r0, [r5, #76]	; 0x4c
 8000886:	300c      	adds	r0, #12
 8000888:	bf1c      	itt	ne
 800088a:	8802      	ldrhne	r2, [r0, #0]
 800088c:	2a00      	cmpne	r2, #0
 800088e:	d075      	beq.n	800097c <ai_platform_network_process+0x258>
 8000890:	f04f 0800 	mov.w	r8, #0
 8000894:	46c1      	mov	r9, r8
 8000896:	2600      	movs	r6, #0
 8000898:	1d0f      	adds	r7, r1, #4
 800089a:	9000      	str	r0, [sp, #0]
 800089c:	e013      	b.n	80008c6 <ai_platform_network_process+0x1a2>
 800089e:	68f8      	ldr	r0, [r7, #12]
 80008a0:	2800      	cmp	r0, #0
 80008a2:	d059      	beq.n	8000958 <ai_platform_network_process+0x234>
 80008a4:	8838      	ldrh	r0, [r7, #0]
 80008a6:	2800      	cmp	r0, #0
 80008a8:	d051      	beq.n	800094e <ai_platform_network_process+0x22a>
 80008aa:	4558      	cmp	r0, fp
 80008ac:	bf28      	it	cs
 80008ae:	4683      	movcs	fp, r0
 80008b0:	4622      	mov	r2, r4
 80008b2:	1f39      	subs	r1, r7, #4
 80008b4:	4628      	mov	r0, r5
 80008b6:	f7ff fce1 	bl	800027c <_platform_network_state_setup>
 80008ba:	f108 0801 	add.w	r8, r8, #1
 80008be:	3718      	adds	r7, #24
 80008c0:	3610      	adds	r6, #16
 80008c2:	f109 0904 	add.w	r9, r9, #4
 80008c6:	9800      	ldr	r0, [sp, #0]
 80008c8:	8801      	ldrh	r1, [r0, #0]
 80008ca:	4588      	cmp	r8, r1
 80008cc:	d249      	bcs.n	8000962 <ai_platform_network_process+0x23e>
 80008ce:	6840      	ldr	r0, [r0, #4]
 80008d0:	2800      	cmp	r0, #0
 80008d2:	bf1c      	itt	ne
 80008d4:	f850 4009 	ldrne.w	r4, [r0, r9]
 80008d8:	2c00      	cmpne	r4, #0
 80008da:	d042      	beq.n	8000962 <ai_platform_network_process+0x23e>
 80008dc:	9800      	ldr	r0, [sp, #0]
 80008de:	6881      	ldr	r1, [r0, #8]
 80008e0:	680a      	ldr	r2, [r1, #0]
 80008e2:	1995      	adds	r5, r2, r6
 80008e4:	d038      	beq.n	8000958 <ai_platform_network_process+0x234>
 80008e6:	69a0      	ldr	r0, [r4, #24]
 80008e8:	6841      	ldr	r1, [r0, #4]
 80008ea:	887b      	ldrh	r3, [r7, #2]
 80008ec:	88ba      	ldrh	r2, [r7, #4]
 80008ee:	68b8      	ldr	r0, [r7, #8]
 80008f0:	fb03 fc02 	mul.w	ip, r3, r2
 80008f4:	fb00 fc0c 	mul.w	ip, r0, ip
 80008f8:	4561      	cmp	r1, ip
 80008fa:	d33e      	bcc.n	800097a <ai_platform_network_process+0x256>
 80008fc:	f8d4 c00c 	ldr.w	ip, [r4, #12]
 8000900:	f8dc e00c 	ldr.w	lr, [ip, #12]
 8000904:	459e      	cmp	lr, r3
 8000906:	bf01      	itttt	eq
 8000908:	f8dc 3008 	ldreq.w	r3, [ip, #8]
 800090c:	4293      	cmpeq	r3, r2
 800090e:	f8dc 2004 	ldreq.w	r2, [ip, #4]
 8000912:	4282      	cmpeq	r2, r0
 8000914:	d131      	bne.n	800097a <ai_platform_network_process+0x256>
 8000916:	69a0      	ldr	r0, [r4, #24]
 8000918:	6800      	ldr	r0, [r0, #0]
 800091a:	f005 faa3 	bl	8005e64 <ai_array_get_byte_size>
 800091e:	68e1      	ldr	r1, [r4, #12]
 8000920:	68ca      	ldr	r2, [r1, #12]
 8000922:	6961      	ldr	r1, [r4, #20]
 8000924:	68cb      	ldr	r3, [r1, #12]
 8000926:	435a      	muls	r2, r3
 8000928:	4290      	cmp	r0, r2
 800092a:	d326      	bcc.n	800097a <ai_platform_network_process+0x256>
 800092c:	69a0      	ldr	r0, [r4, #24]
 800092e:	6800      	ldr	r0, [r0, #0]
 8000930:	f005 f9c0 	bl	8005cb4 <ai_array_to_buffer_fmt>
 8000934:	f857 1c04 	ldr.w	r1, [r7, #-4]
 8000938:	f020 407e 	bic.w	r0, r0, #4261412864	; 0xfe000000
 800093c:	f021 417e 	bic.w	r1, r1, #4261412864	; 0xfe000000
 8000940:	4288      	cmp	r0, r1
 8000942:	d0ac      	beq.n	800089e <ai_platform_network_process+0x17a>
 8000944:	2219      	movs	r2, #25
 8000946:	2113      	movs	r1, #19
 8000948:	f10a 0010 	add.w	r0, sl, #16
 800094c:	e01f      	b.n	800098e <ai_platform_network_process+0x26a>
 800094e:	2221      	movs	r2, #33	; 0x21
 8000950:	2113      	movs	r1, #19
 8000952:	f10a 0010 	add.w	r0, sl, #16
 8000956:	e01a      	b.n	800098e <ai_platform_network_process+0x26a>
 8000958:	2217      	movs	r2, #23
 800095a:	2113      	movs	r1, #19
 800095c:	f10a 0010 	add.w	r0, sl, #16
 8000960:	e015      	b.n	800098e <ai_platform_network_process+0x26a>
 8000962:	4655      	mov	r5, sl
 8000964:	f8a5 b014 	strh.w	fp, [r5, #20]
 8000968:	f8b5 0048 	ldrh.w	r0, [r5, #72]	; 0x48
 800096c:	2800      	cmp	r0, #0
 800096e:	bf14      	ite	ne
 8000970:	f8d5 a04c 	ldrne.w	sl, [r5, #76]	; 0x4c
 8000974:	f04f 0a00 	moveq.w	sl, #0
 8000978:	e00f      	b.n	800099a <ai_platform_network_process+0x276>
 800097a:	4655      	mov	r5, sl
 800097c:	2218      	movs	r2, #24
 800097e:	2113      	movs	r1, #19
 8000980:	f105 0010 	add.w	r0, r5, #16
 8000984:	e003      	b.n	800098e <ai_platform_network_process+0x26a>
 8000986:	4650      	mov	r0, sl
 8000988:	2217      	movs	r2, #23
 800098a:	2112      	movs	r1, #18
 800098c:	3010      	adds	r0, #16
 800098e:	f000 f8c4 	bl	8000b1a <core_set_error>
 8000992:	2000      	movs	r0, #0
 8000994:	b003      	add	sp, #12
 8000996:	e8bd 8ff0 	ldmia.w	sp!, {r4, r5, r6, r7, r8, r9, sl, fp, pc}
 800099a:	2802      	cmp	r0, #2
 800099c:	bfa6      	itte	ge
 800099e:	6ce8      	ldrge	r0, [r5, #76]	; 0x4c
 80009a0:	f100 0b0c 	addge.w	fp, r0, #12
 80009a4:	f04f 0b00 	movlt.w	fp, #0
 80009a8:	8ae8      	ldrh	r0, [r5, #22]
 80009aa:	8aa9      	ldrh	r1, [r5, #20]
 80009ac:	ebb0 0f01 	cmp.w	r0, r1
 80009b0:	f080 8087 	bcs.w	8000ac2 <ai_platform_network_process+0x39e>
 80009b4:	f04f 0800 	mov.w	r8, #0
 80009b8:	4654      	mov	r4, sl
 80009ba:	46c1      	mov	r9, r8
 80009bc:	46c2      	mov	sl, r8
 80009be:	e018      	b.n	80009f2 <ai_platform_network_process+0x2ce>
 80009c0:	6882      	ldr	r2, [r0, #8]
 80009c2:	68c3      	ldr	r3, [r0, #12]
 80009c4:	6871      	ldr	r1, [r6, #4]
 80009c6:	1ad2      	subs	r2, r2, r3
 80009c8:	4411      	add	r1, r2
 80009ca:	6081      	str	r1, [r0, #8]
 80009cc:	6872      	ldr	r2, [r6, #4]
 80009ce:	60c2      	str	r2, [r0, #12]
 80009d0:	6870      	ldr	r0, [r6, #4]
 80009d2:	68b1      	ldr	r1, [r6, #8]
 80009d4:	4408      	add	r0, r1
 80009d6:	6070      	str	r0, [r6, #4]
 80009d8:	6831      	ldr	r1, [r6, #0]
 80009da:	4288      	cmp	r0, r1
 80009dc:	d302      	bcc.n	80009e4 <ai_platform_network_process+0x2c0>
 80009de:	68f0      	ldr	r0, [r6, #12]
 80009e0:	4240      	negs	r0, r0
 80009e2:	4408      	add	r0, r1
 80009e4:	6070      	str	r0, [r6, #4]
 80009e6:	f10a 0a01 	add.w	sl, sl, #1
 80009ea:	f109 0910 	add.w	r9, r9, #16
 80009ee:	f108 0804 	add.w	r8, r8, #4
 80009f2:	2c00      	cmp	r4, #0
 80009f4:	bf14      	ite	ne
 80009f6:	8820      	ldrhne	r0, [r4, #0]
 80009f8:	2000      	moveq	r0, #0
 80009fa:	4582      	cmp	sl, r0
 80009fc:	d212      	bcs.n	8000a24 <ai_platform_network_process+0x300>
 80009fe:	6860      	ldr	r0, [r4, #4]
 8000a00:	b180      	cbz	r0, 8000a24 <ai_platform_network_process+0x300>
 8000a02:	f850 0008 	ldr.w	r0, [r0, r8]
 8000a06:	b168      	cbz	r0, 8000a24 <ai_platform_network_process+0x300>
 8000a08:	68a1      	ldr	r1, [r4, #8]
 8000a0a:	6980      	ldr	r0, [r0, #24]
 8000a0c:	680a      	ldr	r2, [r1, #0]
 8000a0e:	6801      	ldr	r1, [r0, #0]
 8000a10:	eb02 0609 	add.w	r6, r2, r9
 8000a14:	008a      	lsls	r2, r1, #2
 8000a16:	d5d3      	bpl.n	80009c0 <ai_platform_network_process+0x29c>
 8000a18:	68b2      	ldr	r2, [r6, #8]
 8000a1a:	6871      	ldr	r1, [r6, #4]
 8000a1c:	6880      	ldr	r0, [r0, #8]
 8000a1e:	f007 feb2 	bl	8008786 <__aeabi_memcpy>
 8000a22:	e7d5      	b.n	80009d0 <ai_platform_network_process+0x2ac>
 8000a24:	46a2      	mov	sl, r4
 8000a26:	4628      	mov	r0, r5
 8000a28:	f000 f936 	bl	8000c98 <ai_layers_forward_all>
 8000a2c:	f04f 0800 	mov.w	r8, #0
 8000a30:	465c      	mov	r4, fp
 8000a32:	46c1      	mov	r9, r8
 8000a34:	46c3      	mov	fp, r8
 8000a36:	e017      	b.n	8000a68 <ai_platform_network_process+0x344>
 8000a38:	6871      	ldr	r1, [r6, #4]
 8000a3a:	68b2      	ldr	r2, [r6, #8]
 8000a3c:	4411      	add	r1, r2
 8000a3e:	6071      	str	r1, [r6, #4]
 8000a40:	6832      	ldr	r2, [r6, #0]
 8000a42:	4291      	cmp	r1, r2
 8000a44:	d302      	bcc.n	8000a4c <ai_platform_network_process+0x328>
 8000a46:	68f1      	ldr	r1, [r6, #12]
 8000a48:	4249      	negs	r1, r1
 8000a4a:	4411      	add	r1, r2
 8000a4c:	6071      	str	r1, [r6, #4]
 8000a4e:	6882      	ldr	r2, [r0, #8]
 8000a50:	68c3      	ldr	r3, [r0, #12]
 8000a52:	1ad2      	subs	r2, r2, r3
 8000a54:	4411      	add	r1, r2
 8000a56:	6081      	str	r1, [r0, #8]
 8000a58:	6872      	ldr	r2, [r6, #4]
 8000a5a:	60c2      	str	r2, [r0, #12]
 8000a5c:	f10b 0b01 	add.w	fp, fp, #1
 8000a60:	f109 0910 	add.w	r9, r9, #16
 8000a64:	f108 0804 	add.w	r8, r8, #4
 8000a68:	2c00      	cmp	r4, #0
 8000a6a:	bf14      	ite	ne
 8000a6c:	8820      	ldrhne	r0, [r4, #0]
 8000a6e:	2000      	moveq	r0, #0
 8000a70:	4583      	cmp	fp, r0
 8000a72:	d21d      	bcs.n	8000ab0 <ai_platform_network_process+0x38c>
 8000a74:	6860      	ldr	r0, [r4, #4]
 8000a76:	b1d8      	cbz	r0, 8000ab0 <ai_platform_network_process+0x38c>
 8000a78:	f850 0008 	ldr.w	r0, [r0, r8]
 8000a7c:	b1c0      	cbz	r0, 8000ab0 <ai_platform_network_process+0x38c>
 8000a7e:	68a1      	ldr	r1, [r4, #8]
 8000a80:	6980      	ldr	r0, [r0, #24]
 8000a82:	680a      	ldr	r2, [r1, #0]
 8000a84:	6801      	ldr	r1, [r0, #0]
 8000a86:	eb02 0609 	add.w	r6, r2, r9
 8000a8a:	008a      	lsls	r2, r1, #2
 8000a8c:	d5d4      	bpl.n	8000a38 <ai_platform_network_process+0x314>
 8000a8e:	6881      	ldr	r1, [r0, #8]
 8000a90:	68b2      	ldr	r2, [r6, #8]
 8000a92:	6870      	ldr	r0, [r6, #4]
 8000a94:	f007 fe77 	bl	8008786 <__aeabi_memcpy>
 8000a98:	6870      	ldr	r0, [r6, #4]
 8000a9a:	68b1      	ldr	r1, [r6, #8]
 8000a9c:	4408      	add	r0, r1
 8000a9e:	6070      	str	r0, [r6, #4]
 8000aa0:	6831      	ldr	r1, [r6, #0]
 8000aa2:	4288      	cmp	r0, r1
 8000aa4:	d302      	bcc.n	8000aac <ai_platform_network_process+0x388>
 8000aa6:	68f0      	ldr	r0, [r6, #12]
 8000aa8:	4240      	negs	r0, r0
 8000aaa:	4408      	add	r0, r1
 8000aac:	6070      	str	r0, [r6, #4]
 8000aae:	e7d5      	b.n	8000a5c <ai_platform_network_process+0x338>
 8000ab0:	8ae8      	ldrh	r0, [r5, #22]
 8000ab2:	8aa9      	ldrh	r1, [r5, #20]
 8000ab4:	1c40      	adds	r0, r0, #1
 8000ab6:	82e8      	strh	r0, [r5, #22]
 8000ab8:	46a3      	mov	fp, r4
 8000aba:	b280      	uxth	r0, r0
 8000abc:	4288      	cmp	r0, r1
 8000abe:	f4ff af79 	bcc.w	80009b4 <ai_platform_network_process+0x290>
 8000ac2:	8ae8      	ldrh	r0, [r5, #22]
 8000ac4:	b003      	add	sp, #12
 8000ac6:	e8bd 8ff0 	ldmia.w	sp!, {r4, r5, r6, r7, r8, r9, sl, fp, pc}
	...

08000acc <.text_18>:
 8000acc:	e0002000 	.word	0xe0002000

08000ad0 <.text_19>:
 8000ad0:	40023000 	.word	0x40023000

08000ad4 <.text_20>:
 8000ad4:	f407a5c2 	.word	0xf407a5c2

08000ad8 <.text_21>:
 8000ad8:	b5e8b5cd 	.word	0xb5e8b5cd

08000adc <.text_22>:
 8000adc:	a1c00100 	.word	0xa1c00100

08000ae0 <.text_23>:
 8000ae0:	01030001 	.word	0x01030001

08000ae4 <.text_24>:
 8000ae4:	00000104 	.word	0x00000104

08000ae8 <.text_25>:
 8000ae8:	00000101 	.word	0x00000101

08000aec <.text_26>:
 8000aec:	00000301 	.word	0x00000301

08000af0 <.text_27>:
 8000af0:	00001030 	.word	0x00001030

08000af4 <.text_28>:
 8000af4:	00001001 	.word	0x00001001

08000af8 <_platform_network_sanity_check{5}::signatures>:
 8000af8:	84048403                                ....

08000afc <.text_30>:
 8000afc:	00001002 	.word	0x00001002

08000b00 <.text_31>:
 8000b00:	00001010 	.word	0x00001010

08000b04 <.text_32>:
 8000b04:	00000000 	.word	0x00000000

08000b08 <.text_33>:
 8000b08:	00001010 	.word	0x00001010

08000b0c <core_init>:
 8000b0c:	2001      	movs	r0, #1
 8000b0e:	4770      	bx	lr

08000b10 <core_get_error>:
 8000b10:	4601      	mov	r1, r0
 8000b12:	2200      	movs	r2, #0
 8000b14:	6808      	ldr	r0, [r1, #0]
 8000b16:	600a      	str	r2, [r1, #0]
 8000b18:	4770      	bx	lr

08000b1a <core_set_error>:
 8000b1a:	7803      	ldrb	r3, [r0, #0]
 8000b1c:	ea5f 6c03 	movs.w	ip, r3, lsl #24
 8000b20:	d104      	bne.n	8000b2c <core_set_error+0x12>
 8000b22:	ea41 2102 	orr.w	r1, r1, r2, lsl #8
 8000b26:	6001      	str	r1, [r0, #0]
 8000b28:	2001      	movs	r0, #1
 8000b2a:	4770      	bx	lr
 8000b2c:	2000      	movs	r0, #0
 8000b2e:	4770      	bx	lr

08000b30 <ai_layers_forward_layer>:
 8000b30:	b510      	push	{r4, lr}
 8000b32:	4604      	mov	r4, r0
 8000b34:	6921      	ldr	r1, [r4, #16]
 8000b36:	4788      	blx	r1
 8000b38:	68e0      	ldr	r0, [r4, #12]
 8000b3a:	42a0      	cmp	r0, r4
 8000b3c:	bf08      	it	eq
 8000b3e:	2000      	moveq	r0, #0
 8000b40:	bd10      	pop	{r4, pc}
	...

08000b44 <ai_check_custom_types>:
 8000b44:	b500      	push	{lr}
 8000b46:	b081      	sub	sp, #4
 8000b48:	b160      	cbz	r0, 8000b64 <ai_check_custom_types+0x20>
 8000b4a:	7801      	ldrb	r1, [r0, #0]
 8000b4c:	2903      	cmp	r1, #3
 8000b4e:	d109      	bne.n	8000b64 <ai_check_custom_types+0x20>
 8000b50:	f05f 0204 	movs.w	r2, #4
 8000b54:	a18d      	add	r1, pc, #564	; (adr r1, 8000d8c <ai_check_custom_types::ref_signatures>)
 8000b56:	f007 fe3d 	bl	80087d4 <memcmp>
 8000b5a:	1e40      	subs	r0, r0, #1
 8000b5c:	4180      	sbcs	r0, r0
 8000b5e:	0fc0      	lsrs	r0, r0, #31
 8000b60:	b001      	add	sp, #4
 8000b62:	bd00      	pop	{pc}
 8000b64:	2000      	movs	r0, #0
 8000b66:	b001      	add	sp, #4
 8000b68:	bd00      	pop	{pc}
	...

08000b6c <ai_layer_type_name>:
 8000b6c:	f242 7211 	movw	r2, #10001	; 0x2711
 8000b70:	1a81      	subs	r1, r0, r2
 8000b72:	2901      	cmp	r1, #1
 8000b74:	bf81      	itttt	hi
 8000b76:	1ec9      	subhi	r1, r1, #3
 8000b78:	290d      	cmphi	r1, #13
 8000b7a:	390f      	subhi	r1, #15
 8000b7c:	2909      	cmphi	r1, #9
 8000b7e:	f200 806b 	bhi.w	8000c58 <ai_layer_type_name+0xec>
 8000b82:	1a80      	subs	r0, r0, r2
 8000b84:	d033      	beq.n	8000bee <ai_layer_type_name+0x82>
 8000b86:	1e40      	subs	r0, r0, #1
 8000b88:	d033      	beq.n	8000bf2 <ai_layer_type_name+0x86>
 8000b8a:	1e80      	subs	r0, r0, #2
 8000b8c:	d033      	beq.n	8000bf6 <ai_layer_type_name+0x8a>
 8000b8e:	1e40      	subs	r0, r0, #1
 8000b90:	d034      	beq.n	8000bfc <ai_layer_type_name+0x90>
 8000b92:	1e40      	subs	r0, r0, #1
 8000b94:	d034      	beq.n	8000c00 <ai_layer_type_name+0x94>
 8000b96:	1e40      	subs	r0, r0, #1
 8000b98:	d034      	beq.n	8000c04 <ai_layer_type_name+0x98>
 8000b9a:	1e40      	subs	r0, r0, #1
 8000b9c:	d034      	beq.n	8000c08 <ai_layer_type_name+0x9c>
 8000b9e:	1e40      	subs	r0, r0, #1
 8000ba0:	d034      	beq.n	8000c0c <ai_layer_type_name+0xa0>
 8000ba2:	1e40      	subs	r0, r0, #1
 8000ba4:	d034      	beq.n	8000c10 <ai_layer_type_name+0xa4>
 8000ba6:	1e40      	subs	r0, r0, #1
 8000ba8:	d034      	beq.n	8000c14 <ai_layer_type_name+0xa8>
 8000baa:	1e40      	subs	r0, r0, #1
 8000bac:	d034      	beq.n	8000c18 <ai_layer_type_name+0xac>
 8000bae:	1e40      	subs	r0, r0, #1
 8000bb0:	d034      	beq.n	8000c1c <ai_layer_type_name+0xb0>
 8000bb2:	1e40      	subs	r0, r0, #1
 8000bb4:	d034      	beq.n	8000c20 <ai_layer_type_name+0xb4>
 8000bb6:	1e40      	subs	r0, r0, #1
 8000bb8:	d034      	beq.n	8000c24 <ai_layer_type_name+0xb8>
 8000bba:	1e40      	subs	r0, r0, #1
 8000bbc:	d034      	beq.n	8000c28 <ai_layer_type_name+0xbc>
 8000bbe:	1e40      	subs	r0, r0, #1
 8000bc0:	d034      	beq.n	8000c2c <ai_layer_type_name+0xc0>
 8000bc2:	1e80      	subs	r0, r0, #2
 8000bc4:	d034      	beq.n	8000c30 <ai_layer_type_name+0xc4>
 8000bc6:	1e40      	subs	r0, r0, #1
 8000bc8:	d034      	beq.n	8000c34 <ai_layer_type_name+0xc8>
 8000bca:	1e40      	subs	r0, r0, #1
 8000bcc:	d034      	beq.n	8000c38 <ai_layer_type_name+0xcc>
 8000bce:	1e40      	subs	r0, r0, #1
 8000bd0:	d034      	beq.n	8000c3c <ai_layer_type_name+0xd0>
 8000bd2:	1e40      	subs	r0, r0, #1
 8000bd4:	d034      	beq.n	8000c40 <ai_layer_type_name+0xd4>
 8000bd6:	1e40      	subs	r0, r0, #1
 8000bd8:	d034      	beq.n	8000c44 <ai_layer_type_name+0xd8>
 8000bda:	1e40      	subs	r0, r0, #1
 8000bdc:	d034      	beq.n	8000c48 <ai_layer_type_name+0xdc>
 8000bde:	1e40      	subs	r0, r0, #1
 8000be0:	d034      	beq.n	8000c4c <ai_layer_type_name+0xe0>
 8000be2:	1e40      	subs	r0, r0, #1
 8000be4:	d034      	beq.n	8000c50 <ai_layer_type_name+0xe4>
 8000be6:	1e40      	subs	r0, r0, #1
 8000be8:	d034      	beq.n	8000c54 <ai_layer_type_name+0xe8>
 8000bea:	a01c      	add	r0, pc, #112	; (adr r0, 8000c5c <.text_5>)
 8000bec:	4770      	bx	lr
 8000bee:	a01c      	add	r0, pc, #112	; (adr r0, 8000c60 <.text_6>)
 8000bf0:	4770      	bx	lr
 8000bf2:	a01c      	add	r0, pc, #112	; (adr r0, 8000c64 <.text_7>)
 8000bf4:	4770      	bx	lr
 8000bf6:	bf00      	nop
 8000bf8:	a031      	add	r0, pc, #196	; (adr r0, 8000cc0 <.text_15>)
 8000bfa:	4770      	bx	lr
 8000bfc:	a032      	add	r0, pc, #200	; (adr r0, 8000cc8 <.text_16>)
 8000bfe:	4770      	bx	lr
 8000c00:	a019      	add	r0, pc, #100	; (adr r0, 8000c68 <.text_8>)
 8000c02:	4770      	bx	lr
 8000c04:	a019      	add	r0, pc, #100	; (adr r0, 8000c6c <.text_9>)
 8000c06:	4770      	bx	lr
 8000c08:	a031      	add	r0, pc, #196	; (adr r0, 8000cd0 <.text_17>)
 8000c0a:	4770      	bx	lr
 8000c0c:	a018      	add	r0, pc, #96	; (adr r0, 8000c70 <.text_10>)
 8000c0e:	4770      	bx	lr
 8000c10:	a031      	add	r0, pc, #196	; (adr r0, 8000cd8 <.text_18>)
 8000c12:	4770      	bx	lr
 8000c14:	a032      	add	r0, pc, #200	; (adr r0, 8000ce0 <.text_19>)
 8000c16:	4770      	bx	lr
 8000c18:	a036      	add	r0, pc, #216	; (adr r0, 8000cf4 <.text_20>)
 8000c1a:	4770      	bx	lr
 8000c1c:	a038      	add	r0, pc, #224	; (adr r0, 8000d00 <.text_21>)
 8000c1e:	4770      	bx	lr
 8000c20:	a014      	add	r0, pc, #80	; (adr r0, 8000c74 <.text_11>)
 8000c22:	4770      	bx	lr
 8000c24:	a038      	add	r0, pc, #224	; (adr r0, 8000d08 <.text_22>)
 8000c26:	4770      	bx	lr
 8000c28:	a039      	add	r0, pc, #228	; (adr r0, 8000d10 <.text_23>)
 8000c2a:	4770      	bx	lr
 8000c2c:	a03b      	add	r0, pc, #236	; (adr r0, 8000d1c <.text_24>)
 8000c2e:	4770      	bx	lr
 8000c30:	a03f      	add	r0, pc, #252	; (adr r0, 8000d30 <.text_25>)
 8000c32:	4770      	bx	lr
 8000c34:	a040      	add	r0, pc, #256	; (adr r0, 8000d38 <.text_26>)
 8000c36:	4770      	bx	lr
 8000c38:	a041      	add	r0, pc, #260	; (adr r0, 8000d40 <.text_27>)
 8000c3a:	4770      	bx	lr
 8000c3c:	a043      	add	r0, pc, #268	; (adr r0, 8000d4c <.text_28>)
 8000c3e:	4770      	bx	lr
 8000c40:	a044      	add	r0, pc, #272	; (adr r0, 8000d54 <.text_29>)
 8000c42:	4770      	bx	lr
 8000c44:	a045      	add	r0, pc, #276	; (adr r0, 8000d5c <.text_30>)
 8000c46:	4770      	bx	lr
 8000c48:	a00b      	add	r0, pc, #44	; (adr r0, 8000c78 <.text_12>)
 8000c4a:	4770      	bx	lr
 8000c4c:	a049      	add	r0, pc, #292	; (adr r0, 8000d74 <.text_31>)
 8000c4e:	4770      	bx	lr
 8000c50:	a04a      	add	r0, pc, #296	; (adr r0, 8000d7c <.text_32>)
 8000c52:	4770      	bx	lr
 8000c54:	a04b      	add	r0, pc, #300	; (adr r0, 8000d84 <.text_33>)
 8000c56:	4770      	bx	lr
 8000c58:	a000      	add	r0, pc, #0	; (adr r0, 8000c5c <.text_5>)
 8000c5a:	4770      	bx	lr

08000c5c <.text_5>:
 8000c5c:	00000000 	.word	0x00000000

08000c60 <.text_6>:
 8000c60:	00444441 	.word	0x00444441

08000c64 <.text_7>:
 8000c64:	00004e42 	.word	0x00004e42

08000c68 <.text_8>:
 8000c68:	00555247 	.word	0x00555247

08000c6c <.text_9>:
 8000c6c:	004e524c 	.word	0x004e524c

08000c70 <.text_10>:
 8000c70:	00004c4e 	.word	0x00004c4e

08000c74 <.text_11>:
 8000c74:	00004d53 	.word	0x00004d53

08000c78 <.text_12>:
 8000c78:	00444150 	.word	0x00444150

08000c7c <ai_layer_type_is_valid>:
 8000c7c:	f242 7111 	movw	r1, #10001	; 0x2711
 8000c80:	1a40      	subs	r0, r0, r1
 8000c82:	2801      	cmp	r0, #1
 8000c84:	bf81      	itttt	hi
 8000c86:	1ec0      	subhi	r0, r0, #3
 8000c88:	280d      	cmphi	r0, #13
 8000c8a:	380f      	subhi	r0, #15
 8000c8c:	2809      	cmphi	r0, #9
 8000c8e:	d801      	bhi.n	8000c94 <ai_layer_type_is_valid+0x18>
 8000c90:	2001      	movs	r0, #1
 8000c92:	4770      	bx	lr
 8000c94:	2000      	movs	r0, #0
 8000c96:	4770      	bx	lr

08000c98 <ai_layers_forward_all>:
 8000c98:	b530      	push	{r4, r5, lr}
 8000c9a:	4604      	mov	r4, r0
 8000c9c:	b081      	sub	sp, #4
 8000c9e:	6d20      	ldr	r0, [r4, #80]	; 0x50
 8000ca0:	b158      	cbz	r0, 8000cba <ai_layers_forward_all+0x22>
 8000ca2:	6560      	str	r0, [r4, #84]	; 0x54
 8000ca4:	6d65      	ldr	r5, [r4, #84]	; 0x54
 8000ca6:	6929      	ldr	r1, [r5, #16]
 8000ca8:	4628      	mov	r0, r5
 8000caa:	4788      	blx	r1
 8000cac:	68e8      	ldr	r0, [r5, #12]
 8000cae:	42a8      	cmp	r0, r5
 8000cb0:	bf08      	it	eq
 8000cb2:	2000      	moveq	r0, #0
 8000cb4:	2800      	cmp	r0, #0
 8000cb6:	6560      	str	r0, [r4, #84]	; 0x54
 8000cb8:	d1f4      	bne.n	8000ca4 <ai_layers_forward_all+0xc>
 8000cba:	b001      	add	sp, #4
 8000cbc:	bd30      	pop	{r4, r5, pc}
	...

08000cc0 <.text_15>:
 8000cc0:	564e4f43 	.word	0x564e4f43
 8000cc4:	00004432 	.word	0x00004432

08000cc8 <.text_16>:
 8000cc8:	534e4544 	.word	0x534e4544
 8000ccc:	0045      	.short	0x0045
	...

08000cd0 <.text_17>:
 8000cd0:	4d54534c 	.word	0x4d54534c
 8000cd4:	00          	.byte	0x00
 8000cd5:	00          	.byte	0x00
	...

08000cd8 <.text_18>:
 8000cd8:	4d524f4e 	.word	0x4d524f4e
 8000cdc:	00          	.byte	0x00
 8000cdd:	00          	.byte	0x00
	...

08000ce0 <.text_19>:
 8000ce0:	4954504f 	.word	0x4954504f
 8000ce4:	455a494d 	.word	0x455a494d
 8000ce8:	4f435f44 	.word	0x4f435f44
 8000cec:	4432564e 	.word	0x4432564e
 8000cf0:	00          	.byte	0x00
 8000cf1:	00          	.byte	0x00
	...

08000cf4 <.text_20>:
 8000cf4:	4e415254 	.word	0x4e415254
 8000cf8:	534f5053 	.word	0x534f5053
 8000cfc:	0045      	.short	0x0045
	...

08000d00 <.text_21>:
 8000d00:	4c4f4f50 	.word	0x4c4f4f50
 8000d04:	00          	.byte	0x00
 8000d05:	00          	.byte	0x00
	...

08000d08 <.text_22>:
 8000d08:	494c5053 	.word	0x494c5053
 8000d0c:	0054      	.short	0x0054
	...

08000d10 <.text_23>:
 8000d10:	454d4954 	.word	0x454d4954
 8000d14:	4c45445f 	.word	0x4c45445f
 8000d18:	00005941 	.word	0x00005941

08000d1c <.text_24>:
 8000d1c:	454d4954 	.word	0x454d4954
 8000d20:	5349445f 	.word	0x5349445f
 8000d24:	42495254 	.word	0x42495254
 8000d28:	44455455 	.word	0x44455455
 8000d2c:	00          	.byte	0x00
 8000d2d:	00          	.byte	0x00
	...

08000d30 <.text_25>:
 8000d30:	434e4f43 	.word	0x434e4f43
 8000d34:	00005441 	.word	0x00005441

08000d38 <.text_26>:
 8000d38:	4d4d4547 	.word	0x4d4d4547
 8000d3c:	00          	.byte	0x00
 8000d3d:	00          	.byte	0x00
	...

08000d40 <.text_27>:
 8000d40:	41535055 	.word	0x41535055
 8000d44:	454c504d 	.word	0x454c504d
 8000d48:	00          	.byte	0x00
 8000d49:	00          	.byte	0x00
	...

08000d4c <.text_28>:
 8000d4c:	57544c45 	.word	0x57544c45
 8000d50:	00455349 	.word	0x00455349

08000d54 <.text_29>:
 8000d54:	454e4547 	.word	0x454e4547
 8000d58:	00434952 	.word	0x00434952

08000d5c <.text_30>:
 8000d5c:	54534e49 	.word	0x54534e49
 8000d60:	45434e41 	.word	0x45434e41
 8000d64:	4d524f4e 	.word	0x4d524f4e
 8000d68:	5a494c41 	.word	0x5a494c41
 8000d6c:	4f495441 	.word	0x4f495441
 8000d70:	004e      	.short	0x004e
	...

08000d74 <.text_31>:
 8000d74:	43494c53 	.word	0x43494c53
 8000d78:	0045      	.short	0x0045
	...

08000d7c <.text_32>:
 8000d7c:	454c4954 	.word	0x454c4954
 8000d80:	00          	.byte	0x00
 8000d81:	00          	.byte	0x00
	...

08000d84 <.text_33>:
 8000d84:	55444552 	.word	0x55444552
 8000d88:	00004543 	.word	0x00004543

08000d8c <ai_check_custom_types::ref_signatures>:
 8000d8c:	84048403                                ....

08000d90 <ai_conv2d_stripe_f32>:
 8000d90:	e92d 4ff0 	stmdb	sp!, {r4, r5, r6, r7, r8, r9, sl, fp, lr}
 8000d94:	b098      	sub	sp, #96	; 0x60
 8000d96:	9825      	ldr	r0, [sp, #148]	; 0x94
 8000d98:	2800      	cmp	r0, #0
 8000d9a:	f000 82cb 	beq.w	8001334 <ai_conv2d_stripe_f32+0x5a4>
 8000d9e:	f9bd 40c0 	ldrsh.w	r4, [sp, #192]	; 0xc0
 8000da2:	f8dd a0b4 	ldr.w	sl, [sp, #180]	; 0xb4
 8000da6:	9d2b      	ldr	r5, [sp, #172]	; 0xac
 8000da8:	9f24      	ldr	r7, [sp, #144]	; 0x90
 8000daa:	9e2c      	ldr	r6, [sp, #176]	; 0xb0
 8000dac:	9004      	str	r0, [sp, #16]
 8000dae:	fb07 6a0a 	mla	sl, r7, sl, r6
 8000db2:	982a      	ldr	r0, [sp, #168]	; 0xa8
 8000db4:	f9bd 60c0 	ldrsh.w	r6, [sp, #192]	; 0xc0
 8000db8:	f8cd a014 	str.w	sl, [sp, #20]
 8000dbc:	1904      	adds	r4, r0, r4
 8000dbe:	1e64      	subs	r4, r4, #1
 8000dc0:	9826      	ldr	r0, [sp, #152]	; 0x98
 8000dc2:	9100      	str	r1, [sp, #0]
 8000dc4:	fb94 f6f6 	sdiv	r6, r4, r6
 8000dc8:	f9bd 40bc 	ldrsh.w	r4, [sp, #188]	; 0xbc
 8000dcc:	9217      	str	r2, [sp, #92]	; 0x5c
 8000dce:	4346      	muls	r6, r0
 8000dd0:	9616      	str	r6, [sp, #88]	; 0x58
 8000dd2:	eeb7 0a00 	vmov.f32	s0, #112	; 0x3f800000  1.0
 8000dd6:	9e2a      	ldr	r6, [sp, #168]	; 0xa8
 8000dd8:	9822      	ldr	r0, [sp, #136]	; 0x88
 8000dda:	9306      	str	r3, [sp, #24]
 8000ddc:	4344      	muls	r4, r0
 8000dde:	9415      	str	r4, [sp, #84]	; 0x54
 8000de0:	437e      	muls	r6, r7
 8000de2:	f9bd 40c0 	ldrsh.w	r4, [sp, #192]	; 0xc0
 8000de6:	437c      	muls	r4, r7
 8000de8:	9414      	str	r4, [sp, #80]	; 0x50
 8000dea:	4346      	muls	r6, r0
 8000dec:	f9bd 40c0 	ldrsh.w	r4, [sp, #192]	; 0xc0
 8000df0:	982a      	ldr	r0, [sp, #168]	; 0xa8
 8000df2:	960b      	str	r6, [sp, #44]	; 0x2c
 8000df4:	1a24      	subs	r4, r4, r0
 8000df6:	9413      	str	r4, [sp, #76]	; 0x4c
 8000df8:	4604      	mov	r4, r0
 8000dfa:	9826      	ldr	r0, [sp, #152]	; 0x98
 8000dfc:	9e26      	ldr	r6, [sp, #152]	; 0x98
 8000dfe:	4344      	muls	r4, r0
 8000e00:	9412      	str	r4, [sp, #72]	; 0x48
 8000e02:	9c2a      	ldr	r4, [sp, #168]	; 0xa8
 8000e04:	4344      	muls	r4, r0
 8000e06:	9411      	str	r4, [sp, #68]	; 0x44
 8000e08:	f9bd 00c0 	ldrsh.w	r0, [sp, #192]	; 0xc0
 8000e0c:	f9bd 40bc 	ldrsh.w	r4, [sp, #188]	; 0xbc
 8000e10:	fb14 f000 	smulbb	r0, r4, r0
 8000e14:	900a      	str	r0, [sp, #40]	; 0x28
 8000e16:	9c23      	ldr	r4, [sp, #140]	; 0x8c
 8000e18:	9829      	ldr	r0, [sp, #164]	; 0xa4
 8000e1a:	fbb4 f0f0 	udiv	r0, r4, r0
 8000e1e:	9010      	str	r0, [sp, #64]	; 0x40
 8000e20:	9c22      	ldr	r4, [sp, #136]	; 0x88
 8000e22:	9829      	ldr	r0, [sp, #164]	; 0xa4
 8000e24:	fbb4 f0f0 	udiv	r0, r4, r0
 8000e28:	900f      	str	r0, [sp, #60]	; 0x3c
 8000e2a:	9c23      	ldr	r4, [sp, #140]	; 0x8c
 8000e2c:	9822      	ldr	r0, [sp, #136]	; 0x88
 8000e2e:	fbb4 f0f0 	udiv	r0, r4, r0
 8000e32:	9c22      	ldr	r4, [sp, #136]	; 0x88
 8000e34:	900e      	str	r0, [sp, #56]	; 0x38
 8000e36:	4374      	muls	r4, r6
 8000e38:	940d      	str	r4, [sp, #52]	; 0x34
 8000e3a:	9c2a      	ldr	r4, [sp, #168]	; 0xa8
 8000e3c:	1b2d      	subs	r5, r5, r4
 8000e3e:	950c      	str	r5, [sp, #48]	; 0x30
 8000e40:	9f2c      	ldr	r7, [sp, #176]	; 0xb0
 8000e42:	9924      	ldr	r1, [sp, #144]	; 0x90
 8000e44:	982c      	ldr	r0, [sp, #176]	; 0xb0
 8000e46:	9a2e      	ldr	r2, [sp, #184]	; 0xb8
 8000e48:	427f      	negs	r7, r7
 8000e4a:	bfd8      	it	le
 8000e4c:	2700      	movle	r7, #0
 8000e4e:	1a09      	subs	r1, r1, r0
 8000e50:	4291      	cmp	r1, r2
 8000e52:	bf3d      	ittte	cc
 8000e54:	9824      	ldrcc	r0, [sp, #144]	; 0x90
 8000e56:	9e2c      	ldrcc	r6, [sp, #176]	; 0xb0
 8000e58:	1b86      	subcc	r6, r0, r6
 8000e5a:	4616      	movcs	r6, r2
 8000e5c:	9a05      	ldr	r2, [sp, #20]
 8000e5e:	9922      	ldr	r1, [sp, #136]	; 0x88
 8000e60:	9817      	ldr	r0, [sp, #92]	; 0x5c
 8000e62:	18ba      	adds	r2, r7, r2
 8000e64:	434a      	muls	r2, r1
 8000e66:	eb00 0282 	add.w	r2, r0, r2, lsl #2
 8000e6a:	9821      	ldr	r0, [sp, #132]	; 0x84
 8000e6c:	b900      	cbnz	r0, 8000e70 <ai_conv2d_stripe_f32+0xe0>
 8000e6e:	9800      	ldr	r0, [sp, #0]
 8000e70:	9001      	str	r0, [sp, #4]
 8000e72:	1bf6      	subs	r6, r6, r7
 8000e74:	9829      	ldr	r0, [sp, #164]	; 0xa4
 8000e76:	9d0c      	ldr	r5, [sp, #48]	; 0x30
 8000e78:	2801      	cmp	r0, #1
 8000e7a:	bf04      	itt	eq
 8000e7c:	980a      	ldreq	r0, [sp, #40]	; 0x28
 8000e7e:	2801      	cmpeq	r0, #1
 8000e80:	f040 80a9 	bne.w	8000fd6 <ai_conv2d_stripe_f32+0x246>
 8000e84:	9c24      	ldr	r4, [sp, #144]	; 0x90
 8000e86:	9826      	ldr	r0, [sp, #152]	; 0x98
 8000e88:	9b0d      	ldr	r3, [sp, #52]	; 0x34
 8000e8a:	1ba4      	subs	r4, r4, r6
 8000e8c:	434c      	muls	r4, r1
 8000e8e:	1b80      	subs	r0, r0, r6
 8000e90:	4341      	muls	r1, r0
 8000e92:	9827      	ldr	r0, [sp, #156]	; 0x9c
 8000e94:	1b40      	subs	r0, r0, r5
 8000e96:	fb00 fc03 	mul.w	ip, r0, r3
 8000e9a:	9811      	ldr	r0, [sp, #68]	; 0x44
 8000e9c:	9b06      	ldr	r3, [sp, #24]
 8000e9e:	4407      	add	r7, r0
 8000ea0:	9822      	ldr	r0, [sp, #136]	; 0x88
 8000ea2:	4347      	muls	r7, r0
 8000ea4:	eb03 0787 	add.w	r7, r3, r7, lsl #2
 8000ea8:	4370      	muls	r0, r6
 8000eaa:	9e01      	ldr	r6, [sp, #4]
 8000eac:	9b00      	ldr	r3, [sp, #0]
 8000eae:	429e      	cmp	r6, r3
 8000eb0:	9b0b      	ldr	r3, [sp, #44]	; 0x2c
 8000eb2:	eb02 0983 	add.w	r9, r2, r3, lsl #2
 8000eb6:	9a23      	ldr	r2, [sp, #140]	; 0x8c
 8000eb8:	bf0c      	ite	eq
 8000eba:	eddf 0aaf 	vldreq	s1, [pc, #700]	; 8001178 <ai_conv2d_stripe_f32+0x3e8>
 8000ebe:	eef0 0a40 	vmovne.f32	s1, s0
 8000ec2:	2a00      	cmp	r2, #0
 8000ec4:	f000 8222 	beq.w	800130c <ai_conv2d_stripe_f32+0x57c>
 8000ec8:	46b0      	mov	r8, r6
 8000eca:	462e      	mov	r6, r5
 8000ecc:	4613      	mov	r3, r2
 8000ece:	f8cd c008 	str.w	ip, [sp, #8]
 8000ed2:	461d      	mov	r5, r3
 8000ed4:	f8dd e000 	ldr.w	lr, [sp]
 8000ed8:	9b00      	ldr	r3, [sp, #0]
 8000eda:	463a      	mov	r2, r7
 8000edc:	4682      	mov	sl, r0
 8000ede:	f8cd 9004 	str.w	r9, [sp, #4]
 8000ee2:	46c4      	mov	ip, r8
 8000ee4:	f02a 0703 	bic.w	r7, sl, #3
 8000ee8:	ed9c 1a00 	vldr	s2, [ip]
 8000eec:	f8dd 8004 	ldr.w	r8, [sp, #4]
 8000ef0:	2e00      	cmp	r6, #0
 8000ef2:	ee21 1a20 	vmul.f32	s2, s2, s1
 8000ef6:	dd61      	ble.n	8000fbc <ai_conv2d_stripe_f32+0x22c>
 8000ef8:	4630      	mov	r0, r6
 8000efa:	2f00      	cmp	r7, #0
 8000efc:	f04f 0900 	mov.w	r9, #0
 8000f00:	f340 801f 	ble.w	8000f42 <ai_conv2d_stripe_f32+0x1b2>
 8000f04:	edd2 4a00 	vldr	s9, [r2]
 8000f08:	ed98 5a00 	vldr	s10, [r8]
 8000f0c:	edd2 3a01 	vldr	s7, [r2, #4]
 8000f10:	ed98 4a01 	vldr	s8, [r8, #4]
 8000f14:	edd2 2a02 	vldr	s5, [r2, #8]
 8000f18:	ed98 3a02 	vldr	s6, [r8, #8]
 8000f1c:	edd2 1a03 	vldr	s3, [r2, #12]
 8000f20:	ed98 2a03 	vldr	s4, [r8, #12]
 8000f24:	ee04 1a85 	vmla.f32	s2, s9, s10
 8000f28:	ee03 1a84 	vmla.f32	s2, s7, s8
 8000f2c:	3210      	adds	r2, #16
 8000f2e:	f109 0904 	add.w	r9, r9, #4
 8000f32:	ee02 1a83 	vmla.f32	s2, s5, s6
 8000f36:	45b9      	cmp	r9, r7
 8000f38:	ee01 1a82 	vmla.f32	s2, s3, s4
 8000f3c:	f108 0810 	add.w	r8, r8, #16
 8000f40:	dbe0      	blt.n	8000f04 <ai_conv2d_stripe_f32+0x174>
 8000f42:	45d1      	cmp	r9, sl
 8000f44:	f280 8034 	bge.w	8000fb0 <ai_conv2d_stripe_f32+0x220>
 8000f48:	f109 0901 	add.w	r9, r9, #1
 8000f4c:	edd2 2a00 	vldr	s5, [r2]
 8000f50:	edd8 1a00 	vldr	s3, [r8]
 8000f54:	1d12      	adds	r2, r2, #4
 8000f56:	45d1      	cmp	r9, sl
 8000f58:	ee02 1aa1 	vmla.f32	s2, s5, s3
 8000f5c:	f108 0804 	add.w	r8, r8, #4
 8000f60:	da26      	bge.n	8000fb0 <ai_conv2d_stripe_f32+0x220>
 8000f62:	f109 0901 	add.w	r9, r9, #1
 8000f66:	ed92 3a00 	vldr	s6, [r2]
 8000f6a:	ed98 2a00 	vldr	s4, [r8]
 8000f6e:	1d12      	adds	r2, r2, #4
 8000f70:	45d1      	cmp	r9, sl
 8000f72:	ee03 1a02 	vmla.f32	s2, s6, s4
 8000f76:	f108 0804 	add.w	r8, r8, #4
 8000f7a:	da19      	bge.n	8000fb0 <ai_conv2d_stripe_f32+0x220>
 8000f7c:	f109 0901 	add.w	r9, r9, #1
 8000f80:	edd2 2a00 	vldr	s5, [r2]
 8000f84:	edd8 1a00 	vldr	s3, [r8]
 8000f88:	1d12      	adds	r2, r2, #4
 8000f8a:	45d1      	cmp	r9, sl
 8000f8c:	ee02 1aa1 	vmla.f32	s2, s5, s3
 8000f90:	f108 0804 	add.w	r8, r8, #4
 8000f94:	da0c      	bge.n	8000fb0 <ai_conv2d_stripe_f32+0x220>
 8000f96:	f109 0901 	add.w	r9, r9, #1
 8000f9a:	ed92 2a00 	vldr	s4, [r2]
 8000f9e:	ed98 3a00 	vldr	s6, [r8]
 8000fa2:	1d12      	adds	r2, r2, #4
 8000fa4:	45d1      	cmp	r9, sl
 8000fa6:	ee02 1a03 	vmla.f32	s2, s4, s6
 8000faa:	f108 0804 	add.w	r8, r8, #4
 8000fae:	dbcb      	blt.n	8000f48 <ai_conv2d_stripe_f32+0x1b8>
 8000fb0:	1e40      	subs	r0, r0, #1
 8000fb2:	eb08 0884 	add.w	r8, r8, r4, lsl #2
 8000fb6:	eb02 0281 	add.w	r2, r2, r1, lsl #2
 8000fba:	d19e      	bne.n	8000efa <ai_conv2d_stripe_f32+0x16a>
 8000fbc:	9802      	ldr	r0, [sp, #8]
 8000fbe:	ed8e 1a00 	vstr	s2, [lr]
 8000fc2:	1e6d      	subs	r5, r5, #1
 8000fc4:	eb02 0280 	add.w	r2, r2, r0, lsl #2
 8000fc8:	f10e 0e04 	add.w	lr, lr, #4
 8000fcc:	f10c 0c04 	add.w	ip, ip, #4
 8000fd0:	d18a      	bne.n	8000ee8 <ai_conv2d_stripe_f32+0x158>
 8000fd2:	9300      	str	r3, [sp, #0]
 8000fd4:	e19a      	b.n	800130c <ai_conv2d_stripe_f32+0x57c>
 8000fd6:	9829      	ldr	r0, [sp, #164]	; 0xa4
 8000fd8:	4288      	cmp	r0, r1
 8000fda:	bf04      	itt	eq
 8000fdc:	980a      	ldreq	r0, [sp, #40]	; 0x28
 8000fde:	2801      	cmpeq	r0, #1
 8000fe0:	f040 80cc 	bne.w	800117c <ai_conv2d_stripe_f32+0x3ec>
 8000fe4:	980e      	ldr	r0, [sp, #56]	; 0x38
 8000fe6:	9b06      	ldr	r3, [sp, #24]
 8000fe8:	9c00      	ldr	r4, [sp, #0]
 8000fea:	9002      	str	r0, [sp, #8]
 8000fec:	9824      	ldr	r0, [sp, #144]	; 0x90
 8000fee:	1b81      	subs	r1, r0, r6
 8000ff0:	9822      	ldr	r0, [sp, #136]	; 0x88
 8000ff2:	fb01 fa00 	mul.w	sl, r1, r0
 8000ff6:	9826      	ldr	r0, [sp, #152]	; 0x98
 8000ff8:	9926      	ldr	r1, [sp, #152]	; 0x98
 8000ffa:	eba0 0c06 	sub.w	ip, r0, r6
 8000ffe:	9827      	ldr	r0, [sp, #156]	; 0x9c
 8001000:	1b40      	subs	r0, r0, r5
 8001002:	4341      	muls	r1, r0
 8001004:	9812      	ldr	r0, [sp, #72]	; 0x48
 8001006:	183f      	adds	r7, r7, r0
 8001008:	eb03 0087 	add.w	r0, r3, r7, lsl #2
 800100c:	9b01      	ldr	r3, [sp, #4]
 800100e:	42a3      	cmp	r3, r4
 8001010:	9b0b      	ldr	r3, [sp, #44]	; 0x2c
 8001012:	eb02 0e83 	add.w	lr, r2, r3, lsl #2
 8001016:	bf0c      	ite	eq
 8001018:	eddf 0a57 	vldreq	s1, [pc, #348]	; 8001178 <ai_conv2d_stripe_f32+0x3e8>
 800101c:	eef0 0a40 	vmovne.f32	s1, s0
 8001020:	9b22      	ldr	r3, [sp, #136]	; 0x88
 8001022:	2400      	movs	r4, #0
 8001024:	eb0e 0283 	add.w	r2, lr, r3, lsl #2
 8001028:	4596      	cmp	lr, r2
 800102a:	9203      	str	r2, [sp, #12]
 800102c:	f080 816e 	bcs.w	800130c <ai_conv2d_stripe_f32+0x57c>
 8001030:	9b00      	ldr	r3, [sp, #0]
 8001032:	9a02      	ldr	r2, [sp, #8]
 8001034:	2a00      	cmp	r2, #0
 8001036:	f000 8097 	beq.w	8001168 <ai_conv2d_stripe_f32+0x3d8>
 800103a:	9a01      	ldr	r2, [sp, #4]
 800103c:	9500      	str	r5, [sp, #0]
 800103e:	eb02 0784 	add.w	r7, r2, r4, lsl #2
 8001042:	eb03 0284 	add.w	r2, r3, r4, lsl #2
 8001046:	f8dd b008 	ldr.w	fp, [sp, #8]
 800104a:	9108      	str	r1, [sp, #32]
 800104c:	f8cd e01c 	str.w	lr, [sp, #28]
 8001050:	4615      	mov	r5, r2
 8001052:	9a00      	ldr	r2, [sp, #0]
 8001054:	ed97 1a00 	vldr	s2, [r7]
 8001058:	9907      	ldr	r1, [sp, #28]
 800105a:	2a00      	cmp	r2, #0
 800105c:	ee21 1a20 	vmul.f32	s2, s2, s1
 8001060:	f340 8072 	ble.w	8001148 <ai_conv2d_stripe_f32+0x3b8>
 8001064:	f026 0e03 	bic.w	lr, r6, #3
 8001068:	f1be 0f00 	cmp.w	lr, #0
 800106c:	f04f 0900 	mov.w	r9, #0
 8001070:	f340 8029 	ble.w	80010c6 <ai_conv2d_stripe_f32+0x336>
 8001074:	f8dd 8088 	ldr.w	r8, [sp, #136]	; 0x88
 8001078:	edd0 1a00 	vldr	s3, [r0]
 800107c:	ed91 2a00 	vldr	s4, [r1]
 8001080:	eb01 0188 	add.w	r1, r1, r8, lsl #2
 8001084:	ee01 1a82 	vmla.f32	s2, s3, s4
 8001088:	edd0 1a01 	vldr	s3, [r0, #4]
 800108c:	ed91 2a00 	vldr	s4, [r1]
 8001090:	eb01 0188 	add.w	r1, r1, r8, lsl #2
 8001094:	ee01 1a82 	vmla.f32	s2, s3, s4
 8001098:	edd0 1a02 	vldr	s3, [r0, #8]
 800109c:	ed91 2a00 	vldr	s4, [r1]
 80010a0:	eb01 0188 	add.w	r1, r1, r8, lsl #2
 80010a4:	ee01 1a82 	vmla.f32	s2, s3, s4
 80010a8:	f109 0904 	add.w	r9, r9, #4
 80010ac:	edd0 1a03 	vldr	s3, [r0, #12]
 80010b0:	ed91 2a00 	vldr	s4, [r1]
 80010b4:	3010      	adds	r0, #16
 80010b6:	45f1      	cmp	r9, lr
 80010b8:	ee01 1a82 	vmla.f32	s2, s3, s4
 80010bc:	eb01 0188 	add.w	r1, r1, r8, lsl #2
 80010c0:	dbda      	blt.n	8001078 <ai_conv2d_stripe_f32+0x2e8>
 80010c2:	f8cd 8088 	str.w	r8, [sp, #136]	; 0x88
 80010c6:	45b1      	cmp	r9, r6
 80010c8:	f280 8038 	bge.w	800113c <ai_conv2d_stripe_f32+0x3ac>
 80010cc:	f8dd e088 	ldr.w	lr, [sp, #136]	; 0x88
 80010d0:	f109 0901 	add.w	r9, r9, #1
 80010d4:	edd0 1a00 	vldr	s3, [r0]
 80010d8:	ed91 2a00 	vldr	s4, [r1]
 80010dc:	1d00      	adds	r0, r0, #4
 80010de:	45b1      	cmp	r9, r6
 80010e0:	ee01 1a82 	vmla.f32	s2, s3, s4
 80010e4:	eb01 018e 	add.w	r1, r1, lr, lsl #2
 80010e8:	da26      	bge.n	8001138 <ai_conv2d_stripe_f32+0x3a8>
 80010ea:	f109 0901 	add.w	r9, r9, #1
 80010ee:	ed90 2a00 	vldr	s4, [r0]
 80010f2:	edd1 1a00 	vldr	s3, [r1]
 80010f6:	1d00      	adds	r0, r0, #4
 80010f8:	45b1      	cmp	r9, r6
 80010fa:	ee02 1a21 	vmla.f32	s2, s4, s3
 80010fe:	eb01 018e 	add.w	r1, r1, lr, lsl #2
 8001102:	da19      	bge.n	8001138 <ai_conv2d_stripe_f32+0x3a8>
 8001104:	f109 0901 	add.w	r9, r9, #1
 8001108:	edd0 1a00 	vldr	s3, [r0]
 800110c:	ed91 2a00 	vldr	s4, [r1]
 8001110:	1d00      	adds	r0, r0, #4
 8001112:	45b1      	cmp	r9, r6
 8001114:	ee01 1a82 	vmla.f32	s2, s3, s4
 8001118:	eb01 018e 	add.w	r1, r1, lr, lsl #2
 800111c:	da0c      	bge.n	8001138 <ai_conv2d_stripe_f32+0x3a8>
 800111e:	f109 0901 	add.w	r9, r9, #1
 8001122:	ed90 2a00 	vldr	s4, [r0]
 8001126:	edd1 1a00 	vldr	s3, [r1]
 800112a:	1d00      	adds	r0, r0, #4
 800112c:	45b1      	cmp	r9, r6
 800112e:	ee02 1a21 	vmla.f32	s2, s4, s3
 8001132:	eb01 018e 	add.w	r1, r1, lr, lsl #2
 8001136:	dbcb      	blt.n	80010d0 <ai_conv2d_stripe_f32+0x340>
 8001138:	f8cd e088 	str.w	lr, [sp, #136]	; 0x88
 800113c:	1e52      	subs	r2, r2, #1
 800113e:	eb01 018a 	add.w	r1, r1, sl, lsl #2
 8001142:	eb00 008c 	add.w	r0, r0, ip, lsl #2
 8001146:	d18d      	bne.n	8001064 <ai_conv2d_stripe_f32+0x2d4>
 8001148:	9908      	ldr	r1, [sp, #32]
 800114a:	ed85 1a00 	vstr	s2, [r5]
 800114e:	1c64      	adds	r4, r4, #1
 8001150:	1d2d      	adds	r5, r5, #4
 8001152:	1d3f      	adds	r7, r7, #4
 8001154:	f1bb 0b01 	subs.w	fp, fp, #1
 8001158:	eb00 0081 	add.w	r0, r0, r1, lsl #2
 800115c:	f47f af79 	bne.w	8001052 <ai_conv2d_stripe_f32+0x2c2>
 8001160:	9d00      	ldr	r5, [sp, #0]
 8001162:	9908      	ldr	r1, [sp, #32]
 8001164:	f8dd e01c 	ldr.w	lr, [sp, #28]
 8001168:	9a03      	ldr	r2, [sp, #12]
 800116a:	f10e 0e04 	add.w	lr, lr, #4
 800116e:	4596      	cmp	lr, r2
 8001170:	f4bf af2f 	bcs.w	8000fd2 <ai_conv2d_stripe_f32+0x242>
 8001174:	e75d      	b.n	8001032 <ai_conv2d_stripe_f32+0x2a2>
 8001176:	bf00      	nop
 8001178:	00000000 	.word	0x00000000
 800117c:	f9bd 10bc 	ldrsh.w	r1, [sp, #188]	; 0xbc
 8001180:	f8dd 9050 	ldr.w	r9, [sp, #80]	; 0x50
 8001184:	4608      	mov	r0, r1
 8001186:	1bcb      	subs	r3, r1, r7
 8001188:	fb97 f4f0 	sdiv	r4, r7, r0
 800118c:	fb00 3004 	mla	r0, r0, r4, r3
 8001190:	fb90 faf1 	sdiv	sl, r0, r1
 8001194:	fb01 0a1a 	mls	sl, r1, sl, r0
 8001198:	f9bd 30c0 	ldrsh.w	r3, [sp, #192]	; 0xc0
 800119c:	982a      	ldr	r0, [sp, #168]	; 0xa8
 800119e:	9c13      	ldr	r4, [sp, #76]	; 0x4c
 80011a0:	fb90 f0f3 	sdiv	r0, r0, r3
 80011a4:	fb03 4000 	mla	r0, r3, r0, r4
 80011a8:	1876      	adds	r6, r6, r1
 80011aa:	fb90 fbf3 	sdiv	fp, r0, r3
 80011ae:	1e76      	subs	r6, r6, #1
 80011b0:	187f      	adds	r7, r7, r1
 80011b2:	fb03 0b1b 	mls	fp, r3, fp, r0
 80011b6:	eba6 060a 	sub.w	r6, r6, sl
 80011ba:	eba5 050b 	sub.w	r5, r5, fp
 80011be:	1e7f      	subs	r7, r7, #1
 80011c0:	fb96 f0f1 	sdiv	r0, r6, r1
 80011c4:	9e27      	ldr	r6, [sp, #156]	; 0x9c
 80011c6:	9c22      	ldr	r4, [sp, #136]	; 0x88
 80011c8:	195d      	adds	r5, r3, r5
 80011ca:	1e6d      	subs	r5, r5, #1
 80011cc:	fb00 9911 	mls	r9, r0, r1, r9
 80011d0:	fb97 f1f1 	sdiv	r1, r7, r1
 80011d4:	fb95 fcf3 	sdiv	ip, r5, r3
 80011d8:	9d10      	ldr	r5, [sp, #64]	; 0x40
 80011da:	9b0f      	ldr	r3, [sp, #60]	; 0x3c
 80011dc:	9509      	str	r5, [sp, #36]	; 0x24
 80011de:	eba6 060c 	sub.w	r6, r6, ip
 80011e2:	9d26      	ldr	r5, [sp, #152]	; 0x98
 80011e4:	1a2d      	subs	r5, r5, r0
 80011e6:	fb05 f803 	mul.w	r8, r5, r3
 80011ea:	9d26      	ldr	r5, [sp, #152]	; 0x98
 80011ec:	435d      	muls	r5, r3
 80011ee:	fb06 fe05 	mul.w	lr, r6, r5
 80011f2:	9d16      	ldr	r5, [sp, #88]	; 0x58
 80011f4:	9e06      	ldr	r6, [sp, #24]
 80011f6:	194d      	adds	r5, r1, r5
 80011f8:	fb04 f909 	mul.w	r9, r4, r9
 80011fc:	435d      	muls	r5, r3
 80011fe:	9c15      	ldr	r4, [sp, #84]	; 0x54
 8001200:	eb06 0185 	add.w	r1, r6, r5, lsl #2
 8001204:	9d01      	ldr	r5, [sp, #4]
 8001206:	9e00      	ldr	r6, [sp, #0]
 8001208:	1ae4      	subs	r4, r4, r3
 800120a:	42b5      	cmp	r5, r6
 800120c:	9d2a      	ldr	r5, [sp, #168]	; 0xa8
 800120e:	9e24      	ldr	r6, [sp, #144]	; 0x90
 8001210:	445d      	add	r5, fp
 8001212:	fb06 aa05 	mla	sl, r6, r5, sl
 8001216:	9d22      	ldr	r5, [sp, #136]	; 0x88
 8001218:	fb0a f505 	mul.w	r5, sl, r5
 800121c:	bf0c      	ite	eq
 800121e:	eddf 0a9e 	vldreq	s1, [pc, #632]	; 8001498 <.text_5>
 8001222:	eef0 0a40 	vmovne.f32	s1, s0
 8001226:	eb02 0785 	add.w	r7, r2, r5, lsl #2
 800122a:	9a29      	ldr	r2, [sp, #164]	; 0xa4
 800122c:	2500      	movs	r5, #0
 800122e:	2a00      	cmp	r2, #0
 8001230:	d06c      	beq.n	800130c <ai_conv2d_stripe_f32+0x57c>
 8001232:	9202      	str	r2, [sp, #8]
 8001234:	9a09      	ldr	r2, [sp, #36]	; 0x24
 8001236:	2a00      	cmp	r2, #0
 8001238:	d062      	beq.n	8001300 <ai_conv2d_stripe_f32+0x570>
 800123a:	9a01      	ldr	r2, [sp, #4]
 800123c:	eb02 0685 	add.w	r6, r2, r5, lsl #2
 8001240:	9a00      	ldr	r2, [sp, #0]
 8001242:	f8cd c00c 	str.w	ip, [sp, #12]
 8001246:	eb02 0a85 	add.w	sl, r2, r5, lsl #2
 800124a:	9a09      	ldr	r2, [sp, #36]	; 0x24
 800124c:	f8cd e020 	str.w	lr, [sp, #32]
 8001250:	f8cd 701c 	str.w	r7, [sp, #28]
 8001254:	f8dd e00c 	ldr.w	lr, [sp, #12]
 8001258:	ed96 1a00 	vldr	s2, [r6]
 800125c:	9f07      	ldr	r7, [sp, #28]
 800125e:	f1be 0f00 	cmp.w	lr, #0
 8001262:	ee21 1a20 	vmul.f32	s2, s2, s1
 8001266:	dd3b      	ble.n	80012e0 <ai_conv2d_stripe_f32+0x550>
 8001268:	2800      	cmp	r0, #0
 800126a:	dd32      	ble.n	80012d2 <ai_conv2d_stripe_f32+0x542>
 800126c:	ea4f 0c00 	mov.w	ip, r0
 8001270:	eb07 0b83 	add.w	fp, r7, r3, lsl #2
 8001274:	455f      	cmp	r7, fp
 8001276:	d227      	bcs.n	80012c8 <ai_conv2d_stripe_f32+0x538>
 8001278:	edd1 2a00 	vldr	s5, [r1]
 800127c:	edd7 1a00 	vldr	s3, [r7]
 8001280:	1d09      	adds	r1, r1, #4
 8001282:	1d3f      	adds	r7, r7, #4
 8001284:	455f      	cmp	r7, fp
 8001286:	ee02 1aa1 	vmla.f32	s2, s5, s3
 800128a:	d21d      	bcs.n	80012c8 <ai_conv2d_stripe_f32+0x538>
 800128c:	ed91 3a00 	vldr	s6, [r1]
 8001290:	ed97 2a00 	vldr	s4, [r7]
 8001294:	1d09      	adds	r1, r1, #4
 8001296:	1d3f      	adds	r7, r7, #4
 8001298:	455f      	cmp	r7, fp
 800129a:	ee03 1a02 	vmla.f32	s2, s6, s4
 800129e:	d213      	bcs.n	80012c8 <ai_conv2d_stripe_f32+0x538>
 80012a0:	edd1 2a00 	vldr	s5, [r1]
 80012a4:	edd7 1a00 	vldr	s3, [r7]
 80012a8:	1d09      	adds	r1, r1, #4
 80012aa:	1d3f      	adds	r7, r7, #4
 80012ac:	455f      	cmp	r7, fp
 80012ae:	ee02 1aa1 	vmla.f32	s2, s5, s3
 80012b2:	d209      	bcs.n	80012c8 <ai_conv2d_stripe_f32+0x538>
 80012b4:	ed91 2a00 	vldr	s4, [r1]
 80012b8:	ed97 3a00 	vldr	s6, [r7]
 80012bc:	1d09      	adds	r1, r1, #4
 80012be:	1d3f      	adds	r7, r7, #4
 80012c0:	455f      	cmp	r7, fp
 80012c2:	ee02 1a03 	vmla.f32	s2, s4, s6
 80012c6:	d3d7      	bcc.n	8001278 <ai_conv2d_stripe_f32+0x4e8>
 80012c8:	f1bc 0c01 	subs.w	ip, ip, #1
 80012cc:	eb07 0784 	add.w	r7, r7, r4, lsl #2
 80012d0:	d1ce      	bne.n	8001270 <ai_conv2d_stripe_f32+0x4e0>
 80012d2:	f1be 0e01 	subs.w	lr, lr, #1
 80012d6:	eb07 0789 	add.w	r7, r7, r9, lsl #2
 80012da:	eb01 0188 	add.w	r1, r1, r8, lsl #2
 80012de:	d1c3      	bne.n	8001268 <ai_conv2d_stripe_f32+0x4d8>
 80012e0:	9f08      	ldr	r7, [sp, #32]
 80012e2:	1c6d      	adds	r5, r5, #1
 80012e4:	1d36      	adds	r6, r6, #4
 80012e6:	ed8a 1a00 	vstr	s2, [sl]
 80012ea:	1e52      	subs	r2, r2, #1
 80012ec:	eb01 0187 	add.w	r1, r1, r7, lsl #2
 80012f0:	f10a 0a04 	add.w	sl, sl, #4
 80012f4:	d1ae      	bne.n	8001254 <ai_conv2d_stripe_f32+0x4c4>
 80012f6:	f8dd c00c 	ldr.w	ip, [sp, #12]
 80012fa:	f8dd e020 	ldr.w	lr, [sp, #32]
 80012fe:	9f07      	ldr	r7, [sp, #28]
 8001300:	9a02      	ldr	r2, [sp, #8]
 8001302:	1e52      	subs	r2, r2, #1
 8001304:	eb07 0783 	add.w	r7, r7, r3, lsl #2
 8001308:	9202      	str	r2, [sp, #8]
 800130a:	d193      	bne.n	8001234 <ai_conv2d_stripe_f32+0x4a4>
 800130c:	9800      	ldr	r0, [sp, #0]
 800130e:	9923      	ldr	r1, [sp, #140]	; 0x8c
 8001310:	eb00 0281 	add.w	r2, r0, r1, lsl #2
 8001314:	982c      	ldr	r0, [sp, #176]	; 0xb0
 8001316:	f8bd 10a0 	ldrh.w	r1, [sp, #160]	; 0xa0
 800131a:	9200      	str	r2, [sp, #0]
 800131c:	1841      	adds	r1, r0, r1
 800131e:	912c      	str	r1, [sp, #176]	; 0xb0
 8001320:	9805      	ldr	r0, [sp, #20]
 8001322:	f8bd 10a0 	ldrh.w	r1, [sp, #160]	; 0xa0
 8001326:	1841      	adds	r1, r0, r1
 8001328:	9804      	ldr	r0, [sp, #16]
 800132a:	9105      	str	r1, [sp, #20]
 800132c:	1e40      	subs	r0, r0, #1
 800132e:	9004      	str	r0, [sp, #16]
 8001330:	f47f ad86 	bne.w	8000e40 <ai_conv2d_stripe_f32+0xb0>
 8001334:	b018      	add	sp, #96	; 0x60
 8001336:	e8bd 8ff0 	ldmia.w	sp!, {r4, r5, r6, r7, r8, r9, sl, fp, pc}

0800133a <func_dummy>:
 800133a:	4770      	bx	lr

0800133c <ai_dict8_dot_array_f32>:
 800133c:	e92d 4ff0 	stmdb	sp!, {r4, r5, r6, r7, r8, r9, sl, fp, lr}
 8001340:	b081      	sub	sp, #4
 8001342:	4682      	mov	sl, r0
 8001344:	ed2d 8b02 	vpush	{d8}
 8001348:	4615      	mov	r5, r2
 800134a:	9c0c      	ldr	r4, [sp, #48]	; 0x30
 800134c:	08e0      	lsrs	r0, r4, #3
 800134e:	460f      	mov	r7, r1
 8001350:	461a      	mov	r2, r3
 8001352:	ed9f 0a51 	vldr	s0, [pc, #324]	; 8001498 <.text_5>
 8001356:	d052      	beq.n	80013fe <ai_dict8_dot_array_f32+0xc2>
 8001358:	4629      	mov	r1, r5
 800135a:	783b      	ldrb	r3, [r7, #0]
 800135c:	787d      	ldrb	r5, [r7, #1]
 800135e:	78be      	ldrb	r6, [r7, #2]
 8001360:	f897 b003 	ldrb.w	fp, [r7, #3]
 8001364:	ed92 8a00 	vldr	s16, [r2]
 8001368:	ed92 7a01 	vldr	s14, [r2, #4]
 800136c:	f817 cf04 	ldrb.w	ip, [r7, #4]!
 8001370:	ed92 6a02 	vldr	s12, [r2, #8]
 8001374:	ed92 5a03 	vldr	s10, [r2, #12]
 8001378:	f897 e001 	ldrb.w	lr, [r7, #1]
 800137c:	f897 8002 	ldrb.w	r8, [r7, #2]
 8001380:	f897 9003 	ldrb.w	r9, [r7, #3]
 8001384:	ed92 4a04 	vldr	s8, [r2, #16]
 8001388:	ed92 3a05 	vldr	s6, [r2, #20]
 800138c:	ed92 2a06 	vldr	s4, [r2, #24]
 8001390:	ed92 1a07 	vldr	s2, [r2, #28]
 8001394:	eb01 0383 	add.w	r3, r1, r3, lsl #2
 8001398:	eb01 0585 	add.w	r5, r1, r5, lsl #2
 800139c:	eb01 0686 	add.w	r6, r1, r6, lsl #2
 80013a0:	edd3 7a00 	vldr	s15, [r3]
 80013a4:	edd5 6a00 	vldr	s13, [r5]
 80013a8:	eb01 0b8b 	add.w	fp, r1, fp, lsl #2
 80013ac:	ee07 0a88 	vmla.f32	s0, s15, s16
 80013b0:	eb01 0c8c 	add.w	ip, r1, ip, lsl #2
 80013b4:	edd6 5a00 	vldr	s11, [r6]
 80013b8:	eddb 4a00 	vldr	s9, [fp]
 80013bc:	eddc 3a00 	vldr	s7, [ip]
 80013c0:	ee06 0a87 	vmla.f32	s0, s13, s14
 80013c4:	eb01 0e8e 	add.w	lr, r1, lr, lsl #2
 80013c8:	ee05 0a86 	vmla.f32	s0, s11, s12
 80013cc:	eb01 0888 	add.w	r8, r1, r8, lsl #2
 80013d0:	ee04 0a85 	vmla.f32	s0, s9, s10
 80013d4:	eb01 0989 	add.w	r9, r1, r9, lsl #2
 80013d8:	edde 2a00 	vldr	s5, [lr]
 80013dc:	edd8 1a00 	vldr	s3, [r8]
 80013e0:	edd9 0a00 	vldr	s1, [r9]
 80013e4:	ee03 0a84 	vmla.f32	s0, s7, s8
 80013e8:	1d3f      	adds	r7, r7, #4
 80013ea:	ee02 0a83 	vmla.f32	s0, s5, s6
 80013ee:	3220      	adds	r2, #32
 80013f0:	ee01 0a82 	vmla.f32	s0, s3, s4
 80013f4:	1e40      	subs	r0, r0, #1
 80013f6:	ee00 0a81 	vmla.f32	s0, s1, s2
 80013fa:	d1ae      	bne.n	800135a <ai_dict8_dot_array_f32+0x1e>
 80013fc:	460d      	mov	r5, r1
 80013fe:	f014 0007 	ands.w	r0, r4, #7
 8001402:	d03e      	beq.n	8001482 <ai_dict8_dot_array_f32+0x146>
 8001404:	f010 0103 	ands.w	r1, r0, #3
 8001408:	f000 800d 	beq.w	8001426 <ai_dict8_dot_array_f32+0xea>
 800140c:	f817 3b01 	ldrb.w	r3, [r7], #1
 8001410:	ed92 1a00 	vldr	s2, [r2]
 8001414:	eb05 0683 	add.w	r6, r5, r3, lsl #2
 8001418:	1d12      	adds	r2, r2, #4
 800141a:	edd6 0a00 	vldr	s1, [r6]
 800141e:	1e49      	subs	r1, r1, #1
 8001420:	ee00 0a81 	vmla.f32	s0, s1, s2
 8001424:	d1f2      	bne.n	800140c <ai_dict8_dot_array_f32+0xd0>
 8001426:	0880      	lsrs	r0, r0, #2
 8001428:	f000 802b 	beq.w	8001482 <ai_dict8_dot_array_f32+0x146>
 800142c:	f817 3b01 	ldrb.w	r3, [r7], #1
 8001430:	f817 1b01 	ldrb.w	r1, [r7], #1
 8001434:	ed92 1a00 	vldr	s2, [r2]
 8001438:	edd2 0a01 	vldr	s1, [r2, #4]
 800143c:	eb05 0383 	add.w	r3, r5, r3, lsl #2
 8001440:	eb05 0181 	add.w	r1, r5, r1, lsl #2
 8001444:	ed93 2a00 	vldr	s4, [r3]
 8001448:	edd1 1a00 	vldr	s3, [r1]
 800144c:	f817 1b01 	ldrb.w	r1, [r7], #1
 8001450:	f817 3b01 	ldrb.w	r3, [r7], #1
 8001454:	ee02 0a01 	vmla.f32	s0, s4, s2
 8001458:	eb05 0181 	add.w	r1, r5, r1, lsl #2
 800145c:	ee01 0aa0 	vmla.f32	s0, s3, s1
 8001460:	eb05 0383 	add.w	r3, r5, r3, lsl #2
 8001464:	edd2 0a02 	vldr	s1, [r2, #8]
 8001468:	ed91 2a00 	vldr	s4, [r1]
 800146c:	ed92 1a03 	vldr	s2, [r2, #12]
 8001470:	edd3 1a00 	vldr	s3, [r3]
 8001474:	3210      	adds	r2, #16
 8001476:	ee02 0a20 	vmla.f32	s0, s4, s1
 800147a:	1e40      	subs	r0, r0, #1
 800147c:	ee01 0a81 	vmla.f32	s0, s3, s2
 8001480:	d1d4      	bne.n	800142c <ai_dict8_dot_array_f32+0xf0>
 8001482:	edda 0a00 	vldr	s1, [sl]
 8001486:	ee30 0a80 	vadd.f32	s0, s1, s0
 800148a:	ed8a 0a00 	vstr	s0, [sl]
 800148e:	ecbd 8b02 	vpop	{d8}
 8001492:	b001      	add	sp, #4
 8001494:	e8bd 8ff0 	ldmia.w	sp!, {r4, r5, r6, r7, r8, r9, sl, fp, pc}

08001498 <.text_5>:
 8001498:	00000000 	.word	0x00000000

0800149c <ai_dict4_dot_array_f32>:
 800149c:	e92d 47f0 	stmdb	sp!, {r4, r5, r6, r7, r8, r9, sl, lr}
 80014a0:	ed2d 8b02 	vpush	{d8}
 80014a4:	4680      	mov	r8, r0
 80014a6:	f8dd c028 	ldr.w	ip, [sp, #40]	; 0x28
 80014aa:	ea4f 005c 	mov.w	r0, ip, lsr #1
 80014ae:	461e      	mov	r6, r3
 80014b0:	0040      	lsls	r0, r0, #1
 80014b2:	ea5f 03dc 	movs.w	r3, ip, lsr #3
 80014b6:	460c      	mov	r4, r1
 80014b8:	4615      	mov	r5, r2
 80014ba:	eb06 0e80 	add.w	lr, r6, r0, lsl #2
 80014be:	ed9f 0a50 	vldr	s0, [pc, #320]	; 8001600 <.text_7>
 80014c2:	d053      	beq.n	800156c <ai_dict4_dot_array_f32+0xd0>
 80014c4:	ed96 8a00 	vldr	s16, [r6]
 80014c8:	ed96 7a01 	vldr	s14, [r6, #4]
 80014cc:	ed96 6a02 	vldr	s12, [r6, #8]
 80014d0:	ed96 5a03 	vldr	s10, [r6, #12]
 80014d4:	7820      	ldrb	r0, [r4, #0]
 80014d6:	7861      	ldrb	r1, [r4, #1]
 80014d8:	78a2      	ldrb	r2, [r4, #2]
 80014da:	78e7      	ldrb	r7, [r4, #3]
 80014dc:	ed96 4a04 	vldr	s8, [r6, #16]
 80014e0:	ed96 3a05 	vldr	s6, [r6, #20]
 80014e4:	ed96 2a06 	vldr	s4, [r6, #24]
 80014e8:	ed96 1a07 	vldr	s2, [r6, #28]
 80014ec:	f007 090f 	and.w	r9, r7, #15
 80014f0:	093f      	lsrs	r7, r7, #4
 80014f2:	eb05 0787 	add.w	r7, r5, r7, lsl #2
 80014f6:	eb05 0a89 	add.w	sl, r5, r9, lsl #2
 80014fa:	edd7 1a00 	vldr	s3, [r7]
 80014fe:	edda 0a00 	vldr	s1, [sl]
 8001502:	f002 070f 	and.w	r7, r2, #15
 8001506:	0912      	lsrs	r2, r2, #4
 8001508:	eb05 0282 	add.w	r2, r5, r2, lsl #2
 800150c:	eb05 0787 	add.w	r7, r5, r7, lsl #2
 8001510:	edd2 3a00 	vldr	s7, [r2]
 8001514:	edd7 2a00 	vldr	s5, [r7]
 8001518:	f001 020f 	and.w	r2, r1, #15
 800151c:	0909      	lsrs	r1, r1, #4
 800151e:	eb05 0181 	add.w	r1, r5, r1, lsl #2
 8001522:	eb05 0782 	add.w	r7, r5, r2, lsl #2
 8001526:	edd1 5a00 	vldr	s11, [r1]
 800152a:	edd7 4a00 	vldr	s9, [r7]
 800152e:	f000 010f 	and.w	r1, r0, #15
 8001532:	0900      	lsrs	r0, r0, #4
 8001534:	eb05 0080 	add.w	r0, r5, r0, lsl #2
 8001538:	eb05 0281 	add.w	r2, r5, r1, lsl #2
 800153c:	edd0 7a00 	vldr	s15, [r0]
 8001540:	edd2 6a00 	vldr	s13, [r2]
 8001544:	ee07 0a88 	vmla.f32	s0, s15, s16
 8001548:	ee06 0a87 	vmla.f32	s0, s13, s14
 800154c:	ee05 0a86 	vmla.f32	s0, s11, s12
 8001550:	ee04 0a85 	vmla.f32	s0, s9, s10
 8001554:	ee03 0a84 	vmla.f32	s0, s7, s8
 8001558:	1d24      	adds	r4, r4, #4
 800155a:	ee02 0a83 	vmla.f32	s0, s5, s6
 800155e:	3620      	adds	r6, #32
 8001560:	ee01 0a82 	vmla.f32	s0, s3, s4
 8001564:	1e5b      	subs	r3, r3, #1
 8001566:	ee00 0a81 	vmla.f32	s0, s1, s2
 800156a:	d1ab      	bne.n	80014c4 <ai_dict4_dot_array_f32+0x28>
 800156c:	4576      	cmp	r6, lr
 800156e:	d22f      	bcs.n	80015d0 <ai_dict4_dot_array_f32+0x134>
 8001570:	f814 0b01 	ldrb.w	r0, [r4], #1
 8001574:	edd6 1a00 	vldr	s3, [r6]
 8001578:	edd6 0a01 	vldr	s1, [r6, #4]
 800157c:	f000 010f 	and.w	r1, r0, #15
 8001580:	0900      	lsrs	r0, r0, #4
 8001582:	eb05 0080 	add.w	r0, r5, r0, lsl #2
 8001586:	eb05 0281 	add.w	r2, r5, r1, lsl #2
 800158a:	ed90 2a00 	vldr	s4, [r0]
 800158e:	ed92 1a00 	vldr	s2, [r2]
 8001592:	3608      	adds	r6, #8
 8001594:	ee02 0a21 	vmla.f32	s0, s4, s3
 8001598:	4576      	cmp	r6, lr
 800159a:	ee01 0a20 	vmla.f32	s0, s2, s1
 800159e:	d217      	bcs.n	80015d0 <ai_dict4_dot_array_f32+0x134>
 80015a0:	f814 0b01 	ldrb.w	r0, [r4], #1
 80015a4:	ed96 1a00 	vldr	s2, [r6]
 80015a8:	ed96 2a01 	vldr	s4, [r6, #4]
 80015ac:	f000 010f 	and.w	r1, r0, #15
 80015b0:	0900      	lsrs	r0, r0, #4
 80015b2:	eb05 0080 	add.w	r0, r5, r0, lsl #2
 80015b6:	eb05 0281 	add.w	r2, r5, r1, lsl #2
 80015ba:	edd0 1a00 	vldr	s3, [r0]
 80015be:	edd2 0a00 	vldr	s1, [r2]
 80015c2:	3608      	adds	r6, #8
 80015c4:	ee01 0a81 	vmla.f32	s0, s3, s2
 80015c8:	4576      	cmp	r6, lr
 80015ca:	ee00 0a82 	vmla.f32	s0, s1, s4
 80015ce:	d3cf      	bcc.n	8001570 <ai_dict4_dot_array_f32+0xd4>
 80015d0:	ea5f 70cc 	movs.w	r0, ip, lsl #31
 80015d4:	d509      	bpl.n	80015ea <ai_dict4_dot_array_f32+0x14e>
 80015d6:	7821      	ldrb	r1, [r4, #0]
 80015d8:	ed96 1a00 	vldr	s2, [r6]
 80015dc:	0909      	lsrs	r1, r1, #4
 80015de:	eb05 0081 	add.w	r0, r5, r1, lsl #2
 80015e2:	edd0 0a00 	vldr	s1, [r0]
 80015e6:	ee00 0a81 	vmla.f32	s0, s1, s2
 80015ea:	edd8 1a00 	vldr	s3, [r8]
 80015ee:	ee31 0a80 	vadd.f32	s0, s3, s0
 80015f2:	ed88 0a00 	vstr	s0, [r8]
 80015f6:	ecbd 8b02 	vpop	{d8}
 80015fa:	e8bd 87f0 	ldmia.w	sp!, {r4, r5, r6, r7, r8, r9, sl, pc}
	...

08001600 <.text_7>:
 8001600:	00000000 	.word	0x00000000

08001604 <ai_dict_decompress_f32>:
 8001604:	b4f0      	push	{r4, r5, r6, r7}
 8001606:	4604      	mov	r4, r0
 8001608:	9805      	ldr	r0, [sp, #20]
 800160a:	9e04      	ldr	r6, [sp, #16]
 800160c:	2b04      	cmp	r3, #4
 800160e:	eb04 0580 	add.w	r5, r4, r0, lsl #2
 8001612:	d003      	beq.n	800161c <ai_dict_decompress_f32+0x18>
 8001614:	2b08      	cmp	r3, #8
 8001616:	d03e      	beq.n	8001696 <ai_dict_decompress_f32+0x92>
 8001618:	bcf0      	pop	{r4, r5, r6, r7}
 800161a:	4770      	bx	lr
 800161c:	42ac      	cmp	r4, r5
 800161e:	d259      	bcs.n	80016d4 <ai_dict_decompress_f32+0xd0>
 8001620:	0870      	lsrs	r0, r6, #1
 8001622:	d02e      	beq.n	8001682 <ai_dict_decompress_f32+0x7e>
 8001624:	07c3      	lsls	r3, r0, #31
 8001626:	d50c      	bpl.n	8001642 <ai_dict_decompress_f32+0x3e>
 8001628:	780f      	ldrb	r7, [r1, #0]
 800162a:	093f      	lsrs	r7, r7, #4
 800162c:	f852 3027 	ldr.w	r3, [r2, r7, lsl #2]
 8001630:	6023      	str	r3, [r4, #0]
 8001632:	f811 7b01 	ldrb.w	r7, [r1], #1
 8001636:	f007 070f 	and.w	r7, r7, #15
 800163a:	f852 3027 	ldr.w	r3, [r2, r7, lsl #2]
 800163e:	6063      	str	r3, [r4, #4]
 8001640:	3408      	adds	r4, #8
 8001642:	0840      	lsrs	r0, r0, #1
 8001644:	d01d      	beq.n	8001682 <ai_dict_decompress_f32+0x7e>
 8001646:	780b      	ldrb	r3, [r1, #0]
 8001648:	091b      	lsrs	r3, r3, #4
 800164a:	f852 7023 	ldr.w	r7, [r2, r3, lsl #2]
 800164e:	6027      	str	r7, [r4, #0]
 8001650:	f811 3b01 	ldrb.w	r3, [r1], #1
 8001654:	f003 030f 	and.w	r3, r3, #15
 8001658:	f852 7023 	ldr.w	r7, [r2, r3, lsl #2]
 800165c:	6067      	str	r7, [r4, #4]
 800165e:	f104 0308 	add.w	r3, r4, #8
 8001662:	780c      	ldrb	r4, [r1, #0]
 8001664:	0924      	lsrs	r4, r4, #4
 8001666:	f852 7024 	ldr.w	r7, [r2, r4, lsl #2]
 800166a:	601f      	str	r7, [r3, #0]
 800166c:	1e40      	subs	r0, r0, #1
 800166e:	f811 4b01 	ldrb.w	r4, [r1], #1
 8001672:	f004 040f 	and.w	r4, r4, #15
 8001676:	f852 7024 	ldr.w	r7, [r2, r4, lsl #2]
 800167a:	605f      	str	r7, [r3, #4]
 800167c:	f103 0408 	add.w	r4, r3, #8
 8001680:	d1e1      	bne.n	8001646 <ai_dict_decompress_f32+0x42>
 8001682:	07f0      	lsls	r0, r6, #31
 8001684:	d5ca      	bpl.n	800161c <ai_dict_decompress_f32+0x18>
 8001686:	f811 3b01 	ldrb.w	r3, [r1], #1
 800168a:	091b      	lsrs	r3, r3, #4
 800168c:	f852 0023 	ldr.w	r0, [r2, r3, lsl #2]
 8001690:	f844 0b04 	str.w	r0, [r4], #4
 8001694:	e7c2      	b.n	800161c <ai_dict_decompress_f32+0x18>
 8001696:	42ac      	cmp	r4, r5
 8001698:	d21c      	bcs.n	80016d4 <ai_dict_decompress_f32+0xd0>
 800169a:	7808      	ldrb	r0, [r1, #0]
 800169c:	f852 0020 	ldr.w	r0, [r2, r0, lsl #2]
 80016a0:	6020      	str	r0, [r4, #0]
 80016a2:	1d20      	adds	r0, r4, #4
 80016a4:	42a8      	cmp	r0, r5
 80016a6:	bf3f      	itttt	cc
 80016a8:	784c      	ldrbcc	r4, [r1, #1]
 80016aa:	f852 3024 	ldrcc.w	r3, [r2, r4, lsl #2]
 80016ae:	f840 3b04 	strcc.w	r3, [r0], #4
 80016b2:	42a8      	cmpcc	r0, r5
 80016b4:	d20e      	bcs.n	80016d4 <ai_dict_decompress_f32+0xd0>
 80016b6:	788b      	ldrb	r3, [r1, #2]
 80016b8:	f852 3023 	ldr.w	r3, [r2, r3, lsl #2]
 80016bc:	f840 3b04 	str.w	r3, [r0], #4
 80016c0:	42a8      	cmp	r0, r5
 80016c2:	d207      	bcs.n	80016d4 <ai_dict_decompress_f32+0xd0>
 80016c4:	78cc      	ldrb	r4, [r1, #3]
 80016c6:	f852 3024 	ldr.w	r3, [r2, r4, lsl #2]
 80016ca:	1d09      	adds	r1, r1, #4
 80016cc:	1d04      	adds	r4, r0, #4
 80016ce:	42ac      	cmp	r4, r5
 80016d0:	6003      	str	r3, [r0, #0]
 80016d2:	d3e2      	bcc.n	800169a <ai_dict_decompress_f32+0x96>
 80016d4:	bcf0      	pop	{r4, r5, r6, r7}
 80016d6:	4770      	bx	lr

080016d8 <forward_conv2d>:
 80016d8:	e92d 4ff0 	stmdb	sp!, {r4, r5, r6, r7, r8, r9, sl, fp, lr}
 80016dc:	4605      	mov	r5, r0
 80016de:	b0a9      	sub	sp, #164	; 0xa4
 80016e0:	696b      	ldr	r3, [r5, #20]
 80016e2:	8819      	ldrh	r1, [r3, #0]
 80016e4:	2900      	cmp	r1, #0
 80016e6:	bf1a      	itte	ne
 80016e8:	6858      	ldrne	r0, [r3, #4]
 80016ea:	1d00      	addne	r0, r0, #4
 80016ec:	2004      	moveq	r0, #4
 80016ee:	6800      	ldr	r0, [r0, #0]
 80016f0:	2800      	cmp	r0, #0
 80016f2:	bf14      	ite	ne
 80016f4:	6802      	ldrne	r2, [r0, #0]
 80016f6:	2200      	moveq	r2, #0
 80016f8:	2901      	cmp	r1, #1
 80016fa:	bfc6      	itte	gt
 80016fc:	6858      	ldrgt	r0, [r3, #4]
 80016fe:	3010      	addgt	r0, #16
 8001700:	2004      	movle	r0, #4
 8001702:	6800      	ldr	r0, [r0, #0]
 8001704:	2800      	cmp	r0, #0
 8001706:	bf14      	ite	ne
 8001708:	f8d0 a000 	ldrne.w	sl, [r0]
 800170c:	f04f 0a00 	moveq.w	sl, #0
 8001710:	2902      	cmp	r1, #2
 8001712:	bfc6      	itte	gt
 8001714:	6858      	ldrgt	r0, [r3, #4]
 8001716:	f100 041c 	addgt.w	r4, r0, #28
 800171a:	2404      	movle	r4, #4
 800171c:	6820      	ldr	r0, [r4, #0]
 800171e:	2800      	cmp	r0, #0
 8001720:	bf14      	ite	ne
 8001722:	6806      	ldrne	r6, [r0, #0]
 8001724:	2600      	moveq	r6, #0
 8001726:	2902      	cmp	r1, #2
 8001728:	dd0a      	ble.n	8001740 <forward_conv2d+0x68>
 800172a:	685b      	ldr	r3, [r3, #4]
 800172c:	f113 0118 	adds.w	r1, r3, #24
 8001730:	d006      	beq.n	8001740 <forward_conv2d+0x68>
 8001732:	8b19      	ldrh	r1, [r3, #24]
 8001734:	2901      	cmp	r1, #1
 8001736:	dd03      	ble.n	8001740 <forward_conv2d+0x68>
 8001738:	69d9      	ldr	r1, [r3, #28]
 800173a:	b109      	cbz	r1, 8001740 <forward_conv2d+0x68>
 800173c:	6849      	ldr	r1, [r1, #4]
 800173e:	e000      	b.n	8001742 <forward_conv2d+0x6a>
 8001740:	2100      	movs	r1, #0
 8001742:	b100      	cbz	r0, 8001746 <forward_conv2d+0x6e>
 8001744:	6880      	ldr	r0, [r0, #8]
 8001746:	68d7      	ldr	r7, [r2, #12]
 8001748:	687b      	ldr	r3, [r7, #4]
 800174a:	931b      	str	r3, [sp, #108]	; 0x6c
 800174c:	f8da 300c 	ldr.w	r3, [sl, #12]
 8001750:	685c      	ldr	r4, [r3, #4]
 8001752:	9404      	str	r4, [sp, #16]
 8001754:	68dc      	ldr	r4, [r3, #12]
 8001756:	689b      	ldr	r3, [r3, #8]
 8001758:	9314      	str	r3, [sp, #80]	; 0x50
 800175a:	68fb      	ldr	r3, [r7, #12]
 800175c:	931a      	str	r3, [sp, #104]	; 0x68
 800175e:	68bf      	ldr	r7, [r7, #8]
 8001760:	9720      	str	r7, [sp, #128]	; 0x80
 8001762:	6a6b      	ldr	r3, [r5, #36]	; 0x24
 8001764:	f8ad 3040 	strh.w	r3, [sp, #64]	; 0x40
 8001768:	8d2f      	ldrh	r7, [r5, #40]	; 0x28
 800176a:	971f      	str	r7, [sp, #124]	; 0x7c
 800176c:	6bab      	ldr	r3, [r5, #56]	; 0x38
 800176e:	681f      	ldr	r7, [r3, #0]
 8001770:	f8b3 8004 	ldrh.w	r8, [r3, #4]
 8001774:	6aeb      	ldr	r3, [r5, #44]	; 0x2c
 8001776:	9319      	str	r3, [sp, #100]	; 0x64
 8001778:	6b2b      	ldr	r3, [r5, #48]	; 0x30
 800177a:	9318      	str	r3, [sp, #96]	; 0x60
 800177c:	68f3      	ldr	r3, [r6, #12]
 800177e:	f8d3 e008 	ldr.w	lr, [r3, #8]
 8001782:	f8cd e04c 	str.w	lr, [sp, #76]	; 0x4c
 8001786:	685b      	ldr	r3, [r3, #4]
 8001788:	9312      	str	r3, [sp, #72]	; 0x48
 800178a:	69ab      	ldr	r3, [r5, #24]
 800178c:	931e      	str	r3, [sp, #120]	; 0x78
 800178e:	6992      	ldr	r2, [r2, #24]
 8001790:	6893      	ldr	r3, [r2, #8]
 8001792:	931d      	str	r3, [sp, #116]	; 0x74
 8001794:	69b2      	ldr	r2, [r6, #24]
 8001796:	f8d2 9008 	ldr.w	r9, [r2, #8]
 800179a:	b119      	cbz	r1, 80017a4 <forward_conv2d+0xcc>
 800179c:	698a      	ldr	r2, [r1, #24]
 800179e:	6893      	ldr	r3, [r2, #8]
 80017a0:	9317      	str	r3, [sp, #92]	; 0x5c
 80017a2:	e001      	b.n	80017a8 <forward_conv2d+0xd0>
 80017a4:	2200      	movs	r2, #0
 80017a6:	9217      	str	r2, [sp, #92]	; 0x5c
 80017a8:	f8da 1018 	ldr.w	r1, [sl, #24]
 80017ac:	688a      	ldr	r2, [r1, #8]
 80017ae:	9203      	str	r2, [sp, #12]
 80017b0:	69e9      	ldr	r1, [r5, #28]
 80017b2:	b118      	cbz	r0, 80017bc <forward_conv2d+0xe4>
 80017b4:	6981      	ldr	r1, [r0, #24]
 80017b6:	688a      	ldr	r2, [r1, #8]
 80017b8:	9215      	str	r2, [sp, #84]	; 0x54
 80017ba:	e005      	b.n	80017c8 <forward_conv2d+0xf0>
 80017bc:	b111      	cbz	r1, 80017c4 <forward_conv2d+0xec>
 80017be:	688a      	ldr	r2, [r1, #8]
 80017c0:	9215      	str	r2, [sp, #84]	; 0x54
 80017c2:	e001      	b.n	80017c8 <forward_conv2d+0xf0>
 80017c4:	2300      	movs	r3, #0
 80017c6:	9315      	str	r3, [sp, #84]	; 0x54
 80017c8:	9915      	ldr	r1, [sp, #84]	; 0x54
 80017ca:	9102      	str	r1, [sp, #8]
 80017cc:	b920      	cbnz	r0, 80017d8 <forward_conv2d+0x100>
 80017ce:	2100      	movs	r1, #0
 80017d0:	2201      	movs	r2, #1
 80017d2:	9124      	str	r1, [sp, #144]	; 0x90
 80017d4:	9223      	str	r2, [sp, #140]	; 0x8c
 80017d6:	e008      	b.n	80017ea <forward_conv2d+0x112>
 80017d8:	6941      	ldr	r1, [r0, #20]
 80017da:	688a      	ldr	r2, [r1, #8]
 80017dc:	9224      	str	r2, [sp, #144]	; 0x90
 80017de:	6980      	ldr	r0, [r0, #24]
 80017e0:	6841      	ldr	r1, [r0, #4]
 80017e2:	6800      	ldr	r0, [r0, #0]
 80017e4:	f004 fb3e 	bl	8005e64 <ai_array_get_byte_size>
 80017e8:	9023      	str	r0, [sp, #140]	; 0x8c
 80017ea:	aa18      	add	r2, sp, #96	; 0x60
 80017ec:	6a28      	ldr	r0, [r5, #32]
 80017ee:	2800      	cmp	r0, #0
 80017f0:	bf12      	itee	ne
 80017f2:	9022      	strne	r0, [sp, #136]	; 0x88
 80017f4:	f8df 1d28 	ldreq.w	r1, [pc, #3368]	; 8002520 <.text_15>
 80017f8:	9122      	streq	r1, [sp, #136]	; 0x88
 80017fa:	9913      	ldr	r1, [sp, #76]	; 0x4c
 80017fc:	8813      	ldrh	r3, [r2, #0]
 80017fe:	1e48      	subs	r0, r1, #1
 8001800:	1e5b      	subs	r3, r3, #1
 8001802:	aa19      	add	r2, sp, #100	; 0x64
 8001804:	fb03 1100 	mla	r1, r3, r0, r1
 8001808:	9116      	str	r1, [sp, #88]	; 0x58
 800180a:	9812      	ldr	r0, [sp, #72]	; 0x48
 800180c:	8813      	ldrh	r3, [r2, #0]
 800180e:	1e41      	subs	r1, r0, #1
 8001810:	1e5b      	subs	r3, r3, #1
 8001812:	fb03 0001 	mla	r0, r3, r1, r0
 8001816:	901c      	str	r0, [sp, #112]	; 0x70
 8001818:	2200      	movs	r2, #0
 800181a:	69b6      	ldr	r6, [r6, #24]
 800181c:	6831      	ldr	r1, [r6, #0]
 800181e:	11cb      	asrs	r3, r1, #7
 8001820:	ea4f 5c61 	mov.w	ip, r1, asr #21
 8001824:	1449      	asrs	r1, r1, #17
 8001826:	f001 010f 	and.w	r1, r1, #15
 800182a:	2000      	movs	r0, #0
 800182c:	f003 037f 	and.w	r3, r3, #127	; 0x7f
 8001830:	f00c 0c03 	and.w	ip, ip, #3
 8001834:	2904      	cmp	r1, #4
 8001836:	4683      	mov	fp, r0
 8001838:	fa23 f30c 	lsr.w	r3, r3, ip
 800183c:	bf14      	ite	ne
 800183e:	2908      	cmpne	r1, #8
 8001840:	68f2      	ldreq	r2, [r6, #12]
 8001842:	b1da      	cbz	r2, 800187c <forward_conv2d+0x1a4>
 8001844:	6969      	ldr	r1, [r5, #20]
 8001846:	880d      	ldrh	r5, [r1, #0]
 8001848:	2d04      	cmp	r5, #4
 800184a:	bfa6      	itte	ge
 800184c:	6849      	ldrge	r1, [r1, #4]
 800184e:	3128      	addge	r1, #40	; 0x28
 8001850:	2104      	movlt	r1, #4
 8001852:	6809      	ldr	r1, [r1, #0]
 8001854:	2900      	cmp	r1, #0
 8001856:	bf1f      	itttt	ne
 8001858:	6808      	ldrne	r0, [r1, #0]
 800185a:	2800      	cmpne	r0, #0
 800185c:	6981      	ldrne	r1, [r0, #24]
 800185e:	f8d1 b008 	ldrne.w	fp, [r1, #8]
 8001862:	6980      	ldr	r0, [r0, #24]
 8001864:	6841      	ldr	r1, [r0, #4]
 8001866:	981b      	ldr	r0, [sp, #108]	; 0x6c
 8001868:	9101      	str	r1, [sp, #4]
 800186a:	9000      	str	r0, [sp, #0]
 800186c:	4658      	mov	r0, fp
 800186e:	68b1      	ldr	r1, [r6, #8]
 8001870:	f7ff fec8 	bl	8001604 <ai_dict_decompress_f32>
 8001874:	f1bb 0f00 	cmp.w	fp, #0
 8001878:	bf18      	it	ne
 800187a:	46d9      	movne	r9, fp
 800187c:	b2bf      	uxth	r7, r7
 800187e:	427f      	negs	r7, r7
 8001880:	2c00      	cmp	r4, #0
 8001882:	d073      	beq.n	800196c <forward_conv2d+0x294>
 8001884:	4622      	mov	r2, r4
 8001886:	f1c8 0800 	rsb	r8, r8, #0
 800188a:	9c04      	ldr	r4, [sp, #16]
 800188c:	f8dd b00c 	ldr.w	fp, [sp, #12]
 8001890:	9e02      	ldr	r6, [sp, #8]
 8001892:	f8cd 8098 	str.w	r8, [sp, #152]	; 0x98
 8001896:	f8cd 909c 	str.w	r9, [sp, #156]	; 0x9c
 800189a:	9711      	str	r7, [sp, #68]	; 0x44
 800189c:	9221      	str	r2, [sp, #132]	; 0x84
 800189e:	9826      	ldr	r0, [sp, #152]	; 0x98
 80018a0:	991a      	ldr	r1, [sp, #104]	; 0x68
 80018a2:	9a11      	ldr	r2, [sp, #68]	; 0x44
 80018a4:	9b16      	ldr	r3, [sp, #88]	; 0x58
 80018a6:	9025      	str	r0, [sp, #148]	; 0x94
 80018a8:	9811      	ldr	r0, [sp, #68]	; 0x44
 80018aa:	4240      	negs	r0, r0
 80018ac:	bfd8      	it	le
 80018ae:	2000      	movle	r0, #0
 80018b0:	1a89      	subs	r1, r1, r2
 80018b2:	4299      	cmp	r1, r3
 80018b4:	bf3d      	ittte	cc
 80018b6:	9a1a      	ldrcc	r2, [sp, #104]	; 0x68
 80018b8:	9911      	ldrcc	r1, [sp, #68]	; 0x44
 80018ba:	1a51      	subcc	r1, r2, r1
 80018bc:	4619      	movcs	r1, r3
 80018be:	910a      	str	r1, [sp, #40]	; 0x28
 80018c0:	9009      	str	r0, [sp, #36]	; 0x24
 80018c2:	9402      	str	r4, [sp, #8]
 80018c4:	981e      	ldr	r0, [sp, #120]	; 0x78
 80018c6:	f8bd 1040 	ldrh.w	r1, [sp, #64]	; 0x40
 80018ca:	9a18      	ldr	r2, [sp, #96]	; 0x60
 80018cc:	9008      	str	r0, [sp, #32]
 80018ce:	9107      	str	r1, [sp, #28]
 80018d0:	b212      	sxth	r2, r2
 80018d2:	9813      	ldr	r0, [sp, #76]	; 0x4c
 80018d4:	9912      	ldr	r1, [sp, #72]	; 0x48
 80018d6:	9b19      	ldr	r3, [sp, #100]	; 0x64
 80018d8:	920f      	str	r2, [sp, #60]	; 0x3c
 80018da:	9006      	str	r0, [sp, #24]
 80018dc:	9105      	str	r1, [sp, #20]
 80018de:	b21b      	sxth	r3, r3
 80018e0:	9a1c      	ldr	r2, [sp, #112]	; 0x70
 80018e2:	9814      	ldr	r0, [sp, #80]	; 0x50
 80018e4:	9920      	ldr	r1, [sp, #128]	; 0x80
 80018e6:	930e      	str	r3, [sp, #56]	; 0x38
 80018e8:	920d      	str	r2, [sp, #52]	; 0x34
 80018ea:	9004      	str	r0, [sp, #16]
 80018ec:	9103      	str	r1, [sp, #12]
 80018ee:	9b11      	ldr	r3, [sp, #68]	; 0x44
 80018f0:	9a25      	ldr	r2, [sp, #148]	; 0x94
 80018f2:	981b      	ldr	r0, [sp, #108]	; 0x6c
 80018f4:	9917      	ldr	r1, [sp, #92]	; 0x5c
 80018f6:	930c      	str	r3, [sp, #48]	; 0x30
 80018f8:	920b      	str	r2, [sp, #44]	; 0x2c
 80018fa:	9001      	str	r0, [sp, #4]
 80018fc:	9100      	str	r1, [sp, #0]
 80018fe:	9b27      	ldr	r3, [sp, #156]	; 0x9c
 8001900:	9a1d      	ldr	r2, [sp, #116]	; 0x74
 8001902:	4659      	mov	r1, fp
 8001904:	2000      	movs	r0, #0
 8001906:	f7ff fa43 	bl	8000d90 <ai_conv2d_stripe_f32>
 800190a:	9814      	ldr	r0, [sp, #80]	; 0x50
 800190c:	b310      	cbz	r0, 8001954 <forward_conv2d+0x27c>
 800190e:	f8cd a000 	str.w	sl, [sp]
 8001912:	9d15      	ldr	r5, [sp, #84]	; 0x54
 8001914:	9f24      	ldr	r7, [sp, #144]	; 0x90
 8001916:	f8dd 808c 	ldr.w	r8, [sp, #140]	; 0x8c
 800191a:	f8dd 9088 	ldr.w	r9, [sp, #136]	; 0x88
 800191e:	4682      	mov	sl, r0
 8001920:	9800      	ldr	r0, [sp, #0]
 8001922:	6981      	ldr	r1, [r0, #24]
 8001924:	f8c1 b008 	str.w	fp, [r1, #8]
 8001928:	462b      	mov	r3, r5
 800192a:	4622      	mov	r2, r4
 800192c:	4608      	mov	r0, r1
 800192e:	47c8      	blx	r9
 8001930:	443d      	add	r5, r7
 8001932:	1ba8      	subs	r0, r5, r6
 8001934:	4540      	cmp	r0, r8
 8001936:	bfa8      	it	ge
 8001938:	4635      	movge	r5, r6
 800193a:	f1ba 0a01 	subs.w	sl, sl, #1
 800193e:	eb0b 0b84 	add.w	fp, fp, r4, lsl #2
 8001942:	d1ed      	bne.n	8001920 <forward_conv2d+0x248>
 8001944:	f8dd a000 	ldr.w	sl, [sp]
 8001948:	9515      	str	r5, [sp, #84]	; 0x54
 800194a:	9724      	str	r7, [sp, #144]	; 0x90
 800194c:	f8cd 808c 	str.w	r8, [sp, #140]	; 0x8c
 8001950:	f8cd 9088 	str.w	r9, [sp, #136]	; 0x88
 8001954:	f8da 0018 	ldr.w	r0, [sl, #24]
 8001958:	68c1      	ldr	r1, [r0, #12]
 800195a:	6081      	str	r1, [r0, #8]
 800195c:	9811      	ldr	r0, [sp, #68]	; 0x44
 800195e:	991f      	ldr	r1, [sp, #124]	; 0x7c
 8001960:	1808      	adds	r0, r1, r0
 8001962:	9011      	str	r0, [sp, #68]	; 0x44
 8001964:	9821      	ldr	r0, [sp, #132]	; 0x84
 8001966:	1e40      	subs	r0, r0, #1
 8001968:	9021      	str	r0, [sp, #132]	; 0x84
 800196a:	d198      	bne.n	800189e <forward_conv2d+0x1c6>
 800196c:	b029      	add	sp, #164	; 0xa4
 800196e:	e8bd 8ff0 	ldmia.w	sp!, {r4, r5, r6, r7, r8, r9, sl, fp, pc}
	...

08001974 <forward_conv2d_nl_pool>:
 8001974:	e92d 4ff0 	stmdb	sp!, {r4, r5, r6, r7, r8, r9, sl, fp, lr}
 8001978:	4604      	mov	r4, r0
 800197a:	b0b9      	sub	sp, #228	; 0xe4
 800197c:	6963      	ldr	r3, [r4, #20]
 800197e:	8819      	ldrh	r1, [r3, #0]
 8001980:	2900      	cmp	r1, #0
 8001982:	bf1a      	itte	ne
 8001984:	6858      	ldrne	r0, [r3, #4]
 8001986:	1d00      	addne	r0, r0, #4
 8001988:	2004      	moveq	r0, #4
 800198a:	6800      	ldr	r0, [r0, #0]
 800198c:	2800      	cmp	r0, #0
 800198e:	bf14      	ite	ne
 8001990:	6802      	ldrne	r2, [r0, #0]
 8001992:	2200      	moveq	r2, #0
 8001994:	2901      	cmp	r1, #1
 8001996:	bfc6      	itte	gt
 8001998:	6858      	ldrgt	r0, [r3, #4]
 800199a:	3010      	addgt	r0, #16
 800199c:	2004      	movle	r0, #4
 800199e:	6800      	ldr	r0, [r0, #0]
 80019a0:	2800      	cmp	r0, #0
 80019a2:	bf14      	ite	ne
 80019a4:	f8d0 9000 	ldrne.w	r9, [r0]
 80019a8:	f04f 0900 	moveq.w	r9, #0
 80019ac:	2902      	cmp	r1, #2
 80019ae:	bfc6      	itte	gt
 80019b0:	6858      	ldrgt	r0, [r3, #4]
 80019b2:	f100 071c 	addgt.w	r7, r0, #28
 80019b6:	2704      	movle	r7, #4
 80019b8:	6838      	ldr	r0, [r7, #0]
 80019ba:	2800      	cmp	r0, #0
 80019bc:	bf14      	ite	ne
 80019be:	6806      	ldrne	r6, [r0, #0]
 80019c0:	2600      	moveq	r6, #0
 80019c2:	2902      	cmp	r1, #2
 80019c4:	dd0a      	ble.n	80019dc <forward_conv2d_nl_pool+0x68>
 80019c6:	685b      	ldr	r3, [r3, #4]
 80019c8:	f113 0118 	adds.w	r1, r3, #24
 80019cc:	d006      	beq.n	80019dc <forward_conv2d_nl_pool+0x68>
 80019ce:	8b19      	ldrh	r1, [r3, #24]
 80019d0:	2901      	cmp	r1, #1
 80019d2:	dd03      	ble.n	80019dc <forward_conv2d_nl_pool+0x68>
 80019d4:	69d9      	ldr	r1, [r3, #28]
 80019d6:	b109      	cbz	r1, 80019dc <forward_conv2d_nl_pool+0x68>
 80019d8:	6849      	ldr	r1, [r1, #4]
 80019da:	e000      	b.n	80019de <forward_conv2d_nl_pool+0x6a>
 80019dc:	2100      	movs	r1, #0
 80019de:	b100      	cbz	r0, 80019e2 <forward_conv2d_nl_pool+0x6e>
 80019e0:	6880      	ldr	r0, [r0, #8]
 80019e2:	68d7      	ldr	r7, [r2, #12]
 80019e4:	687b      	ldr	r3, [r7, #4]
 80019e6:	9323      	str	r3, [sp, #140]	; 0x8c
 80019e8:	f8d9 500c 	ldr.w	r5, [r9, #12]
 80019ec:	686b      	ldr	r3, [r5, #4]
 80019ee:	9310      	str	r3, [sp, #64]	; 0x40
 80019f0:	68eb      	ldr	r3, [r5, #12]
 80019f2:	9322      	str	r3, [sp, #136]	; 0x88
 80019f4:	68ab      	ldr	r3, [r5, #8]
 80019f6:	9321      	str	r3, [sp, #132]	; 0x84
 80019f8:	68fb      	ldr	r3, [r7, #12]
 80019fa:	931b      	str	r3, [sp, #108]	; 0x6c
 80019fc:	68bf      	ldr	r7, [r7, #8]
 80019fe:	972d      	str	r7, [sp, #180]	; 0xb4
 8001a00:	6a63      	ldr	r3, [r4, #36]	; 0x24
 8001a02:	f8ad 304c 	strh.w	r3, [sp, #76]	; 0x4c
 8001a06:	8d27      	ldrh	r7, [r4, #40]	; 0x28
 8001a08:	9720      	str	r7, [sp, #128]	; 0x80
 8001a0a:	6ba3      	ldr	r3, [r4, #56]	; 0x38
 8001a0c:	881f      	ldrh	r7, [r3, #0]
 8001a0e:	f8b3 8004 	ldrh.w	r8, [r3, #4]
 8001a12:	689d      	ldr	r5, [r3, #8]
 8001a14:	69a3      	ldr	r3, [r4, #24]
 8001a16:	932c      	str	r3, [sp, #176]	; 0xb0
 8001a18:	6ae3      	ldr	r3, [r4, #44]	; 0x2c
 8001a1a:	931f      	str	r3, [sp, #124]	; 0x7c
 8001a1c:	6b23      	ldr	r3, [r4, #48]	; 0x30
 8001a1e:	931e      	str	r3, [sp, #120]	; 0x78
 8001a20:	68f3      	ldr	r3, [r6, #12]
 8001a22:	f8d3 e004 	ldr.w	lr, [r3, #4]
 8001a26:	f8cd e068 	str.w	lr, [sp, #104]	; 0x68
 8001a2a:	689b      	ldr	r3, [r3, #8]
 8001a2c:	9319      	str	r3, [sp, #100]	; 0x64
 8001a2e:	6be3      	ldr	r3, [r4, #60]	; 0x3c
 8001a30:	932b      	str	r3, [sp, #172]	; 0xac
 8001a32:	6c63      	ldr	r3, [r4, #68]	; 0x44
 8001a34:	932a      	str	r3, [sp, #168]	; 0xa8
 8001a36:	6ca3      	ldr	r3, [r4, #72]	; 0x48
 8001a38:	9311      	str	r3, [sp, #68]	; 0x44
 8001a3a:	6d23      	ldr	r3, [r4, #80]	; 0x50
 8001a3c:	f8d3 a000 	ldr.w	sl, [r3]
 8001a40:	685b      	ldr	r3, [r3, #4]
 8001a42:	9329      	str	r3, [sp, #164]	; 0xa4
 8001a44:	6992      	ldr	r2, [r2, #24]
 8001a46:	6893      	ldr	r3, [r2, #8]
 8001a48:	9328      	str	r3, [sp, #160]	; 0xa0
 8001a4a:	69b2      	ldr	r2, [r6, #24]
 8001a4c:	f8d2 b008 	ldr.w	fp, [r2, #8]
 8001a50:	b119      	cbz	r1, 8001a5a <forward_conv2d_nl_pool+0xe6>
 8001a52:	698a      	ldr	r2, [r1, #24]
 8001a54:	6893      	ldr	r3, [r2, #8]
 8001a56:	931d      	str	r3, [sp, #116]	; 0x74
 8001a58:	e001      	b.n	8001a5e <forward_conv2d_nl_pool+0xea>
 8001a5a:	2200      	movs	r2, #0
 8001a5c:	921d      	str	r2, [sp, #116]	; 0x74
 8001a5e:	69e1      	ldr	r1, [r4, #28]
 8001a60:	b118      	cbz	r0, 8001a6a <forward_conv2d_nl_pool+0xf6>
 8001a62:	6981      	ldr	r1, [r0, #24]
 8001a64:	688a      	ldr	r2, [r1, #8]
 8001a66:	921c      	str	r2, [sp, #112]	; 0x70
 8001a68:	e005      	b.n	8001a76 <forward_conv2d_nl_pool+0x102>
 8001a6a:	b111      	cbz	r1, 8001a72 <forward_conv2d_nl_pool+0xfe>
 8001a6c:	688a      	ldr	r2, [r1, #8]
 8001a6e:	921c      	str	r2, [sp, #112]	; 0x70
 8001a70:	e001      	b.n	8001a76 <forward_conv2d_nl_pool+0x102>
 8001a72:	2300      	movs	r3, #0
 8001a74:	931c      	str	r3, [sp, #112]	; 0x70
 8001a76:	991c      	ldr	r1, [sp, #112]	; 0x70
 8001a78:	9102      	str	r1, [sp, #8]
 8001a7a:	b920      	cbnz	r0, 8001a86 <forward_conv2d_nl_pool+0x112>
 8001a7c:	2100      	movs	r1, #0
 8001a7e:	2201      	movs	r2, #1
 8001a80:	9116      	str	r1, [sp, #88]	; 0x58
 8001a82:	9215      	str	r2, [sp, #84]	; 0x54
 8001a84:	e008      	b.n	8001a98 <forward_conv2d_nl_pool+0x124>
 8001a86:	6941      	ldr	r1, [r0, #20]
 8001a88:	688a      	ldr	r2, [r1, #8]
 8001a8a:	9216      	str	r2, [sp, #88]	; 0x58
 8001a8c:	6980      	ldr	r0, [r0, #24]
 8001a8e:	6841      	ldr	r1, [r0, #4]
 8001a90:	6800      	ldr	r0, [r0, #0]
 8001a92:	f004 f9e7 	bl	8005e64 <ai_array_get_byte_size>
 8001a96:	9015      	str	r0, [sp, #84]	; 0x54
 8001a98:	aa1e      	add	r2, sp, #120	; 0x78
 8001a9a:	6a20      	ldr	r0, [r4, #32]
 8001a9c:	2800      	cmp	r0, #0
 8001a9e:	bf12      	itee	ne
 8001aa0:	9030      	strne	r0, [sp, #192]	; 0xc0
 8001aa2:	f8df 1a7c 	ldreq.w	r1, [pc, #2684]	; 8002520 <.text_15>
 8001aa6:	9130      	streq	r1, [sp, #192]	; 0xc0
 8001aa8:	6d61      	ldr	r1, [r4, #84]	; 0x54
 8001aaa:	9819      	ldr	r0, [sp, #100]	; 0x64
 8001aac:	8813      	ldrh	r3, [r2, #0]
 8001aae:	9127      	str	r1, [sp, #156]	; 0x9c
 8001ab0:	1e5b      	subs	r3, r3, #1
 8001ab2:	1e41      	subs	r1, r0, #1
 8001ab4:	aa1f      	add	r2, sp, #124	; 0x7c
 8001ab6:	fb03 0001 	mla	r0, r3, r1, r0
 8001aba:	9018      	str	r0, [sp, #96]	; 0x60
 8001abc:	991a      	ldr	r1, [sp, #104]	; 0x68
 8001abe:	8813      	ldrh	r3, [r2, #0]
 8001ac0:	1e48      	subs	r0, r1, #1
 8001ac2:	1e5b      	subs	r3, r3, #1
 8001ac4:	fb03 1100 	mla	r1, r3, r0, r1
 8001ac8:	9126      	str	r1, [sp, #152]	; 0x98
 8001aca:	6c21      	ldr	r1, [r4, #64]	; 0x40
 8001acc:	9a1b      	ldr	r2, [sp, #108]	; 0x6c
 8001ace:	9818      	ldr	r0, [sp, #96]	; 0x60
 8001ad0:	9112      	str	r1, [sp, #72]	; 0x48
 8001ad2:	1a12      	subs	r2, r2, r0
 8001ad4:	18ba      	adds	r2, r7, r2
 8001ad6:	9920      	ldr	r1, [sp, #128]	; 0x80
 8001ad8:	fa12 f085 	uxtah	r0, r2, r5
 8001adc:	fbb0 f1f1 	udiv	r1, r0, r1
 8001ae0:	1c49      	adds	r1, r1, #1
 8001ae2:	9114      	str	r1, [sp, #80]	; 0x50
 8001ae4:	2000      	movs	r0, #0
 8001ae6:	69b6      	ldr	r6, [r6, #24]
 8001ae8:	6831      	ldr	r1, [r6, #0]
 8001aea:	2500      	movs	r5, #0
 8001aec:	2200      	movs	r2, #0
 8001aee:	11cb      	asrs	r3, r1, #7
 8001af0:	ea4f 5c61 	mov.w	ip, r1, asr #21
 8001af4:	1449      	asrs	r1, r1, #17
 8001af6:	f001 010f 	and.w	r1, r1, #15
 8001afa:	f003 037f 	and.w	r3, r3, #127	; 0x7f
 8001afe:	f00c 0c03 	and.w	ip, ip, #3
 8001b02:	2904      	cmp	r1, #4
 8001b04:	fa23 f30c 	lsr.w	r3, r3, ip
 8001b08:	bf14      	ite	ne
 8001b0a:	2908      	cmpne	r1, #8
 8001b0c:	68f2      	ldreq	r2, [r6, #12]
 8001b0e:	b1da      	cbz	r2, 8001b48 <forward_conv2d_nl_pool+0x1d4>
 8001b10:	6961      	ldr	r1, [r4, #20]
 8001b12:	f8b1 c000 	ldrh.w	ip, [r1]
 8001b16:	f1bc 0f04 	cmp.w	ip, #4
 8001b1a:	bfa6      	itte	ge
 8001b1c:	6849      	ldrge	r1, [r1, #4]
 8001b1e:	3128      	addge	r1, #40	; 0x28
 8001b20:	2104      	movlt	r1, #4
 8001b22:	6809      	ldr	r1, [r1, #0]
 8001b24:	2900      	cmp	r1, #0
 8001b26:	bf1f      	itttt	ne
 8001b28:	6848      	ldrne	r0, [r1, #4]
 8001b2a:	2800      	cmpne	r0, #0
 8001b2c:	6981      	ldrne	r1, [r0, #24]
 8001b2e:	688d      	ldrne	r5, [r1, #8]
 8001b30:	6980      	ldr	r0, [r0, #24]
 8001b32:	6841      	ldr	r1, [r0, #4]
 8001b34:	9823      	ldr	r0, [sp, #140]	; 0x8c
 8001b36:	9101      	str	r1, [sp, #4]
 8001b38:	9000      	str	r0, [sp, #0]
 8001b3a:	4628      	mov	r0, r5
 8001b3c:	68b1      	ldr	r1, [r6, #8]
 8001b3e:	f7ff fd61 	bl	8001604 <ai_dict_decompress_f32>
 8001b42:	b10d      	cbz	r5, 8001b48 <forward_conv2d_nl_pool+0x1d4>
 8001b44:	4628      	mov	r0, r5
 8001b46:	e000      	b.n	8001b4a <forward_conv2d_nl_pool+0x1d6>
 8001b48:	4658      	mov	r0, fp
 8001b4a:	6963      	ldr	r3, [r4, #20]
 8001b4c:	f8dd c040 	ldr.w	ip, [sp, #64]	; 0x40
 8001b50:	881c      	ldrh	r4, [r3, #0]
 8001b52:	f8d9 1018 	ldr.w	r1, [r9, #24]
 8001b56:	2600      	movs	r6, #0
 8001b58:	2c04      	cmp	r4, #4
 8001b5a:	bfa6      	itte	ge
 8001b5c:	685b      	ldrge	r3, [r3, #4]
 8001b5e:	3328      	addge	r3, #40	; 0x28
 8001b60:	2304      	movlt	r3, #4
 8001b62:	f10d 0e44 	add.w	lr, sp, #68	; 0x44
 8001b66:	681b      	ldr	r3, [r3, #0]
 8001b68:	2b00      	cmp	r3, #0
 8001b6a:	bf14      	ite	ne
 8001b6c:	681d      	ldrne	r5, [r3, #0]
 8001b6e:	2500      	moveq	r5, #0
 8001b70:	427f      	negs	r7, r7
 8001b72:	69ac      	ldr	r4, [r5, #24]
 8001b74:	68eb      	ldr	r3, [r5, #12]
 8001b76:	f8d4 b008 	ldr.w	fp, [r4, #8]
 8001b7a:	689b      	ldr	r3, [r3, #8]
 8001b7c:	9c11      	ldr	r4, [sp, #68]	; 0x44
 8001b7e:	435c      	muls	r4, r3
 8001b80:	fb0c f404 	mul.w	r4, ip, r4
 8001b84:	9437      	str	r4, [sp, #220]	; 0xdc
 8001b86:	fa0f f28a 	sxth.w	r2, sl
 8001b8a:	f9be 4000 	ldrsh.w	r4, [lr]
 8001b8e:	f8dd c084 	ldr.w	ip, [sp, #132]	; 0x84
 8001b92:	9436      	str	r4, [sp, #216]	; 0xd8
 8001b94:	f10d 0e48 	add.w	lr, sp, #72	; 0x48
 8001b98:	9c10      	ldr	r4, [sp, #64]	; 0x40
 8001b9a:	fb0c f404 	mul.w	r4, ip, r4
 8001b9e:	9435      	str	r4, [sp, #212]	; 0xd4
 8001ba0:	f1c8 0800 	rsb	r8, r8, #0
 8001ba4:	f9be 4000 	ldrsh.w	r4, [lr]
 8001ba8:	9434      	str	r4, [sp, #208]	; 0xd0
 8001baa:	4691      	mov	r9, r2
 8001bac:	9c10      	ldr	r4, [sp, #64]	; 0x40
 8001bae:	f8cd 80c8 	str.w	r8, [sp, #200]	; 0xc8
 8001bb2:	435c      	muls	r4, r3
 8001bb4:	9433      	str	r4, [sp, #204]	; 0xcc
 8001bb6:	9c22      	ldr	r4, [sp, #136]	; 0x88
 8001bb8:	2c00      	cmp	r4, #0
 8001bba:	f000 812e 	beq.w	8001e1a <forward_conv2d_nl_pool+0x4a6>
 8001bbe:	f8dd a008 	ldr.w	sl, [sp, #8]
 8001bc2:	9038      	str	r0, [sp, #224]	; 0xe0
 8001bc4:	9125      	str	r1, [sp, #148]	; 0x94
 8001bc6:	4614      	mov	r4, r2
 8001bc8:	962f      	str	r6, [sp, #188]	; 0xbc
 8001bca:	962e      	str	r6, [sp, #184]	; 0xb8
 8001bcc:	9324      	str	r3, [sp, #144]	; 0x90
 8001bce:	9717      	str	r7, [sp, #92]	; 0x5c
 8001bd0:	9814      	ldr	r0, [sp, #80]	; 0x50
 8001bd2:	2800      	cmp	r0, #0
 8001bd4:	dd6a      	ble.n	8001cac <forward_conv2d_nl_pool+0x338>
 8001bd6:	9832      	ldr	r0, [sp, #200]	; 0xc8
 8001bd8:	991b      	ldr	r1, [sp, #108]	; 0x6c
 8001bda:	9a17      	ldr	r2, [sp, #92]	; 0x5c
 8001bdc:	9b18      	ldr	r3, [sp, #96]	; 0x60
 8001bde:	9031      	str	r0, [sp, #196]	; 0xc4
 8001be0:	9817      	ldr	r0, [sp, #92]	; 0x5c
 8001be2:	4240      	negs	r0, r0
 8001be4:	bfd8      	it	le
 8001be6:	2000      	movle	r0, #0
 8001be8:	1a89      	subs	r1, r1, r2
 8001bea:	4299      	cmp	r1, r3
 8001bec:	bf3d      	ittte	cc
 8001bee:	9a1b      	ldrcc	r2, [sp, #108]	; 0x6c
 8001bf0:	9917      	ldrcc	r1, [sp, #92]	; 0x5c
 8001bf2:	1a51      	subcc	r1, r2, r1
 8001bf4:	4619      	movcs	r1, r3
 8001bf6:	9009      	str	r0, [sp, #36]	; 0x24
 8001bf8:	910a      	str	r1, [sp, #40]	; 0x28
 8001bfa:	982c      	ldr	r0, [sp, #176]	; 0xb0
 8001bfc:	f8bd 104c 	ldrh.w	r1, [sp, #76]	; 0x4c
 8001c00:	9a1e      	ldr	r2, [sp, #120]	; 0x78
 8001c02:	9b1f      	ldr	r3, [sp, #124]	; 0x7c
 8001c04:	9008      	str	r0, [sp, #32]
 8001c06:	9107      	str	r1, [sp, #28]
 8001c08:	b212      	sxth	r2, r2
 8001c0a:	9819      	ldr	r0, [sp, #100]	; 0x64
 8001c0c:	991a      	ldr	r1, [sp, #104]	; 0x68
 8001c0e:	9006      	str	r0, [sp, #24]
 8001c10:	920f      	str	r2, [sp, #60]	; 0x3c
 8001c12:	9105      	str	r1, [sp, #20]
 8001c14:	b21b      	sxth	r3, r3
 8001c16:	9824      	ldr	r0, [sp, #144]	; 0x90
 8001c18:	9a26      	ldr	r2, [sp, #152]	; 0x98
 8001c1a:	992d      	ldr	r1, [sp, #180]	; 0xb4
 8001c1c:	9004      	str	r0, [sp, #16]
 8001c1e:	930e      	str	r3, [sp, #56]	; 0x38
 8001c20:	920d      	str	r2, [sp, #52]	; 0x34
 8001c22:	9103      	str	r1, [sp, #12]
 8001c24:	9810      	ldr	r0, [sp, #64]	; 0x40
 8001c26:	9b17      	ldr	r3, [sp, #92]	; 0x5c
 8001c28:	9a31      	ldr	r2, [sp, #196]	; 0xc4
 8001c2a:	9923      	ldr	r1, [sp, #140]	; 0x8c
 8001c2c:	9002      	str	r0, [sp, #8]
 8001c2e:	930c      	str	r3, [sp, #48]	; 0x30
 8001c30:	920b      	str	r2, [sp, #44]	; 0x2c
 8001c32:	9101      	str	r1, [sp, #4]
 8001c34:	4659      	mov	r1, fp
 8001c36:	981d      	ldr	r0, [sp, #116]	; 0x74
 8001c38:	9b38      	ldr	r3, [sp, #224]	; 0xe0
 8001c3a:	9a28      	ldr	r2, [sp, #160]	; 0xa0
 8001c3c:	9000      	str	r0, [sp, #0]
 8001c3e:	2000      	movs	r0, #0
 8001c40:	f7ff f8a6 	bl	8000d90 <ai_conv2d_stripe_f32>
 8001c44:	9824      	ldr	r0, [sp, #144]	; 0x90
 8001c46:	b350      	cbz	r0, 8001c9e <forward_conv2d_nl_pool+0x32a>
 8001c48:	f8cd a008 	str.w	sl, [sp, #8]
 8001c4c:	9e10      	ldr	r6, [sp, #64]	; 0x40
 8001c4e:	9f1c      	ldr	r7, [sp, #112]	; 0x70
 8001c50:	f8dd 80c0 	ldr.w	r8, [sp, #192]	; 0xc0
 8001c54:	4682      	mov	sl, r0
 8001c56:	69a9      	ldr	r1, [r5, #24]
 8001c58:	463b      	mov	r3, r7
 8001c5a:	f8c1 b008 	str.w	fp, [r1, #8]
 8001c5e:	4632      	mov	r2, r6
 8001c60:	4608      	mov	r0, r1
 8001c62:	47c0      	blx	r8
 8001c64:	9816      	ldr	r0, [sp, #88]	; 0x58
 8001c66:	9902      	ldr	r1, [sp, #8]
 8001c68:	4407      	add	r7, r0
 8001c6a:	9815      	ldr	r0, [sp, #84]	; 0x54
 8001c6c:	1a79      	subs	r1, r7, r1
 8001c6e:	4281      	cmp	r1, r0
 8001c70:	69a8      	ldr	r0, [r5, #24]
 8001c72:	6841      	ldr	r1, [r0, #4]
 8001c74:	68c0      	ldr	r0, [r0, #12]
 8001c76:	bfa8      	it	ge
 8001c78:	9f02      	ldrge	r7, [sp, #8]
 8001c7a:	eb0b 0b86 	add.w	fp, fp, r6, lsl #2
 8001c7e:	eb00 0281 	add.w	r2, r0, r1, lsl #2
 8001c82:	4593      	cmp	fp, r2
 8001c84:	d302      	bcc.n	8001c8c <forward_conv2d_nl_pool+0x318>
 8001c86:	0089      	lsls	r1, r1, #2
 8001c88:	4249      	negs	r1, r1
 8001c8a:	448b      	add	fp, r1
 8001c8c:	f1ba 0a01 	subs.w	sl, sl, #1
 8001c90:	d1e1      	bne.n	8001c56 <forward_conv2d_nl_pool+0x2e2>
 8001c92:	f8dd a008 	ldr.w	sl, [sp, #8]
 8001c96:	9610      	str	r6, [sp, #64]	; 0x40
 8001c98:	971c      	str	r7, [sp, #112]	; 0x70
 8001c9a:	f8cd 80c0 	str.w	r8, [sp, #192]	; 0xc0
 8001c9e:	69a8      	ldr	r0, [r5, #24]
 8001ca0:	68c1      	ldr	r1, [r0, #12]
 8001ca2:	6081      	str	r1, [r0, #8]
 8001ca4:	f109 0001 	add.w	r0, r9, #1
 8001ca8:	fa0f f980 	sxth.w	r9, r0
 8001cac:	9814      	ldr	r0, [sp, #80]	; 0x50
 8001cae:	1e40      	subs	r0, r0, #1
 8001cb0:	9014      	str	r0, [sp, #80]	; 0x50
 8001cb2:	d56b      	bpl.n	8001d8c <forward_conv2d_nl_pool+0x418>
 8001cb4:	9833      	ldr	r0, [sp, #204]	; 0xcc
 8001cb6:	fb00 f009 	mul.w	r0, r0, r9
 8001cba:	0080      	lsls	r0, r0, #2
 8001cbc:	4240      	negs	r0, r0
 8001cbe:	eb0b 0200 	add.w	r2, fp, r0
 8001cc2:	69a8      	ldr	r0, [r5, #24]
 8001cc4:	68c3      	ldr	r3, [r0, #12]
 8001cc6:	429a      	cmp	r2, r3
 8001cc8:	bf3c      	itt	cc
 8001cca:	6847      	ldrcc	r7, [r0, #4]
 8001ccc:	eb02 0287 	addcc.w	r2, r2, r7, lsl #2
 8001cd0:	4293      	cmp	r3, r2
 8001cd2:	4659      	mov	r1, fp
 8001cd4:	d236      	bcs.n	8001d44 <forward_conv2d_nl_pool+0x3d0>
 8001cd6:	9e34      	ldr	r6, [sp, #208]	; 0xd0
 8001cd8:	45b1      	cmp	r9, r6
 8001cda:	d033      	beq.n	8001d44 <forward_conv2d_nl_pool+0x3d0>
 8001cdc:	6846      	ldr	r6, [r0, #4]
 8001cde:	eb03 0386 	add.w	r3, r3, r6, lsl #2
 8001ce2:	429a      	cmp	r2, r3
 8001ce4:	f080 802e 	bcs.w	8001d44 <forward_conv2d_nl_pool+0x3d0>
 8001ce8:	ed92 0a00 	vldr	s0, [r2]
 8001cec:	ed8b 0a00 	vstr	s0, [fp]
 8001cf0:	68c3      	ldr	r3, [r0, #12]
 8001cf2:	6846      	ldr	r6, [r0, #4]
 8001cf4:	1d12      	adds	r2, r2, #4
 8001cf6:	eb03 0786 	add.w	r7, r3, r6, lsl #2
 8001cfa:	42ba      	cmp	r2, r7
 8001cfc:	d222      	bcs.n	8001d44 <forward_conv2d_nl_pool+0x3d0>
 8001cfe:	edd2 0a00 	vldr	s1, [r2]
 8001d02:	edcb 0a01 	vstr	s1, [fp, #4]
 8001d06:	68c3      	ldr	r3, [r0, #12]
 8001d08:	6846      	ldr	r6, [r0, #4]
 8001d0a:	1d12      	adds	r2, r2, #4
 8001d0c:	eb03 0786 	add.w	r7, r3, r6, lsl #2
 8001d10:	42ba      	cmp	r2, r7
 8001d12:	d217      	bcs.n	8001d44 <forward_conv2d_nl_pool+0x3d0>
 8001d14:	ed92 0a00 	vldr	s0, [r2]
 8001d18:	ed8b 0a02 	vstr	s0, [fp, #8]
 8001d1c:	68c3      	ldr	r3, [r0, #12]
 8001d1e:	6846      	ldr	r6, [r0, #4]
 8001d20:	1d12      	adds	r2, r2, #4
 8001d22:	eb03 0786 	add.w	r7, r3, r6, lsl #2
 8001d26:	42ba      	cmp	r2, r7
 8001d28:	d20c      	bcs.n	8001d44 <forward_conv2d_nl_pool+0x3d0>
 8001d2a:	edd2 0a00 	vldr	s1, [r2]
 8001d2e:	edcb 0a03 	vstr	s1, [fp, #12]
 8001d32:	68c3      	ldr	r3, [r0, #12]
 8001d34:	6846      	ldr	r6, [r0, #4]
 8001d36:	1d12      	adds	r2, r2, #4
 8001d38:	eb03 0786 	add.w	r7, r3, r6, lsl #2
 8001d3c:	42ba      	cmp	r2, r7
 8001d3e:	f10b 0b10 	add.w	fp, fp, #16
 8001d42:	d3d1      	bcc.n	8001ce8 <forward_conv2d_nl_pool+0x374>
 8001d44:	9a2f      	ldr	r2, [sp, #188]	; 0xbc
 8001d46:	9b12      	ldr	r3, [sp, #72]	; 0x48
 8001d48:	189a      	adds	r2, r3, r2
 8001d4a:	eba2 0209 	sub.w	r2, r2, r9
 8001d4e:	922f      	str	r2, [sp, #188]	; 0xbc
 8001d50:	9a11      	ldr	r2, [sp, #68]	; 0x44
 8001d52:	9b37      	ldr	r3, [sp, #220]	; 0xdc
 8001d54:	444a      	add	r2, r9
 8001d56:	fa0f f982 	sxth.w	r9, r2
 8001d5a:	eb01 0b83 	add.w	fp, r1, r3, lsl #2
 8001d5e:	68c1      	ldr	r1, [r0, #12]
 8001d60:	6842      	ldr	r2, [r0, #4]
 8001d62:	eb01 0382 	add.w	r3, r1, r2, lsl #2
 8001d66:	459b      	cmp	fp, r3
 8001d68:	460b      	mov	r3, r1
 8001d6a:	d30f      	bcc.n	8001d8c <forward_conv2d_nl_pool+0x418>
 8001d6c:	6841      	ldr	r1, [r0, #4]
 8001d6e:	008a      	lsls	r2, r1, #2
 8001d70:	4252      	negs	r2, r2
 8001d72:	4493      	add	fp, r2
 8001d74:	eb03 0181 	add.w	r1, r3, r1, lsl #2
 8001d78:	458b      	cmp	fp, r1
 8001d7a:	bf24      	itt	cs
 8001d7c:	4493      	addcs	fp, r2
 8001d7e:	458b      	cmpcs	fp, r1
 8001d80:	bf21      	itttt	cs
 8001d82:	4493      	addcs	fp, r2
 8001d84:	458b      	cmpcs	fp, r1
 8001d86:	4493      	addcs	fp, r2
 8001d88:	458b      	cmpcs	fp, r1
 8001d8a:	d2ef      	bcs.n	8001d6c <forward_conv2d_nl_pool+0x3f8>
 8001d8c:	9812      	ldr	r0, [sp, #72]	; 0x48
 8001d8e:	4581      	cmp	r9, r0
 8001d90:	d339      	bcc.n	8001e06 <forward_conv2d_nl_pool+0x492>
 8001d92:	9911      	ldr	r1, [sp, #68]	; 0x44
 8001d94:	9a21      	ldr	r2, [sp, #132]	; 0x84
 8001d96:	9b10      	ldr	r3, [sp, #64]	; 0x40
 8001d98:	9e27      	ldr	r6, [sp, #156]	; 0x9c
 8001d9a:	eba9 0001 	sub.w	r0, r9, r1
 8001d9e:	fa0f f980 	sxth.w	r9, r0
 8001da2:	982e      	ldr	r0, [sp, #184]	; 0xb8
 8001da4:	1c40      	adds	r0, r0, #1
 8001da6:	902e      	str	r0, [sp, #184]	; 0xb8
 8001da8:	2101      	movs	r1, #1
 8001daa:	9825      	ldr	r0, [sp, #148]	; 0x94
 8001dac:	9008      	str	r0, [sp, #32]
 8001dae:	9107      	str	r1, [sp, #28]
 8001db0:	b292      	uxth	r2, r2
 8001db2:	9811      	ldr	r0, [sp, #68]	; 0x44
 8001db4:	992a      	ldr	r1, [sp, #168]	; 0xa8
 8001db6:	9206      	str	r2, [sp, #24]
 8001db8:	b280      	uxth	r0, r0
 8001dba:	9005      	str	r0, [sp, #20]
 8001dbc:	b289      	uxth	r1, r1
 8001dbe:	9829      	ldr	r0, [sp, #164]	; 0xa4
 8001dc0:	9a12      	ldr	r2, [sp, #72]	; 0x48
 8001dc2:	9104      	str	r1, [sp, #16]
 8001dc4:	b280      	uxth	r0, r0
 8001dc6:	b2a1      	uxth	r1, r4
 8001dc8:	9002      	str	r0, [sp, #8]
 8001dca:	9103      	str	r1, [sp, #12]
 8001dcc:	b29b      	uxth	r3, r3
 8001dce:	982b      	ldr	r0, [sp, #172]	; 0xac
 8001dd0:	9912      	ldr	r1, [sp, #72]	; 0x48
 8001dd2:	b280      	uxth	r0, r0
 8001dd4:	b289      	uxth	r1, r1
 8001dd6:	9000      	str	r0, [sp, #0]
 8001dd8:	9101      	str	r1, [sp, #4]
 8001dda:	982f      	ldr	r0, [sp, #188]	; 0xbc
 8001ddc:	9924      	ldr	r1, [sp, #144]	; 0x90
 8001dde:	1a12      	subs	r2, r2, r0
 8001de0:	69a8      	ldr	r0, [r5, #24]
 8001de2:	b292      	uxth	r2, r2
 8001de4:	b289      	uxth	r1, r1
 8001de6:	47b0      	blx	r6
 8001de8:	9825      	ldr	r0, [sp, #148]	; 0x94
 8001dea:	6881      	ldr	r1, [r0, #8]
 8001dec:	9835      	ldr	r0, [sp, #212]	; 0xd4
 8001dee:	eb01 0280 	add.w	r2, r1, r0, lsl #2
 8001df2:	9925      	ldr	r1, [sp, #148]	; 0x94
 8001df4:	608a      	str	r2, [r1, #8]
 8001df6:	9836      	ldr	r0, [sp, #216]	; 0xd8
 8001df8:	1a20      	subs	r0, r4, r0
 8001dfa:	2800      	cmp	r0, #0
 8001dfc:	bfc3      	ittte	gt
 8001dfe:	9811      	ldrgt	r0, [sp, #68]	; 0x44
 8001e00:	1a24      	subgt	r4, r4, r0
 8001e02:	b224      	sxthgt	r4, r4
 8001e04:	2400      	movle	r4, #0
 8001e06:	9817      	ldr	r0, [sp, #92]	; 0x5c
 8001e08:	9920      	ldr	r1, [sp, #128]	; 0x80
 8001e0a:	1808      	adds	r0, r1, r0
 8001e0c:	9017      	str	r0, [sp, #92]	; 0x5c
 8001e0e:	9922      	ldr	r1, [sp, #136]	; 0x88
 8001e10:	982e      	ldr	r0, [sp, #184]	; 0xb8
 8001e12:	4288      	cmp	r0, r1
 8001e14:	f4ff aedc 	bcc.w	8001bd0 <forward_conv2d_nl_pool+0x25c>
 8001e18:	9925      	ldr	r1, [sp, #148]	; 0x94
 8001e1a:	69a8      	ldr	r0, [r5, #24]
 8001e1c:	68c2      	ldr	r2, [r0, #12]
 8001e1e:	6082      	str	r2, [r0, #8]
 8001e20:	68c8      	ldr	r0, [r1, #12]
 8001e22:	6088      	str	r0, [r1, #8]
 8001e24:	b039      	add	sp, #228	; 0xe4
 8001e26:	e8bd 8ff0 	ldmia.w	sp!, {r4, r5, r6, r7, r8, r9, sl, fp, pc}
	...

08001e2c <forward_dense>:
 8001e2c:	e92d 4ff0 	stmdb	sp!, {r4, r5, r6, r7, r8, r9, sl, fp, lr}
 8001e30:	b081      	sub	sp, #4
 8001e32:	ed2d 8b02 	vpush	{d8}
 8001e36:	b088      	sub	sp, #32
 8001e38:	6944      	ldr	r4, [r0, #20]
 8001e3a:	8820      	ldrh	r0, [r4, #0]
 8001e3c:	2800      	cmp	r0, #0
 8001e3e:	bf1a      	itte	ne
 8001e40:	6861      	ldrne	r1, [r4, #4]
 8001e42:	1d09      	addne	r1, r1, #4
 8001e44:	2104      	moveq	r1, #4
 8001e46:	6809      	ldr	r1, [r1, #0]
 8001e48:	2900      	cmp	r1, #0
 8001e4a:	bf14      	ite	ne
 8001e4c:	680a      	ldrne	r2, [r1, #0]
 8001e4e:	2200      	moveq	r2, #0
 8001e50:	2802      	cmp	r0, #2
 8001e52:	bfa6      	itte	ge
 8001e54:	6861      	ldrge	r1, [r4, #4]
 8001e56:	3110      	addge	r1, #16
 8001e58:	2104      	movlt	r1, #4
 8001e5a:	6809      	ldr	r1, [r1, #0]
 8001e5c:	2900      	cmp	r1, #0
 8001e5e:	bf14      	ite	ne
 8001e60:	680f      	ldrne	r7, [r1, #0]
 8001e62:	2700      	moveq	r7, #0
 8001e64:	2802      	cmp	r0, #2
 8001e66:	bfc6      	itte	gt
 8001e68:	6861      	ldrgt	r1, [r4, #4]
 8001e6a:	311c      	addgt	r1, #28
 8001e6c:	2104      	movle	r1, #4
 8001e6e:	6809      	ldr	r1, [r1, #0]
 8001e70:	2900      	cmp	r1, #0
 8001e72:	bf14      	ite	ne
 8001e74:	680b      	ldrne	r3, [r1, #0]
 8001e76:	2300      	moveq	r3, #0
 8001e78:	2802      	cmp	r0, #2
 8001e7a:	dd0b      	ble.n	8001e94 <forward_dense+0x68>
 8001e7c:	6861      	ldr	r1, [r4, #4]
 8001e7e:	f111 0018 	adds.w	r0, r1, #24
 8001e82:	d007      	beq.n	8001e94 <forward_dense+0x68>
 8001e84:	8b08      	ldrh	r0, [r1, #24]
 8001e86:	2802      	cmp	r0, #2
 8001e88:	db04      	blt.n	8001e94 <forward_dense+0x68>
 8001e8a:	69c8      	ldr	r0, [r1, #28]
 8001e8c:	b110      	cbz	r0, 8001e94 <forward_dense+0x68>
 8001e8e:	f8d0 a004 	ldr.w	sl, [r0, #4]
 8001e92:	e001      	b.n	8001e98 <forward_dense+0x6c>
 8001e94:	f04f 0a00 	mov.w	sl, #0
 8001e98:	68d0      	ldr	r0, [r2, #12]
 8001e9a:	6844      	ldr	r4, [r0, #4]
 8001e9c:	68f8      	ldr	r0, [r7, #12]
 8001e9e:	6845      	ldr	r5, [r0, #4]
 8001ea0:	6881      	ldr	r1, [r0, #8]
 8001ea2:	68c0      	ldr	r0, [r0, #12]
 8001ea4:	699e      	ldr	r6, [r3, #24]
 8001ea6:	69bf      	ldr	r7, [r7, #24]
 8001ea8:	f8d6 e000 	ldr.w	lr, [r6]
 8001eac:	6992      	ldr	r2, [r2, #24]
 8001eae:	68bf      	ldr	r7, [r7, #8]
 8001eb0:	4341      	muls	r1, r0
 8001eb2:	2000      	movs	r0, #0
 8001eb4:	ea4f 19ee 	mov.w	r9, lr, asr #7
 8001eb8:	ea4f 586e 	mov.w	r8, lr, asr #21
 8001ebc:	ea4f 4e6e 	mov.w	lr, lr, asr #17
 8001ec0:	f00e 0e0f 	and.w	lr, lr, #15
 8001ec4:	f1be 0f04 	cmp.w	lr, #4
 8001ec8:	bf14      	ite	ne
 8001eca:	f1be 0f08 	cmpne.w	lr, #8
 8001ece:	68f0      	ldreq	r0, [r6, #12]
 8001ed0:	f009 097f 	and.w	r9, r9, #127	; 0x7f
 8001ed4:	f008 0803 	and.w	r8, r8, #3
 8001ed8:	695e      	ldr	r6, [r3, #20]
 8001eda:	6876      	ldr	r6, [r6, #4]
 8001edc:	fa29 f908 	lsr.w	r9, r9, r8
 8001ee0:	f8d2 8008 	ldr.w	r8, [r2, #8]
 8001ee4:	2900      	cmp	r1, #0
 8001ee6:	eb07 0285 	add.w	r2, r7, r5, lsl #2
 8001eea:	f000 80ea 	beq.w	80020c2 <forward_dense+0x296>
 8001eee:	9307      	str	r3, [sp, #28]
 8001ef0:	f8cd a014 	str.w	sl, [sp, #20]
 8001ef4:	9506      	str	r5, [sp, #24]
 8001ef6:	9201      	str	r2, [sp, #4]
 8001ef8:	9104      	str	r1, [sp, #16]
 8001efa:	9907      	ldr	r1, [sp, #28]
 8001efc:	698a      	ldr	r2, [r1, #24]
 8001efe:	9905      	ldr	r1, [sp, #20]
 8001f00:	f8d2 b008 	ldr.w	fp, [r2, #8]
 8001f04:	9b01      	ldr	r3, [sp, #4]
 8001f06:	2900      	cmp	r1, #0
 8001f08:	bf1a      	itte	ne
 8001f0a:	698a      	ldrne	r2, [r1, #24]
 8001f0c:	6892      	ldrne	r2, [r2, #8]
 8001f0e:	2200      	moveq	r2, #0
 8001f10:	2800      	cmp	r0, #0
 8001f12:	f040 80ab 	bne.w	800206c <forward_dense+0x240>
 8001f16:	429f      	cmp	r7, r3
 8001f18:	f080 80c7 	bcs.w	80020aa <forward_dense+0x27e>
 8001f1c:	9003      	str	r0, [sp, #12]
 8001f1e:	2a00      	cmp	r2, #0
 8001f20:	bf0e      	itee	eq
 8001f22:	ed9f 0a6b 	vldreq	s0, [pc, #428]	; 80020d0 <.text_12>
 8001f26:	ed92 0a00 	vldrne	s0, [r2]
 8001f2a:	1d12      	addne	r2, r2, #4
 8001f2c:	2c04      	cmp	r4, #4
 8001f2e:	4620      	mov	r0, r4
 8001f30:	46c6      	mov	lr, r8
 8001f32:	46dc      	mov	ip, fp
 8001f34:	eddf 0a66 	vldr	s1, [pc, #408]	; 80020d0 <.text_12>
 8001f38:	d35d      	bcc.n	8001ff6 <forward_dense+0x1ca>
 8001f3a:	08a1      	lsrs	r1, r4, #2
 8001f3c:	07cd      	lsls	r5, r1, #31
 8001f3e:	d51c      	bpl.n	8001f7a <forward_dense+0x14e>
 8001f40:	ed9c 4a00 	vldr	s8, [ip]
 8001f44:	edde 4a00 	vldr	s9, [lr]
 8001f48:	ed9c 3a01 	vldr	s6, [ip, #4]
 8001f4c:	edde 3a01 	vldr	s7, [lr, #4]
 8001f50:	ed9c 2a02 	vldr	s4, [ip, #8]
 8001f54:	edde 2a02 	vldr	s5, [lr, #8]
 8001f58:	ed9c 1a03 	vldr	s2, [ip, #12]
 8001f5c:	edde 1a03 	vldr	s3, [lr, #12]
 8001f60:	ee44 0a24 	vmla.f32	s1, s8, s9
 8001f64:	ee43 0a23 	vmla.f32	s1, s6, s7
 8001f68:	ee42 0a22 	vmla.f32	s1, s4, s5
 8001f6c:	ee41 0a21 	vmla.f32	s1, s2, s3
 8001f70:	f10e 0e10 	add.w	lr, lr, #16
 8001f74:	f10c 0c10 	add.w	ip, ip, #16
 8001f78:	1f00      	subs	r0, r0, #4
 8001f7a:	0849      	lsrs	r1, r1, #1
 8001f7c:	f000 803b 	beq.w	8001ff6 <forward_dense+0x1ca>
 8001f80:	edde 4a00 	vldr	s9, [lr]
 8001f84:	edde 3a01 	vldr	s7, [lr, #4]
 8001f88:	edde 2a02 	vldr	s5, [lr, #8]
 8001f8c:	edde 1a03 	vldr	s3, [lr, #12]
 8001f90:	ed9c 1a03 	vldr	s2, [ip, #12]
 8001f94:	ed9c 2a02 	vldr	s4, [ip, #8]
 8001f98:	ed9c 3a01 	vldr	s6, [ip, #4]
 8001f9c:	ed9c 4a00 	vldr	s8, [ip]
 8001fa0:	ee44 0a24 	vmla.f32	s1, s8, s9
 8001fa4:	ee43 0a23 	vmla.f32	s1, s6, s7
 8001fa8:	ee42 0a22 	vmla.f32	s1, s4, s5
 8001fac:	ee41 0a21 	vmla.f32	s1, s2, s3
 8001fb0:	f10e 0510 	add.w	r5, lr, #16
 8001fb4:	f10c 0c10 	add.w	ip, ip, #16
 8001fb8:	edd5 8a00 	vldr	s17, [r5]
 8001fbc:	ed9c 8a00 	vldr	s16, [ip]
 8001fc0:	ed9c 7a01 	vldr	s14, [ip, #4]
 8001fc4:	edd5 7a01 	vldr	s15, [r5, #4]
 8001fc8:	ed9c 6a02 	vldr	s12, [ip, #8]
 8001fcc:	edd5 6a02 	vldr	s13, [r5, #8]
 8001fd0:	ed9c 5a03 	vldr	s10, [ip, #12]
 8001fd4:	edd5 5a03 	vldr	s11, [r5, #12]
 8001fd8:	ee48 0a28 	vmla.f32	s1, s16, s17
 8001fdc:	ee47 0a27 	vmla.f32	s1, s14, s15
 8001fe0:	3808      	subs	r0, #8
 8001fe2:	ee46 0a26 	vmla.f32	s1, s12, s13
 8001fe6:	1e49      	subs	r1, r1, #1
 8001fe8:	ee45 0a25 	vmla.f32	s1, s10, s11
 8001fec:	f105 0e10 	add.w	lr, r5, #16
 8001ff0:	f10c 0c10 	add.w	ip, ip, #16
 8001ff4:	d1c4      	bne.n	8001f80 <forward_dense+0x154>
 8001ff6:	b378      	cbz	r0, 8002058 <forward_dense+0x22c>
 8001ff8:	f010 0103 	ands.w	r1, r0, #3
 8001ffc:	f000 800c 	beq.w	8002018 <forward_dense+0x1ec>
 8002000:	ed9c 1a00 	vldr	s2, [ip]
 8002004:	edde 1a00 	vldr	s3, [lr]
 8002008:	1e49      	subs	r1, r1, #1
 800200a:	ee41 0a21 	vmla.f32	s1, s2, s3
 800200e:	f10e 0e04 	add.w	lr, lr, #4
 8002012:	f10c 0c04 	add.w	ip, ip, #4
 8002016:	d1f3      	bne.n	8002000 <forward_dense+0x1d4>
 8002018:	0880      	lsrs	r0, r0, #2
 800201a:	d01d      	beq.n	8002058 <forward_dense+0x22c>
 800201c:	ed9c 2a00 	vldr	s4, [ip]
 8002020:	ed9e 1a00 	vldr	s2, [lr]
 8002024:	eddc 1a01 	vldr	s3, [ip, #4]
 8002028:	edde 2a01 	vldr	s5, [lr, #4]
 800202c:	ee42 0a01 	vmla.f32	s1, s4, s2
 8002030:	ee41 0aa2 	vmla.f32	s1, s3, s5
 8002034:	ed9c 2a02 	vldr	s4, [ip, #8]
 8002038:	ed9e 1a02 	vldr	s2, [lr, #8]
 800203c:	eddc 1a03 	vldr	s3, [ip, #12]
 8002040:	edde 2a03 	vldr	s5, [lr, #12]
 8002044:	ee42 0a01 	vmla.f32	s1, s4, s2
 8002048:	1e40      	subs	r0, r0, #1
 800204a:	ee41 0aa2 	vmla.f32	s1, s3, s5
 800204e:	f10e 0e10 	add.w	lr, lr, #16
 8002052:	f10c 0c10 	add.w	ip, ip, #16
 8002056:	d1e1      	bne.n	800201c <forward_dense+0x1f0>
 8002058:	ee30 0a20 	vadd.f32	s0, s0, s1
 800205c:	ed87 0a00 	vstr	s0, [r7]
 8002060:	1d3f      	adds	r7, r7, #4
 8002062:	429f      	cmp	r7, r3
 8002064:	44b3      	add	fp, r6
 8002066:	f4ff af5a 	bcc.w	8001f1e <forward_dense+0xf2>
 800206a:	e01d      	b.n	80020a8 <forward_dense+0x27c>
 800206c:	429f      	cmp	r7, r3
 800206e:	d21c      	bcs.n	80020aa <forward_dense+0x27e>
 8002070:	469a      	mov	sl, r3
 8002072:	9003      	str	r0, [sp, #12]
 8002074:	4615      	mov	r5, r2
 8002076:	2d00      	cmp	r5, #0
 8002078:	bf14      	ite	ne
 800207a:	f855 0b04 	ldrne.w	r0, [r5], #4
 800207e:	2000      	moveq	r0, #0
 8002080:	9002      	str	r0, [sp, #8]
 8002082:	f1b9 0f04 	cmp.w	r9, #4
 8002086:	9a03      	ldr	r2, [sp, #12]
 8002088:	9400      	str	r4, [sp, #0]
 800208a:	4643      	mov	r3, r8
 800208c:	4659      	mov	r1, fp
 800208e:	a802      	add	r0, sp, #8
 8002090:	d102      	bne.n	8002098 <forward_dense+0x26c>
 8002092:	f7ff fa03 	bl	800149c <ai_dict4_dot_array_f32>
 8002096:	e001      	b.n	800209c <forward_dense+0x270>
 8002098:	f7ff f950 	bl	800133c <ai_dict8_dot_array_f32>
 800209c:	9802      	ldr	r0, [sp, #8]
 800209e:	f847 0b04 	str.w	r0, [r7], #4
 80020a2:	4557      	cmp	r7, sl
 80020a4:	44b3      	add	fp, r6
 80020a6:	d3e6      	bcc.n	8002076 <forward_dense+0x24a>
 80020a8:	9803      	ldr	r0, [sp, #12]
 80020aa:	9901      	ldr	r1, [sp, #4]
 80020ac:	9a06      	ldr	r2, [sp, #24]
 80020ae:	eb01 0382 	add.w	r3, r1, r2, lsl #2
 80020b2:	9904      	ldr	r1, [sp, #16]
 80020b4:	9301      	str	r3, [sp, #4]
 80020b6:	1e49      	subs	r1, r1, #1
 80020b8:	eb08 0884 	add.w	r8, r8, r4, lsl #2
 80020bc:	9104      	str	r1, [sp, #16]
 80020be:	f47f af1c 	bne.w	8001efa <forward_dense+0xce>
 80020c2:	b008      	add	sp, #32
 80020c4:	ecbd 8b02 	vpop	{d8}
 80020c8:	b001      	add	sp, #4
 80020ca:	e8bd 8ff0 	ldmia.w	sp!, {r4, r5, r6, r7, r8, r9, sl, fp, pc}
	...

080020d0 <.text_12>:
 80020d0:	00000000 	.word	0x00000000

080020d4 <forward_gemm>:
 80020d4:	e92d 4ff0 	stmdb	sp!, {r4, r5, r6, r7, r8, r9, sl, fp, lr}
 80020d8:	4604      	mov	r4, r0
 80020da:	b091      	sub	sp, #68	; 0x44
 80020dc:	6961      	ldr	r1, [r4, #20]
 80020de:	8808      	ldrh	r0, [r1, #0]
 80020e0:	2800      	cmp	r0, #0
 80020e2:	bf1a      	itte	ne
 80020e4:	6848      	ldrne	r0, [r1, #4]
 80020e6:	1d02      	addne	r2, r0, #4
 80020e8:	2204      	moveq	r2, #4
 80020ea:	460b      	mov	r3, r1
 80020ec:	6810      	ldr	r0, [r2, #0]
 80020ee:	8819      	ldrh	r1, [r3, #0]
 80020f0:	2800      	cmp	r0, #0
 80020f2:	bf14      	ite	ne
 80020f4:	6805      	ldrne	r5, [r0, #0]
 80020f6:	2500      	moveq	r5, #0
 80020f8:	2900      	cmp	r1, #0
 80020fa:	bf1d      	ittte	ne
 80020fc:	6858      	ldrne	r0, [r3, #4]
 80020fe:	2800      	cmpne	r0, #0
 8002100:	f8b0 c000 	ldrhne.w	ip, [r0]
 8002104:	f04f 0c00 	moveq.w	ip, #0
 8002108:	2902      	cmp	r1, #2
 800210a:	bfa6      	itte	ge
 800210c:	6858      	ldrge	r0, [r3, #4]
 800210e:	3010      	addge	r0, #16
 8002110:	2004      	movlt	r0, #4
 8002112:	6800      	ldr	r0, [r0, #0]
 8002114:	2800      	cmp	r0, #0
 8002116:	bf14      	ite	ne
 8002118:	6801      	ldrne	r1, [r0, #0]
 800211a:	2100      	moveq	r1, #0
 800211c:	2600      	movs	r6, #0
 800211e:	f1bc 0f03 	cmp.w	ip, #3
 8002122:	46b2      	mov	sl, r6
 8002124:	d107      	bne.n	8002136 <forward_gemm+0x62>
 8002126:	6810      	ldr	r0, [r2, #0]
 8002128:	2800      	cmp	r0, #0
 800212a:	d026      	beq.n	800217a <forward_gemm+0xa6>
 800212c:	6846      	ldr	r6, [r0, #4]
 800212e:	d024      	beq.n	800217a <forward_gemm+0xa6>
 8002130:	f8d0 a008 	ldr.w	sl, [r0, #8]
 8002134:	e021      	b.n	800217a <forward_gemm+0xa6>
 8002136:	f1bc 0f02 	cmp.w	ip, #2
 800213a:	d10d      	bne.n	8002158 <forward_gemm+0x84>
 800213c:	6810      	ldr	r0, [r2, #0]
 800213e:	b100      	cbz	r0, 8002142 <forward_gemm+0x6e>
 8002140:	6846      	ldr	r6, [r0, #4]
 8002142:	881a      	ldrh	r2, [r3, #0]
 8002144:	2a02      	cmp	r2, #2
 8002146:	bfc6      	itte	gt
 8002148:	6858      	ldrgt	r0, [r3, #4]
 800214a:	301c      	addgt	r0, #28
 800214c:	2004      	movle	r0, #4
 800214e:	6800      	ldr	r0, [r0, #0]
 8002150:	b198      	cbz	r0, 800217a <forward_gemm+0xa6>
 8002152:	f8d0 a000 	ldr.w	sl, [r0]
 8002156:	e010      	b.n	800217a <forward_gemm+0xa6>
 8002158:	f1bc 0f01 	cmp.w	ip, #1
 800215c:	d10d      	bne.n	800217a <forward_gemm+0xa6>
 800215e:	881a      	ldrh	r2, [r3, #0]
 8002160:	2a02      	cmp	r2, #2
 8002162:	bfc6      	itte	gt
 8002164:	6858      	ldrgt	r0, [r3, #4]
 8002166:	f100 021c 	addgt.w	r2, r0, #28
 800216a:	2204      	movle	r2, #4
 800216c:	6810      	ldr	r0, [r2, #0]
 800216e:	2800      	cmp	r0, #0
 8002170:	d003      	beq.n	800217a <forward_gemm+0xa6>
 8002172:	6806      	ldr	r6, [r0, #0]
 8002174:	bf18      	it	ne
 8002176:	f8d0 a004 	ldrne.w	sl, [r0, #4]
 800217a:	68c8      	ldr	r0, [r1, #12]
 800217c:	6989      	ldr	r1, [r1, #24]
 800217e:	688b      	ldr	r3, [r1, #8]
 8002180:	6842      	ldr	r2, [r0, #4]
 8002182:	68c1      	ldr	r1, [r0, #12]
 8002184:	b292      	uxth	r2, r2
 8002186:	b289      	uxth	r1, r1
 8002188:	a806      	add	r0, sp, #24
 800218a:	f004 f831 	bl	80061f0 <arm_mat_init_f32>
 800218e:	69a9      	ldr	r1, [r5, #24]
 8002190:	68e8      	ldr	r0, [r5, #12]
 8002192:	688b      	ldr	r3, [r1, #8]
 8002194:	6842      	ldr	r2, [r0, #4]
 8002196:	68c1      	ldr	r1, [r0, #12]
 8002198:	b292      	uxth	r2, r2
 800219a:	b289      	uxth	r1, r1
 800219c:	a804      	add	r0, sp, #16
 800219e:	f004 f827 	bl	80061f0 <arm_mat_init_f32>
 80021a2:	69b1      	ldr	r1, [r6, #24]
 80021a4:	68f0      	ldr	r0, [r6, #12]
 80021a6:	688b      	ldr	r3, [r1, #8]
 80021a8:	6842      	ldr	r2, [r0, #4]
 80021aa:	68c1      	ldr	r1, [r0, #12]
 80021ac:	b292      	uxth	r2, r2
 80021ae:	b289      	uxth	r1, r1
 80021b0:	a802      	add	r0, sp, #8
 80021b2:	f004 f81d 	bl	80061f0 <arm_mat_init_f32>
 80021b6:	f8da 1018 	ldr.w	r1, [sl, #24]
 80021ba:	f8da 000c 	ldr.w	r0, [sl, #12]
 80021be:	688b      	ldr	r3, [r1, #8]
 80021c0:	6842      	ldr	r2, [r0, #4]
 80021c2:	68c1      	ldr	r1, [r0, #12]
 80021c4:	b292      	uxth	r2, r2
 80021c6:	b289      	uxth	r1, r1
 80021c8:	4668      	mov	r0, sp
 80021ca:	f004 f811 	bl	80061f0 <arm_mat_init_f32>
 80021ce:	f994 5021 	ldrsb.w	r5, [r4, #33]	; 0x21
 80021d2:	f994 0020 	ldrsb.w	r0, [r4, #32]
 80021d6:	9905      	ldr	r1, [sp, #20]
 80021d8:	9a03      	ldr	r2, [sp, #12]
 80021da:	ed94 0a07 	vldr	s0, [r4, #28]
 80021de:	edd4 0a06 	vldr	s1, [r4, #24]
 80021e2:	910b      	str	r1, [sp, #44]	; 0x2c
 80021e4:	920e      	str	r2, [sp, #56]	; 0x38
 80021e6:	920d      	str	r2, [sp, #52]	; 0x34
 80021e8:	2300      	movs	r3, #0
 80021ea:	f8bd e010 	ldrh.w	lr, [sp, #16]
 80021ee:	f8bd 8012 	ldrh.w	r8, [sp, #18]
 80021f2:	9901      	ldr	r1, [sp, #4]
 80021f4:	f8bd 7002 	ldrh.w	r7, [sp, #2]
 80021f8:	f8bd c000 	ldrh.w	ip, [sp]
 80021fc:	9c07      	ldr	r4, [sp, #28]
 80021fe:	f8bd a008 	ldrh.w	sl, [sp, #8]
 8002202:	f8bd 6018 	ldrh.w	r6, [sp, #24]
 8002206:	f8bd b01a 	ldrh.w	fp, [sp, #26]
 800220a:	9108      	str	r1, [sp, #32]
 800220c:	0002      	movs	r2, r0
 800220e:	bf0c      	ite	eq
 8002210:	4672      	moveq	r2, lr
 8002212:	4642      	movne	r2, r8
 8002214:	2f01      	cmp	r7, #1
 8002216:	bf0c      	ite	eq
 8002218:	4699      	moveq	r9, r3
 800221a:	f04f 0904 	movne.w	r9, #4
 800221e:	f8bd 100a 	ldrh.w	r1, [sp, #10]
 8002222:	f1bc 0f01 	cmp.w	ip, #1
 8002226:	d104      	bne.n	8002232 <forward_gemm+0x15e>
 8002228:	2f01      	cmp	r7, #1
 800222a:	d004      	beq.n	8002236 <forward_gemm+0x162>
 800222c:	f1cb 0700 	rsb	r7, fp, #0
 8002230:	e002      	b.n	8002238 <forward_gemm+0x164>
 8002232:	2f01      	cmp	r7, #1
 8002234:	d000      	beq.n	8002238 <forward_gemm+0x164>
 8002236:	2700      	movs	r7, #0
 8002238:	2800      	cmp	r0, #0
 800223a:	bf0c      	ite	eq
 800223c:	46f4      	moveq	ip, lr
 800223e:	46c4      	movne	ip, r8
 8002240:	b23f      	sxth	r7, r7
 8002242:	45b4      	cmp	ip, r6
 8002244:	970c      	str	r7, [sp, #48]	; 0x30
 8002246:	f040 808b 	bne.w	8002360 <forward_gemm+0x28c>
 800224a:	2d00      	cmp	r5, #0
 800224c:	bf0c      	ite	eq
 800224e:	9109      	streq	r1, [sp, #36]	; 0x24
 8002250:	f8cd a024 	strne.w	sl, [sp, #36]	; 0x24
 8002254:	9f09      	ldr	r7, [sp, #36]	; 0x24
 8002256:	455f      	cmp	r7, fp
 8002258:	f040 8082 	bne.w	8002360 <forward_gemm+0x28c>
 800225c:	2800      	cmp	r0, #0
 800225e:	bf0c      	ite	eq
 8002260:	46c4      	moveq	ip, r8
 8002262:	46f4      	movne	ip, lr
 8002264:	2d00      	cmp	r5, #0
 8002266:	bf0c      	ite	eq
 8002268:	4657      	moveq	r7, sl
 800226a:	460f      	movne	r7, r1
 800226c:	45bc      	cmp	ip, r7
 800226e:	d177      	bne.n	8002360 <forward_gemm+0x28c>
 8002270:	9e08      	ldr	r6, [sp, #32]
 8002272:	f8dd c02c 	ldr.w	ip, [sp, #44]	; 0x2c
 8002276:	9410      	str	r4, [sp, #64]	; 0x40
 8002278:	f8ad 3022 	strh.w	r3, [sp, #34]	; 0x22
 800227c:	f8ad 2020 	strh.w	r2, [sp, #32]
 8002280:	9a10      	ldr	r2, [sp, #64]	; 0x40
 8002282:	f8bd 3022 	ldrh.w	r3, [sp, #34]	; 0x22
 8002286:	f8cd c02c 	str.w	ip, [sp, #44]	; 0x2c
 800228a:	eb02 0783 	add.w	r7, r2, r3, lsl #2
 800228e:	9a09      	ldr	r2, [sp, #36]	; 0x24
 8002290:	9b0e      	ldr	r3, [sp, #56]	; 0x38
 8002292:	f8dd c034 	ldr.w	ip, [sp, #52]	; 0x34
 8002296:	f8ad e028 	strh.w	lr, [sp, #40]	; 0x28
 800229a:	ea4f 0488 	mov.w	r4, r8, lsl #2
 800229e:	f8cd 803c 	str.w	r8, [sp, #60]	; 0x3c
 80022a2:	2800      	cmp	r0, #0
 80022a4:	bf0c      	ite	eq
 80022a6:	f8dd 803c 	ldreq.w	r8, [sp, #60]	; 0x3c
 80022aa:	f8bd 8028 	ldrhne.w	r8, [sp, #40]	; 0x28
 80022ae:	fa1f fb88 	uxth.w	fp, r8
 80022b2:	f8dd e02c 	ldr.w	lr, [sp, #44]	; 0x2c
 80022b6:	f1bb 0f00 	cmp.w	fp, #0
 80022ba:	ed9f 1a9a 	vldr	s2, [pc, #616]	; 8002524 <.text_16>
 80022be:	d019      	beq.n	80022f4 <forward_gemm+0x220>
 80022c0:	2800      	cmp	r0, #0
 80022c2:	bf0c      	ite	eq
 80022c4:	f04f 0b04 	moveq.w	fp, #4
 80022c8:	46a3      	movne	fp, r4
 80022ca:	2d00      	cmp	r5, #0
 80022cc:	f1a8 0801 	sub.w	r8, r8, #1
 80022d0:	edde 1a00 	vldr	s3, [lr]
 80022d4:	ed93 2a00 	vldr	s4, [r3]
 80022d8:	44de      	add	lr, fp
 80022da:	bf0c      	ite	eq
 80022dc:	ea4f 0b81 	moveq.w	fp, r1, lsl #2
 80022e0:	f04f 0b04 	movne.w	fp, #4
 80022e4:	445b      	add	r3, fp
 80022e6:	fa1f fb88 	uxth.w	fp, r8
 80022ea:	f1bb 0f00 	cmp.w	fp, #0
 80022ee:	ee01 1a82 	vmla.f32	s2, s3, s4
 80022f2:	d1e5      	bne.n	80022c0 <forward_gemm+0x1ec>
 80022f4:	ee20 1a81 	vmul.f32	s2, s1, s2
 80022f8:	edd6 1a00 	vldr	s3, [r6]
 80022fc:	ee00 1a21 	vmla.f32	s2, s0, s3
 8002300:	ed87 1a00 	vstr	s2, [r7]
 8002304:	1d3f      	adds	r7, r7, #4
 8002306:	1e52      	subs	r2, r2, #1
 8002308:	b292      	uxth	r2, r2
 800230a:	002b      	movs	r3, r5
 800230c:	bf0e      	itee	eq
 800230e:	1a8b      	subeq	r3, r1, r2
 8002310:	ebaa 0302 	subne.w	r3, sl, r2
 8002314:	434b      	mulne	r3, r1
 8002316:	2a00      	cmp	r2, #0
 8002318:	444e      	add	r6, r9
 800231a:	eb0c 0383 	add.w	r3, ip, r3, lsl #2
 800231e:	d1c0      	bne.n	80022a2 <forward_gemm+0x1ce>
 8002320:	f8bd 7022 	ldrh.w	r7, [sp, #34]	; 0x22
 8002324:	9b09      	ldr	r3, [sp, #36]	; 0x24
 8002326:	9a0b      	ldr	r2, [sp, #44]	; 0x2c
 8002328:	f8bd e028 	ldrh.w	lr, [sp, #40]	; 0x28
 800232c:	f8dd 803c 	ldr.w	r8, [sp, #60]	; 0x3c
 8002330:	f8cd c034 	str.w	ip, [sp, #52]	; 0x34
 8002334:	19df      	adds	r7, r3, r7
 8002336:	f8ad 7022 	strh.w	r7, [sp, #34]	; 0x22
 800233a:	b100      	cbz	r0, 800233e <forward_gemm+0x26a>
 800233c:	2404      	movs	r4, #4
 800233e:	eb02 0c04 	add.w	ip, r2, r4
 8002342:	f8bd 4020 	ldrh.w	r4, [sp, #32]
 8002346:	9a0c      	ldr	r2, [sp, #48]	; 0x30
 8002348:	1e67      	subs	r7, r4, #1
 800234a:	eb06 0682 	add.w	r6, r6, r2, lsl #2
 800234e:	f8ad 7020 	strh.w	r7, [sp, #32]
 8002352:	f8bd 2020 	ldrh.w	r2, [sp, #32]
 8002356:	2a00      	cmp	r2, #0
 8002358:	d192      	bne.n	8002280 <forward_gemm+0x1ac>
 800235a:	b011      	add	sp, #68	; 0x44
 800235c:	e8bd 8ff0 	ldmia.w	sp!, {r4, r5, r6, r7, r8, r9, sl, fp, pc}
 8002360:	fb0b f606 	mul.w	r6, fp, r6
 8002364:	2e00      	cmp	r6, #0
 8002366:	ddf8      	ble.n	800235a <forward_gemm+0x286>
 8002368:	f016 0003 	ands.w	r0, r6, #3
 800236c:	d003      	beq.n	8002376 <forward_gemm+0x2a2>
 800236e:	1e40      	subs	r0, r0, #1
 8002370:	f844 3b04 	str.w	r3, [r4], #4
 8002374:	d1fb      	bne.n	800236e <forward_gemm+0x29a>
 8002376:	08b1      	lsrs	r1, r6, #2
 8002378:	d0ef      	beq.n	800235a <forward_gemm+0x286>
 800237a:	6023      	str	r3, [r4, #0]
 800237c:	6063      	str	r3, [r4, #4]
 800237e:	60a3      	str	r3, [r4, #8]
 8002380:	60e3      	str	r3, [r4, #12]
 8002382:	3410      	adds	r4, #16
 8002384:	1e49      	subs	r1, r1, #1
 8002386:	d1f8      	bne.n	800237a <forward_gemm+0x2a6>
 8002388:	b011      	add	sp, #68	; 0x44
 800238a:	e8bd 8ff0 	ldmia.w	sp!, {r4, r5, r6, r7, r8, r9, sl, fp, pc}
	...

08002390 <forward_matmul>:
 8002390:	e92d 4ff0 	stmdb	sp!, {r4, r5, r6, r7, r8, r9, sl, fp, lr}
 8002394:	b08b      	sub	sp, #44	; 0x2c
 8002396:	6944      	ldr	r4, [r0, #20]
 8002398:	8822      	ldrh	r2, [r4, #0]
 800239a:	2a00      	cmp	r2, #0
 800239c:	bf1a      	itte	ne
 800239e:	6860      	ldrne	r0, [r4, #4]
 80023a0:	1d03      	addne	r3, r0, #4
 80023a2:	2304      	moveq	r3, #4
 80023a4:	6819      	ldr	r1, [r3, #0]
 80023a6:	2900      	cmp	r1, #0
 80023a8:	bf14      	ite	ne
 80023aa:	6808      	ldrne	r0, [r1, #0]
 80023ac:	2000      	moveq	r0, #0
 80023ae:	2900      	cmp	r1, #0
 80023b0:	bf14      	ite	ne
 80023b2:	f8d1 b004 	ldrne.w	fp, [r1, #4]
 80023b6:	f04f 0b00 	moveq.w	fp, #0
 80023ba:	2a02      	cmp	r2, #2
 80023bc:	bfa6      	itte	ge
 80023be:	6861      	ldrge	r1, [r4, #4]
 80023c0:	3110      	addge	r1, #16
 80023c2:	2104      	movlt	r1, #4
 80023c4:	6809      	ldr	r1, [r1, #0]
 80023c6:	2900      	cmp	r1, #0
 80023c8:	bf14      	ite	ne
 80023ca:	680b      	ldrne	r3, [r1, #0]
 80023cc:	2300      	moveq	r3, #0
 80023ce:	f1bb 0f00 	cmp.w	fp, #0
 80023d2:	d108      	bne.n	80023e6 <forward_matmul+0x56>
 80023d4:	2a02      	cmp	r2, #2
 80023d6:	bfc6      	itte	gt
 80023d8:	6861      	ldrgt	r1, [r4, #4]
 80023da:	311c      	addgt	r1, #28
 80023dc:	2104      	movle	r1, #4
 80023de:	6809      	ldr	r1, [r1, #0]
 80023e0:	b109      	cbz	r1, 80023e6 <forward_matmul+0x56>
 80023e2:	f8d1 b000 	ldr.w	fp, [r1]
 80023e6:	68dd      	ldr	r5, [r3, #12]
 80023e8:	68c4      	ldr	r4, [r0, #12]
 80023ea:	f8db 900c 	ldr.w	r9, [fp, #12]
 80023ee:	686e      	ldr	r6, [r5, #4]
 80023f0:	f8d4 e000 	ldr.w	lr, [r4]
 80023f4:	f8d9 2000 	ldr.w	r2, [r9]
 80023f8:	f8d5 a000 	ldr.w	sl, [r5]
 80023fc:	68a1      	ldr	r1, [r4, #8]
 80023fe:	f8d9 8008 	ldr.w	r8, [r9, #8]
 8002402:	f8d5 c008 	ldr.w	ip, [r5, #8]
 8002406:	68ef      	ldr	r7, [r5, #12]
 8002408:	9706      	str	r7, [sp, #24]
 800240a:	fb01 f50e 	mul.w	r5, r1, lr
 800240e:	699b      	ldr	r3, [r3, #24]
 8002410:	68e7      	ldr	r7, [r4, #12]
 8002412:	689b      	ldr	r3, [r3, #8]
 8002414:	434f      	muls	r7, r1
 8002416:	fb0e f707 	mul.w	r7, lr, r7
 800241a:	970a      	str	r7, [sp, #40]	; 0x28
 800241c:	f8d9 400c 	ldr.w	r4, [r9, #12]
 8002420:	fb08 f404 	mul.w	r4, r8, r4
 8002424:	4354      	muls	r4, r2
 8002426:	2e00      	cmp	r6, #0
 8002428:	9409      	str	r4, [sp, #36]	; 0x24
 800242a:	fb08 f802 	mul.w	r8, r8, r2
 800242e:	d074      	beq.n	800251a <forward_matmul+0x18a>
 8002430:	2400      	movs	r4, #0
 8002432:	46a1      	mov	r9, r4
 8002434:	9602      	str	r6, [sp, #8]
 8002436:	9e06      	ldr	r6, [sp, #24]
 8002438:	2e00      	cmp	r6, #0
 800243a:	d064      	beq.n	8002506 <forward_matmul+0x176>
 800243c:	9f06      	ldr	r7, [sp, #24]
 800243e:	9701      	str	r7, [sp, #4]
 8002440:	f8cd c00c 	str.w	ip, [sp, #12]
 8002444:	2600      	movs	r6, #0
 8002446:	9505      	str	r5, [sp, #20]
 8002448:	9d03      	ldr	r5, [sp, #12]
 800244a:	2d00      	cmp	r5, #0
 800244c:	d051      	beq.n	80024f2 <forward_matmul+0x162>
 800244e:	9500      	str	r5, [sp, #0]
 8002450:	f8cd a010 	str.w	sl, [sp, #16]
 8002454:	9207      	str	r2, [sp, #28]
 8002456:	f04f 0a00 	mov.w	sl, #0
 800245a:	9a04      	ldr	r2, [sp, #16]
 800245c:	2a00      	cmp	r2, #0
 800245e:	d03f      	beq.n	80024e0 <forward_matmul+0x150>
 8002460:	f04f 0c00 	mov.w	ip, #0
 8002464:	9008      	str	r0, [sp, #32]
 8002466:	9808      	ldr	r0, [sp, #32]
 8002468:	6985      	ldr	r5, [r0, #24]
 800246a:	68a8      	ldr	r0, [r5, #8]
 800246c:	f8db 7018 	ldr.w	r7, [fp, #24]
 8002470:	4420      	add	r0, r4
 8002472:	4430      	add	r0, r6
 8002474:	eb00 050c 	add.w	r5, r0, ip
 8002478:	68b8      	ldr	r0, [r7, #8]
 800247a:	4448      	add	r0, r9
 800247c:	4450      	add	r0, sl
 800247e:	eb00 070c 	add.w	r7, r0, ip
 8002482:	ed9f 0a28 	vldr	s0, [pc, #160]	; 8002524 <.text_16>
 8002486:	b319      	cbz	r1, 80024d0 <forward_matmul+0x140>
 8002488:	07c8      	lsls	r0, r1, #31
 800248a:	d509      	bpl.n	80024a0 <forward_matmul+0x110>
 800248c:	edd5 0a00 	vldr	s1, [r5]
 8002490:	ed97 1a00 	vldr	s2, [r7]
 8002494:	ee00 0a81 	vmla.f32	s0, s1, s2
 8002498:	eb05 058e 	add.w	r5, r5, lr, lsl #2
 800249c:	eb07 0788 	add.w	r7, r7, r8, lsl #2
 80024a0:	0848      	lsrs	r0, r1, #1
 80024a2:	d015      	beq.n	80024d0 <forward_matmul+0x140>
 80024a4:	edd5 0a00 	vldr	s1, [r5]
 80024a8:	ed97 1a00 	vldr	s2, [r7]
 80024ac:	eb05 058e 	add.w	r5, r5, lr, lsl #2
 80024b0:	eb07 0788 	add.w	r7, r7, r8, lsl #2
 80024b4:	ee00 0a81 	vmla.f32	s0, s1, s2
 80024b8:	edd5 0a00 	vldr	s1, [r5]
 80024bc:	ed97 1a00 	vldr	s2, [r7]
 80024c0:	1e40      	subs	r0, r0, #1
 80024c2:	ee00 0a81 	vmla.f32	s0, s1, s2
 80024c6:	eb05 058e 	add.w	r5, r5, lr, lsl #2
 80024ca:	eb07 0788 	add.w	r7, r7, r8, lsl #2
 80024ce:	d1e9      	bne.n	80024a4 <forward_matmul+0x114>
 80024d0:	ed83 0a00 	vstr	s0, [r3]
 80024d4:	1d1b      	adds	r3, r3, #4
 80024d6:	1e52      	subs	r2, r2, #1
 80024d8:	f10c 0c04 	add.w	ip, ip, #4
 80024dc:	d1c3      	bne.n	8002466 <forward_matmul+0xd6>
 80024de:	9808      	ldr	r0, [sp, #32]
 80024e0:	9d00      	ldr	r5, [sp, #0]
 80024e2:	9a07      	ldr	r2, [sp, #28]
 80024e4:	1e6d      	subs	r5, r5, #1
 80024e6:	eb0a 0a82 	add.w	sl, sl, r2, lsl #2
 80024ea:	9500      	str	r5, [sp, #0]
 80024ec:	d1b5      	bne.n	800245a <forward_matmul+0xca>
 80024ee:	f8dd a010 	ldr.w	sl, [sp, #16]
 80024f2:	9f01      	ldr	r7, [sp, #4]
 80024f4:	9d05      	ldr	r5, [sp, #20]
 80024f6:	1e7f      	subs	r7, r7, #1
 80024f8:	eb06 0685 	add.w	r6, r6, r5, lsl #2
 80024fc:	9701      	str	r7, [sp, #4]
 80024fe:	d1a3      	bne.n	8002448 <forward_matmul+0xb8>
 8002500:	f8dd c00c 	ldr.w	ip, [sp, #12]
 8002504:	9d05      	ldr	r5, [sp, #20]
 8002506:	9e09      	ldr	r6, [sp, #36]	; 0x24
 8002508:	9f0a      	ldr	r7, [sp, #40]	; 0x28
 800250a:	eb09 0986 	add.w	r9, r9, r6, lsl #2
 800250e:	9e02      	ldr	r6, [sp, #8]
 8002510:	1e76      	subs	r6, r6, #1
 8002512:	eb04 0487 	add.w	r4, r4, r7, lsl #2
 8002516:	9602      	str	r6, [sp, #8]
 8002518:	d18d      	bne.n	8002436 <forward_matmul+0xa6>
 800251a:	b00b      	add	sp, #44	; 0x2c
 800251c:	e8bd 8ff0 	ldmia.w	sp!, {r4, r5, r6, r7, r8, r9, sl, fp, pc}

08002520 <.text_15>:
 8002520:	0800133b 	.word	0x0800133b

08002524 <.text_16>:
 8002524:	00000000 	.word	0x00000000

08002528 <ai_shape_get_size>:
 8002528:	b470      	push	{r4, r5, r6}
 800252a:	4601      	mov	r1, r0
 800252c:	f04f 0201 	mov.w	r2, #1
 8002530:	680b      	ldr	r3, [r1, #0]
 8002532:	0a1b      	lsrs	r3, r3, #8
 8002534:	d01e      	beq.n	8002574 <ai_shape_get_size+0x4c>
 8002536:	684c      	ldr	r4, [r1, #4]
 8002538:	eb04 0183 	add.w	r1, r4, r3, lsl #2
 800253c:	4618      	mov	r0, r3
 800253e:	1f0d      	subs	r5, r1, #4
 8002540:	f010 0103 	ands.w	r1, r0, #3
 8002544:	f000 8006 	beq.w	8002554 <ai_shape_get_size+0x2c>
 8002548:	f855 6904 	ldr.w	r6, [r5], #-4
 800254c:	1e5b      	subs	r3, r3, #1
 800254e:	4372      	muls	r2, r6
 8002550:	1e49      	subs	r1, r1, #1
 8002552:	d1f9      	bne.n	8002548 <ai_shape_get_size+0x20>
 8002554:	0880      	lsrs	r0, r0, #2
 8002556:	d00d      	beq.n	8002574 <ai_shape_get_size+0x4c>
 8002558:	eb04 0183 	add.w	r1, r4, r3, lsl #2
 800255c:	3910      	subs	r1, #16
 800255e:	68cb      	ldr	r3, [r1, #12]
 8002560:	688c      	ldr	r4, [r1, #8]
 8002562:	684d      	ldr	r5, [r1, #4]
 8002564:	f851 6910 	ldr.w	r6, [r1], #-16
 8002568:	4363      	muls	r3, r4
 800256a:	436b      	muls	r3, r5
 800256c:	4373      	muls	r3, r6
 800256e:	435a      	muls	r2, r3
 8002570:	1e40      	subs	r0, r0, #1
 8002572:	d1f4      	bne.n	800255e <ai_shape_get_size+0x36>
 8002574:	bc70      	pop	{r4, r5, r6}
 8002576:	4610      	mov	r0, r2
 8002578:	4770      	bx	lr
	...

0800257c <nl_func_acos_array_f32>:
 800257c:	b570      	push	{r4, r5, r6, lr}
 800257e:	688c      	ldr	r4, [r1, #8]
 8002580:	6880      	ldr	r0, [r0, #8]
 8002582:	eb04 0182 	add.w	r1, r4, r2, lsl #2
 8002586:	1f0d      	subs	r5, r1, #4
 8002588:	eb00 0182 	add.w	r1, r0, r2, lsl #2
 800258c:	1f0e      	subs	r6, r1, #4
 800258e:	42a5      	cmp	r5, r4
 8002590:	f0c0 800a 	bcc.w	80025a8 <nl_func_acos_array_f32+0x2c>
 8002594:	ed95 0a00 	vldr	s0, [r5]
 8002598:	f006 ffb6 	bl	8009508 <acosf>
 800259c:	ed86 0a00 	vstr	s0, [r6]
 80025a0:	1f2d      	subs	r5, r5, #4
 80025a2:	1f36      	subs	r6, r6, #4
 80025a4:	42a5      	cmp	r5, r4
 80025a6:	d2f5      	bcs.n	8002594 <nl_func_acos_array_f32+0x18>
 80025a8:	bd70      	pop	{r4, r5, r6, pc}
	...

080025ac <forward_acos>:
 80025ac:	b5f0      	push	{r4, r5, r6, r7, lr}
 80025ae:	b081      	sub	sp, #4
 80025b0:	6942      	ldr	r2, [r0, #20]
 80025b2:	8811      	ldrh	r1, [r2, #0]
 80025b4:	2900      	cmp	r1, #0
 80025b6:	bf1a      	itte	ne
 80025b8:	6850      	ldrne	r0, [r2, #4]
 80025ba:	1d00      	addne	r0, r0, #4
 80025bc:	2004      	moveq	r0, #4
 80025be:	f04f 0501 	mov.w	r5, #1
 80025c2:	6800      	ldr	r0, [r0, #0]
 80025c4:	2800      	cmp	r0, #0
 80025c6:	bf14      	ite	ne
 80025c8:	6803      	ldrne	r3, [r0, #0]
 80025ca:	2300      	moveq	r3, #0
 80025cc:	2902      	cmp	r1, #2
 80025ce:	bfa6      	itte	ge
 80025d0:	6850      	ldrge	r0, [r2, #4]
 80025d2:	3010      	addge	r0, #16
 80025d4:	2004      	movlt	r0, #4
 80025d6:	6800      	ldr	r0, [r0, #0]
 80025d8:	2800      	cmp	r0, #0
 80025da:	bf19      	ittee	ne
 80025dc:	6800      	ldrne	r0, [r0, #0]
 80025de:	f100 0418 	addne.w	r4, r0, #24
 80025e2:	2100      	moveq	r1, #0
 80025e4:	f101 0418 	addeq.w	r4, r1, #24
 80025e8:	f103 0108 	add.w	r1, r3, #8
 80025ec:	680a      	ldr	r2, [r1, #0]
 80025ee:	0a12      	lsrs	r2, r2, #8
 80025f0:	d01e      	beq.n	8002630 <forward_acos+0x84>
 80025f2:	684e      	ldr	r6, [r1, #4]
 80025f4:	eb06 0182 	add.w	r1, r6, r2, lsl #2
 80025f8:	4610      	mov	r0, r2
 80025fa:	1f0f      	subs	r7, r1, #4
 80025fc:	f010 0103 	ands.w	r1, r0, #3
 8002600:	d006      	beq.n	8002610 <forward_acos+0x64>
 8002602:	1e52      	subs	r2, r2, #1
 8002604:	f857 c904 	ldr.w	ip, [r7], #-4
 8002608:	1e49      	subs	r1, r1, #1
 800260a:	fb0c f505 	mul.w	r5, ip, r5
 800260e:	d1f8      	bne.n	8002602 <forward_acos+0x56>
 8002610:	0880      	lsrs	r0, r0, #2
 8002612:	d00d      	beq.n	8002630 <forward_acos+0x84>
 8002614:	eb06 0182 	add.w	r1, r6, r2, lsl #2
 8002618:	3910      	subs	r1, #16
 800261a:	68ca      	ldr	r2, [r1, #12]
 800261c:	688e      	ldr	r6, [r1, #8]
 800261e:	684f      	ldr	r7, [r1, #4]
 8002620:	4372      	muls	r2, r6
 8002622:	f851 6910 	ldr.w	r6, [r1], #-16
 8002626:	437a      	muls	r2, r7
 8002628:	4372      	muls	r2, r6
 800262a:	4355      	muls	r5, r2
 800262c:	1e40      	subs	r0, r0, #1
 800262e:	d1f4      	bne.n	800261a <forward_acos+0x6e>
 8002630:	6998      	ldr	r0, [r3, #24]
 8002632:	6886      	ldr	r6, [r0, #8]
 8002634:	6821      	ldr	r1, [r4, #0]
 8002636:	eb06 0085 	add.w	r0, r6, r5, lsl #2
 800263a:	1f07      	subs	r7, r0, #4
 800263c:	6888      	ldr	r0, [r1, #8]
 800263e:	eb00 0285 	add.w	r2, r0, r5, lsl #2
 8002642:	1f14      	subs	r4, r2, #4
 8002644:	42b7      	cmp	r7, r6
 8002646:	d309      	bcc.n	800265c <forward_acos+0xb0>
 8002648:	ed97 0a00 	vldr	s0, [r7]
 800264c:	f006 ff5c 	bl	8009508 <acosf>
 8002650:	ed84 0a00 	vstr	s0, [r4]
 8002654:	1f3f      	subs	r7, r7, #4
 8002656:	1f24      	subs	r4, r4, #4
 8002658:	42b7      	cmp	r7, r6
 800265a:	d2f5      	bcs.n	8002648 <forward_acos+0x9c>
 800265c:	b001      	add	sp, #4
 800265e:	bdf0      	pop	{r4, r5, r6, r7, pc}

08002660 <nl_func_acosh_array_f32>:
 8002660:	b570      	push	{r4, r5, r6, lr}
 8002662:	688c      	ldr	r4, [r1, #8]
 8002664:	6880      	ldr	r0, [r0, #8]
 8002666:	eb04 0182 	add.w	r1, r4, r2, lsl #2
 800266a:	1f0d      	subs	r5, r1, #4
 800266c:	eb00 0182 	add.w	r1, r0, r2, lsl #2
 8002670:	1f0e      	subs	r6, r1, #4
 8002672:	42a5      	cmp	r5, r4
 8002674:	f0c0 800a 	bcc.w	800268c <nl_func_acosh_array_f32+0x2c>
 8002678:	ed95 0a00 	vldr	s0, [r5]
 800267c:	f006 ff9c 	bl	80095b8 <acoshf>
 8002680:	ed86 0a00 	vstr	s0, [r6]
 8002684:	1f2d      	subs	r5, r5, #4
 8002686:	1f36      	subs	r6, r6, #4
 8002688:	42a5      	cmp	r5, r4
 800268a:	d2f5      	bcs.n	8002678 <nl_func_acosh_array_f32+0x18>
 800268c:	bd70      	pop	{r4, r5, r6, pc}
	...

08002690 <forward_acosh>:
 8002690:	b5f0      	push	{r4, r5, r6, r7, lr}
 8002692:	b081      	sub	sp, #4
 8002694:	6942      	ldr	r2, [r0, #20]
 8002696:	8811      	ldrh	r1, [r2, #0]
 8002698:	2900      	cmp	r1, #0
 800269a:	bf1a      	itte	ne
 800269c:	6850      	ldrne	r0, [r2, #4]
 800269e:	1d00      	addne	r0, r0, #4
 80026a0:	2004      	moveq	r0, #4
 80026a2:	f04f 0501 	mov.w	r5, #1
 80026a6:	6800      	ldr	r0, [r0, #0]
 80026a8:	2800      	cmp	r0, #0
 80026aa:	bf14      	ite	ne
 80026ac:	6803      	ldrne	r3, [r0, #0]
 80026ae:	2300      	moveq	r3, #0
 80026b0:	2902      	cmp	r1, #2
 80026b2:	bfa6      	itte	ge
 80026b4:	6850      	ldrge	r0, [r2, #4]
 80026b6:	3010      	addge	r0, #16
 80026b8:	2004      	movlt	r0, #4
 80026ba:	6800      	ldr	r0, [r0, #0]
 80026bc:	2800      	cmp	r0, #0
 80026be:	bf19      	ittee	ne
 80026c0:	6800      	ldrne	r0, [r0, #0]
 80026c2:	f100 0418 	addne.w	r4, r0, #24
 80026c6:	2100      	moveq	r1, #0
 80026c8:	f101 0418 	addeq.w	r4, r1, #24
 80026cc:	f103 0108 	add.w	r1, r3, #8
 80026d0:	680a      	ldr	r2, [r1, #0]
 80026d2:	0a12      	lsrs	r2, r2, #8
 80026d4:	d01e      	beq.n	8002714 <forward_acosh+0x84>
 80026d6:	684e      	ldr	r6, [r1, #4]
 80026d8:	eb06 0182 	add.w	r1, r6, r2, lsl #2
 80026dc:	4610      	mov	r0, r2
 80026de:	1f0f      	subs	r7, r1, #4
 80026e0:	f010 0103 	ands.w	r1, r0, #3
 80026e4:	d006      	beq.n	80026f4 <forward_acosh+0x64>
 80026e6:	1e52      	subs	r2, r2, #1
 80026e8:	f857 c904 	ldr.w	ip, [r7], #-4
 80026ec:	1e49      	subs	r1, r1, #1
 80026ee:	fb0c f505 	mul.w	r5, ip, r5
 80026f2:	d1f8      	bne.n	80026e6 <forward_acosh+0x56>
 80026f4:	0880      	lsrs	r0, r0, #2
 80026f6:	d00d      	beq.n	8002714 <forward_acosh+0x84>
 80026f8:	eb06 0182 	add.w	r1, r6, r2, lsl #2
 80026fc:	3910      	subs	r1, #16
 80026fe:	68ca      	ldr	r2, [r1, #12]
 8002700:	688e      	ldr	r6, [r1, #8]
 8002702:	684f      	ldr	r7, [r1, #4]
 8002704:	4372      	muls	r2, r6
 8002706:	f851 6910 	ldr.w	r6, [r1], #-16
 800270a:	437a      	muls	r2, r7
 800270c:	4372      	muls	r2, r6
 800270e:	4355      	muls	r5, r2
 8002710:	1e40      	subs	r0, r0, #1
 8002712:	d1f4      	bne.n	80026fe <forward_acosh+0x6e>
 8002714:	6998      	ldr	r0, [r3, #24]
 8002716:	6886      	ldr	r6, [r0, #8]
 8002718:	6821      	ldr	r1, [r4, #0]
 800271a:	eb06 0085 	add.w	r0, r6, r5, lsl #2
 800271e:	1f07      	subs	r7, r0, #4
 8002720:	6888      	ldr	r0, [r1, #8]
 8002722:	eb00 0285 	add.w	r2, r0, r5, lsl #2
 8002726:	1f14      	subs	r4, r2, #4
 8002728:	42b7      	cmp	r7, r6
 800272a:	d309      	bcc.n	8002740 <forward_acosh+0xb0>
 800272c:	ed97 0a00 	vldr	s0, [r7]
 8002730:	f006 ff42 	bl	80095b8 <acoshf>
 8002734:	ed84 0a00 	vstr	s0, [r4]
 8002738:	1f3f      	subs	r7, r7, #4
 800273a:	1f24      	subs	r4, r4, #4
 800273c:	42b7      	cmp	r7, r6
 800273e:	d2f5      	bcs.n	800272c <forward_acosh+0x9c>
 8002740:	b001      	add	sp, #4
 8002742:	bdf0      	pop	{r4, r5, r6, r7, pc}

08002744 <nl_func_asin_array_f32>:
 8002744:	b570      	push	{r4, r5, r6, lr}
 8002746:	688c      	ldr	r4, [r1, #8]
 8002748:	6880      	ldr	r0, [r0, #8]
 800274a:	eb04 0182 	add.w	r1, r4, r2, lsl #2
 800274e:	1f0d      	subs	r5, r1, #4
 8002750:	eb00 0182 	add.w	r1, r0, r2, lsl #2
 8002754:	1f0e      	subs	r6, r1, #4
 8002756:	42a5      	cmp	r5, r4
 8002758:	f0c0 800a 	bcc.w	8002770 <nl_func_asin_array_f32+0x2c>
 800275c:	ed95 0a00 	vldr	s0, [r5]
 8002760:	f006 ff7a 	bl	8009658 <asinf>
 8002764:	ed86 0a00 	vstr	s0, [r6]
 8002768:	1f2d      	subs	r5, r5, #4
 800276a:	1f36      	subs	r6, r6, #4
 800276c:	42a5      	cmp	r5, r4
 800276e:	d2f5      	bcs.n	800275c <nl_func_asin_array_f32+0x18>
 8002770:	bd70      	pop	{r4, r5, r6, pc}
	...

08002774 <forward_asin>:
 8002774:	b5f0      	push	{r4, r5, r6, r7, lr}
 8002776:	b081      	sub	sp, #4
 8002778:	6942      	ldr	r2, [r0, #20]
 800277a:	8811      	ldrh	r1, [r2, #0]
 800277c:	2900      	cmp	r1, #0
 800277e:	bf1a      	itte	ne
 8002780:	6850      	ldrne	r0, [r2, #4]
 8002782:	1d00      	addne	r0, r0, #4
 8002784:	2004      	moveq	r0, #4
 8002786:	f04f 0501 	mov.w	r5, #1
 800278a:	6800      	ldr	r0, [r0, #0]
 800278c:	2800      	cmp	r0, #0
 800278e:	bf14      	ite	ne
 8002790:	6803      	ldrne	r3, [r0, #0]
 8002792:	2300      	moveq	r3, #0
 8002794:	2902      	cmp	r1, #2
 8002796:	bfa6      	itte	ge
 8002798:	6850      	ldrge	r0, [r2, #4]
 800279a:	3010      	addge	r0, #16
 800279c:	2004      	movlt	r0, #4
 800279e:	6800      	ldr	r0, [r0, #0]
 80027a0:	2800      	cmp	r0, #0
 80027a2:	bf19      	ittee	ne
 80027a4:	6800      	ldrne	r0, [r0, #0]
 80027a6:	f100 0418 	addne.w	r4, r0, #24
 80027aa:	2100      	moveq	r1, #0
 80027ac:	f101 0418 	addeq.w	r4, r1, #24
 80027b0:	f103 0108 	add.w	r1, r3, #8
 80027b4:	680a      	ldr	r2, [r1, #0]
 80027b6:	0a12      	lsrs	r2, r2, #8
 80027b8:	d01e      	beq.n	80027f8 <forward_asin+0x84>
 80027ba:	684e      	ldr	r6, [r1, #4]
 80027bc:	eb06 0182 	add.w	r1, r6, r2, lsl #2
 80027c0:	4610      	mov	r0, r2
 80027c2:	1f0f      	subs	r7, r1, #4
 80027c4:	f010 0103 	ands.w	r1, r0, #3
 80027c8:	d006      	beq.n	80027d8 <forward_asin+0x64>
 80027ca:	1e52      	subs	r2, r2, #1
 80027cc:	f857 c904 	ldr.w	ip, [r7], #-4
 80027d0:	1e49      	subs	r1, r1, #1
 80027d2:	fb0c f505 	mul.w	r5, ip, r5
 80027d6:	d1f8      	bne.n	80027ca <forward_asin+0x56>
 80027d8:	0880      	lsrs	r0, r0, #2
 80027da:	d00d      	beq.n	80027f8 <forward_asin+0x84>
 80027dc:	eb06 0182 	add.w	r1, r6, r2, lsl #2
 80027e0:	3910      	subs	r1, #16
 80027e2:	68ca      	ldr	r2, [r1, #12]
 80027e4:	688e      	ldr	r6, [r1, #8]
 80027e6:	684f      	ldr	r7, [r1, #4]
 80027e8:	4372      	muls	r2, r6
 80027ea:	f851 6910 	ldr.w	r6, [r1], #-16
 80027ee:	437a      	muls	r2, r7
 80027f0:	4372      	muls	r2, r6
 80027f2:	4355      	muls	r5, r2
 80027f4:	1e40      	subs	r0, r0, #1
 80027f6:	d1f4      	bne.n	80027e2 <forward_asin+0x6e>
 80027f8:	6998      	ldr	r0, [r3, #24]
 80027fa:	6886      	ldr	r6, [r0, #8]
 80027fc:	6821      	ldr	r1, [r4, #0]
 80027fe:	eb06 0085 	add.w	r0, r6, r5, lsl #2
 8002802:	1f07      	subs	r7, r0, #4
 8002804:	6888      	ldr	r0, [r1, #8]
 8002806:	eb00 0285 	add.w	r2, r0, r5, lsl #2
 800280a:	1f14      	subs	r4, r2, #4
 800280c:	42b7      	cmp	r7, r6
 800280e:	d309      	bcc.n	8002824 <forward_asin+0xb0>
 8002810:	ed97 0a00 	vldr	s0, [r7]
 8002814:	f006 ff20 	bl	8009658 <asinf>
 8002818:	ed84 0a00 	vstr	s0, [r4]
 800281c:	1f3f      	subs	r7, r7, #4
 800281e:	1f24      	subs	r4, r4, #4
 8002820:	42b7      	cmp	r7, r6
 8002822:	d2f5      	bcs.n	8002810 <forward_asin+0x9c>
 8002824:	b001      	add	sp, #4
 8002826:	bdf0      	pop	{r4, r5, r6, r7, pc}

08002828 <nl_func_asinh_array_f32>:
 8002828:	b570      	push	{r4, r5, r6, lr}
 800282a:	688c      	ldr	r4, [r1, #8]
 800282c:	6880      	ldr	r0, [r0, #8]
 800282e:	eb04 0182 	add.w	r1, r4, r2, lsl #2
 8002832:	1f0d      	subs	r5, r1, #4
 8002834:	eb00 0182 	add.w	r1, r0, r2, lsl #2
 8002838:	1f0e      	subs	r6, r1, #4
 800283a:	42a5      	cmp	r5, r4
 800283c:	f0c0 800a 	bcc.w	8002854 <nl_func_asinh_array_f32+0x2c>
 8002840:	ed95 0a00 	vldr	s0, [r5]
 8002844:	f006 f890 	bl	8008968 <asinhf>
 8002848:	ed86 0a00 	vstr	s0, [r6]
 800284c:	1f2d      	subs	r5, r5, #4
 800284e:	1f36      	subs	r6, r6, #4
 8002850:	42a5      	cmp	r5, r4
 8002852:	d2f5      	bcs.n	8002840 <nl_func_asinh_array_f32+0x18>
 8002854:	bd70      	pop	{r4, r5, r6, pc}
	...

08002858 <forward_asinh>:
 8002858:	b5f0      	push	{r4, r5, r6, r7, lr}
 800285a:	b081      	sub	sp, #4
 800285c:	6942      	ldr	r2, [r0, #20]
 800285e:	8811      	ldrh	r1, [r2, #0]
 8002860:	2900      	cmp	r1, #0
 8002862:	bf1a      	itte	ne
 8002864:	6850      	ldrne	r0, [r2, #4]
 8002866:	1d00      	addne	r0, r0, #4
 8002868:	2004      	moveq	r0, #4
 800286a:	f04f 0501 	mov.w	r5, #1
 800286e:	6800      	ldr	r0, [r0, #0]
 8002870:	2800      	cmp	r0, #0
 8002872:	bf14      	ite	ne
 8002874:	6803      	ldrne	r3, [r0, #0]
 8002876:	2300      	moveq	r3, #0
 8002878:	2902      	cmp	r1, #2
 800287a:	bfa6      	itte	ge
 800287c:	6850      	ldrge	r0, [r2, #4]
 800287e:	3010      	addge	r0, #16
 8002880:	2004      	movlt	r0, #4
 8002882:	6800      	ldr	r0, [r0, #0]
 8002884:	2800      	cmp	r0, #0
 8002886:	bf19      	ittee	ne
 8002888:	6800      	ldrne	r0, [r0, #0]
 800288a:	f100 0418 	addne.w	r4, r0, #24
 800288e:	2100      	moveq	r1, #0
 8002890:	f101 0418 	addeq.w	r4, r1, #24
 8002894:	f103 0108 	add.w	r1, r3, #8
 8002898:	680a      	ldr	r2, [r1, #0]
 800289a:	0a12      	lsrs	r2, r2, #8
 800289c:	d01e      	beq.n	80028dc <forward_asinh+0x84>
 800289e:	684e      	ldr	r6, [r1, #4]
 80028a0:	eb06 0182 	add.w	r1, r6, r2, lsl #2
 80028a4:	4610      	mov	r0, r2
 80028a6:	1f0f      	subs	r7, r1, #4
 80028a8:	f010 0103 	ands.w	r1, r0, #3
 80028ac:	d006      	beq.n	80028bc <forward_asinh+0x64>
 80028ae:	1e52      	subs	r2, r2, #1
 80028b0:	f857 c904 	ldr.w	ip, [r7], #-4
 80028b4:	1e49      	subs	r1, r1, #1
 80028b6:	fb0c f505 	mul.w	r5, ip, r5
 80028ba:	d1f8      	bne.n	80028ae <forward_asinh+0x56>
 80028bc:	0880      	lsrs	r0, r0, #2
 80028be:	d00d      	beq.n	80028dc <forward_asinh+0x84>
 80028c0:	eb06 0182 	add.w	r1, r6, r2, lsl #2
 80028c4:	3910      	subs	r1, #16
 80028c6:	68ca      	ldr	r2, [r1, #12]
 80028c8:	688e      	ldr	r6, [r1, #8]
 80028ca:	684f      	ldr	r7, [r1, #4]
 80028cc:	4372      	muls	r2, r6
 80028ce:	f851 6910 	ldr.w	r6, [r1], #-16
 80028d2:	437a      	muls	r2, r7
 80028d4:	4372      	muls	r2, r6
 80028d6:	4355      	muls	r5, r2
 80028d8:	1e40      	subs	r0, r0, #1
 80028da:	d1f4      	bne.n	80028c6 <forward_asinh+0x6e>
 80028dc:	6998      	ldr	r0, [r3, #24]
 80028de:	6886      	ldr	r6, [r0, #8]
 80028e0:	6821      	ldr	r1, [r4, #0]
 80028e2:	eb06 0085 	add.w	r0, r6, r5, lsl #2
 80028e6:	1f07      	subs	r7, r0, #4
 80028e8:	6888      	ldr	r0, [r1, #8]
 80028ea:	eb00 0285 	add.w	r2, r0, r5, lsl #2
 80028ee:	1f14      	subs	r4, r2, #4
 80028f0:	42b7      	cmp	r7, r6
 80028f2:	d309      	bcc.n	8002908 <forward_asinh+0xb0>
 80028f4:	ed97 0a00 	vldr	s0, [r7]
 80028f8:	f006 f836 	bl	8008968 <asinhf>
 80028fc:	ed84 0a00 	vstr	s0, [r4]
 8002900:	1f3f      	subs	r7, r7, #4
 8002902:	1f24      	subs	r4, r4, #4
 8002904:	42b7      	cmp	r7, r6
 8002906:	d2f5      	bcs.n	80028f4 <forward_asinh+0x9c>
 8002908:	b001      	add	sp, #4
 800290a:	bdf0      	pop	{r4, r5, r6, r7, pc}

0800290c <nl_func_atan_array_f32>:
 800290c:	b570      	push	{r4, r5, r6, lr}
 800290e:	688c      	ldr	r4, [r1, #8]
 8002910:	6880      	ldr	r0, [r0, #8]
 8002912:	eb04 0182 	add.w	r1, r4, r2, lsl #2
 8002916:	1f0d      	subs	r5, r1, #4
 8002918:	eb00 0182 	add.w	r1, r0, r2, lsl #2
 800291c:	1f0e      	subs	r6, r1, #4
 800291e:	42a5      	cmp	r5, r4
 8002920:	f0c0 800a 	bcc.w	8002938 <nl_func_atan_array_f32+0x2c>
 8002924:	ed95 0a00 	vldr	s0, [r5]
 8002928:	f006 f886 	bl	8008a38 <atanf>
 800292c:	ed86 0a00 	vstr	s0, [r6]
 8002930:	1f2d      	subs	r5, r5, #4
 8002932:	1f36      	subs	r6, r6, #4
 8002934:	42a5      	cmp	r5, r4
 8002936:	d2f5      	bcs.n	8002924 <nl_func_atan_array_f32+0x18>
 8002938:	bd70      	pop	{r4, r5, r6, pc}
	...

0800293c <forward_atan>:
 800293c:	b5f0      	push	{r4, r5, r6, r7, lr}
 800293e:	b081      	sub	sp, #4
 8002940:	6942      	ldr	r2, [r0, #20]
 8002942:	8811      	ldrh	r1, [r2, #0]
 8002944:	2900      	cmp	r1, #0
 8002946:	bf1a      	itte	ne
 8002948:	6850      	ldrne	r0, [r2, #4]
 800294a:	1d00      	addne	r0, r0, #4
 800294c:	2004      	moveq	r0, #4
 800294e:	f04f 0501 	mov.w	r5, #1
 8002952:	6800      	ldr	r0, [r0, #0]
 8002954:	2800      	cmp	r0, #0
 8002956:	bf14      	ite	ne
 8002958:	6803      	ldrne	r3, [r0, #0]
 800295a:	2300      	moveq	r3, #0
 800295c:	2902      	cmp	r1, #2
 800295e:	bfa6      	itte	ge
 8002960:	6850      	ldrge	r0, [r2, #4]
 8002962:	3010      	addge	r0, #16
 8002964:	2004      	movlt	r0, #4
 8002966:	6800      	ldr	r0, [r0, #0]
 8002968:	2800      	cmp	r0, #0
 800296a:	bf19      	ittee	ne
 800296c:	6800      	ldrne	r0, [r0, #0]
 800296e:	f100 0418 	addne.w	r4, r0, #24
 8002972:	2100      	moveq	r1, #0
 8002974:	f101 0418 	addeq.w	r4, r1, #24
 8002978:	f103 0108 	add.w	r1, r3, #8
 800297c:	680a      	ldr	r2, [r1, #0]
 800297e:	0a12      	lsrs	r2, r2, #8
 8002980:	d01e      	beq.n	80029c0 <forward_atan+0x84>
 8002982:	684e      	ldr	r6, [r1, #4]
 8002984:	eb06 0182 	add.w	r1, r6, r2, lsl #2
 8002988:	4610      	mov	r0, r2
 800298a:	1f0f      	subs	r7, r1, #4
 800298c:	f010 0103 	ands.w	r1, r0, #3
 8002990:	d006      	beq.n	80029a0 <forward_atan+0x64>
 8002992:	1e52      	subs	r2, r2, #1
 8002994:	f857 c904 	ldr.w	ip, [r7], #-4
 8002998:	1e49      	subs	r1, r1, #1
 800299a:	fb0c f505 	mul.w	r5, ip, r5
 800299e:	d1f8      	bne.n	8002992 <forward_atan+0x56>
 80029a0:	0880      	lsrs	r0, r0, #2
 80029a2:	d00d      	beq.n	80029c0 <forward_atan+0x84>
 80029a4:	eb06 0182 	add.w	r1, r6, r2, lsl #2
 80029a8:	3910      	subs	r1, #16
 80029aa:	68ca      	ldr	r2, [r1, #12]
 80029ac:	688e      	ldr	r6, [r1, #8]
 80029ae:	684f      	ldr	r7, [r1, #4]
 80029b0:	4372      	muls	r2, r6
 80029b2:	f851 6910 	ldr.w	r6, [r1], #-16
 80029b6:	437a      	muls	r2, r7
 80029b8:	4372      	muls	r2, r6
 80029ba:	4355      	muls	r5, r2
 80029bc:	1e40      	subs	r0, r0, #1
 80029be:	d1f4      	bne.n	80029aa <forward_atan+0x6e>
 80029c0:	6998      	ldr	r0, [r3, #24]
 80029c2:	6886      	ldr	r6, [r0, #8]
 80029c4:	6821      	ldr	r1, [r4, #0]
 80029c6:	eb06 0085 	add.w	r0, r6, r5, lsl #2
 80029ca:	1f07      	subs	r7, r0, #4
 80029cc:	6888      	ldr	r0, [r1, #8]
 80029ce:	eb00 0285 	add.w	r2, r0, r5, lsl #2
 80029d2:	1f14      	subs	r4, r2, #4
 80029d4:	42b7      	cmp	r7, r6
 80029d6:	d309      	bcc.n	80029ec <forward_atan+0xb0>
 80029d8:	ed97 0a00 	vldr	s0, [r7]
 80029dc:	f006 f82c 	bl	8008a38 <atanf>
 80029e0:	ed84 0a00 	vstr	s0, [r4]
 80029e4:	1f3f      	subs	r7, r7, #4
 80029e6:	1f24      	subs	r4, r4, #4
 80029e8:	42b7      	cmp	r7, r6
 80029ea:	d2f5      	bcs.n	80029d8 <forward_atan+0x9c>
 80029ec:	b001      	add	sp, #4
 80029ee:	bdf0      	pop	{r4, r5, r6, r7, pc}

080029f0 <nl_func_atanh_array_f32>:
 80029f0:	b570      	push	{r4, r5, r6, lr}
 80029f2:	688c      	ldr	r4, [r1, #8]
 80029f4:	6880      	ldr	r0, [r0, #8]
 80029f6:	eb04 0182 	add.w	r1, r4, r2, lsl #2
 80029fa:	1f0d      	subs	r5, r1, #4
 80029fc:	eb00 0182 	add.w	r1, r0, r2, lsl #2
 8002a00:	1f0e      	subs	r6, r1, #4
 8002a02:	42a5      	cmp	r5, r4
 8002a04:	f0c0 800a 	bcc.w	8002a1c <nl_func_atanh_array_f32+0x2c>
 8002a08:	ed95 0a00 	vldr	s0, [r5]
 8002a0c:	f006 fe7c 	bl	8009708 <atanhf>
 8002a10:	ed86 0a00 	vstr	s0, [r6]
 8002a14:	1f2d      	subs	r5, r5, #4
 8002a16:	1f36      	subs	r6, r6, #4
 8002a18:	42a5      	cmp	r5, r4
 8002a1a:	d2f5      	bcs.n	8002a08 <nl_func_atanh_array_f32+0x18>
 8002a1c:	bd70      	pop	{r4, r5, r6, pc}
	...

08002a20 <forward_atanh>:
 8002a20:	b5f0      	push	{r4, r5, r6, r7, lr}
 8002a22:	b081      	sub	sp, #4
 8002a24:	6942      	ldr	r2, [r0, #20]
 8002a26:	8811      	ldrh	r1, [r2, #0]
 8002a28:	2900      	cmp	r1, #0
 8002a2a:	bf1a      	itte	ne
 8002a2c:	6850      	ldrne	r0, [r2, #4]
 8002a2e:	1d00      	addne	r0, r0, #4
 8002a30:	2004      	moveq	r0, #4
 8002a32:	f04f 0501 	mov.w	r5, #1
 8002a36:	6800      	ldr	r0, [r0, #0]
 8002a38:	2800      	cmp	r0, #0
 8002a3a:	bf14      	ite	ne
 8002a3c:	6803      	ldrne	r3, [r0, #0]
 8002a3e:	2300      	moveq	r3, #0
 8002a40:	2902      	cmp	r1, #2
 8002a42:	bfa6      	itte	ge
 8002a44:	6850      	ldrge	r0, [r2, #4]
 8002a46:	3010      	addge	r0, #16
 8002a48:	2004      	movlt	r0, #4
 8002a4a:	6800      	ldr	r0, [r0, #0]
 8002a4c:	2800      	cmp	r0, #0
 8002a4e:	bf19      	ittee	ne
 8002a50:	6800      	ldrne	r0, [r0, #0]
 8002a52:	f100 0418 	addne.w	r4, r0, #24
 8002a56:	2100      	moveq	r1, #0
 8002a58:	f101 0418 	addeq.w	r4, r1, #24
 8002a5c:	f103 0108 	add.w	r1, r3, #8
 8002a60:	680a      	ldr	r2, [r1, #0]
 8002a62:	0a12      	lsrs	r2, r2, #8
 8002a64:	d01e      	beq.n	8002aa4 <forward_atanh+0x84>
 8002a66:	684e      	ldr	r6, [r1, #4]
 8002a68:	eb06 0182 	add.w	r1, r6, r2, lsl #2
 8002a6c:	4610      	mov	r0, r2
 8002a6e:	1f0f      	subs	r7, r1, #4
 8002a70:	f010 0103 	ands.w	r1, r0, #3
 8002a74:	d006      	beq.n	8002a84 <forward_atanh+0x64>
 8002a76:	1e52      	subs	r2, r2, #1
 8002a78:	f857 c904 	ldr.w	ip, [r7], #-4
 8002a7c:	1e49      	subs	r1, r1, #1
 8002a7e:	fb0c f505 	mul.w	r5, ip, r5
 8002a82:	d1f8      	bne.n	8002a76 <forward_atanh+0x56>
 8002a84:	0880      	lsrs	r0, r0, #2
 8002a86:	d00d      	beq.n	8002aa4 <forward_atanh+0x84>
 8002a88:	eb06 0182 	add.w	r1, r6, r2, lsl #2
 8002a8c:	3910      	subs	r1, #16
 8002a8e:	68ca      	ldr	r2, [r1, #12]
 8002a90:	688e      	ldr	r6, [r1, #8]
 8002a92:	684f      	ldr	r7, [r1, #4]
 8002a94:	4372      	muls	r2, r6
 8002a96:	f851 6910 	ldr.w	r6, [r1], #-16
 8002a9a:	437a      	muls	r2, r7
 8002a9c:	4372      	muls	r2, r6
 8002a9e:	4355      	muls	r5, r2
 8002aa0:	1e40      	subs	r0, r0, #1
 8002aa2:	d1f4      	bne.n	8002a8e <forward_atanh+0x6e>
 8002aa4:	6998      	ldr	r0, [r3, #24]
 8002aa6:	6886      	ldr	r6, [r0, #8]
 8002aa8:	6821      	ldr	r1, [r4, #0]
 8002aaa:	eb06 0085 	add.w	r0, r6, r5, lsl #2
 8002aae:	1f07      	subs	r7, r0, #4
 8002ab0:	6888      	ldr	r0, [r1, #8]
 8002ab2:	eb00 0285 	add.w	r2, r0, r5, lsl #2
 8002ab6:	1f14      	subs	r4, r2, #4
 8002ab8:	42b7      	cmp	r7, r6
 8002aba:	d309      	bcc.n	8002ad0 <forward_atanh+0xb0>
 8002abc:	ed97 0a00 	vldr	s0, [r7]
 8002ac0:	f006 fe22 	bl	8009708 <atanhf>
 8002ac4:	ed84 0a00 	vstr	s0, [r4]
 8002ac8:	1f3f      	subs	r7, r7, #4
 8002aca:	1f24      	subs	r4, r4, #4
 8002acc:	42b7      	cmp	r7, r6
 8002ace:	d2f5      	bcs.n	8002abc <forward_atanh+0x9c>
 8002ad0:	b001      	add	sp, #4
 8002ad2:	bdf0      	pop	{r4, r5, r6, r7, pc}

08002ad4 <nl_func_cos_array_f32>:
 8002ad4:	b570      	push	{r4, r5, r6, lr}
 8002ad6:	688c      	ldr	r4, [r1, #8]
 8002ad8:	6880      	ldr	r0, [r0, #8]
 8002ada:	eb04 0182 	add.w	r1, r4, r2, lsl #2
 8002ade:	1f0d      	subs	r5, r1, #4
 8002ae0:	eb00 0182 	add.w	r1, r0, r2, lsl #2
 8002ae4:	1f0e      	subs	r6, r1, #4
 8002ae6:	42a5      	cmp	r5, r4
 8002ae8:	f0c0 800a 	bcc.w	8002b00 <nl_func_cos_array_f32+0x2c>
 8002aec:	ed95 0a00 	vldr	s0, [r5]
 8002af0:	f006 f8b6 	bl	8008c60 <cosf>
 8002af4:	ed86 0a00 	vstr	s0, [r6]
 8002af8:	1f2d      	subs	r5, r5, #4
 8002afa:	1f36      	subs	r6, r6, #4
 8002afc:	42a5      	cmp	r5, r4
 8002afe:	d2f5      	bcs.n	8002aec <nl_func_cos_array_f32+0x18>
 8002b00:	bd70      	pop	{r4, r5, r6, pc}
	...

08002b04 <forward_cos>:
 8002b04:	b5f0      	push	{r4, r5, r6, r7, lr}
 8002b06:	b081      	sub	sp, #4
 8002b08:	6942      	ldr	r2, [r0, #20]
 8002b0a:	8811      	ldrh	r1, [r2, #0]
 8002b0c:	2900      	cmp	r1, #0
 8002b0e:	bf1a      	itte	ne
 8002b10:	6850      	ldrne	r0, [r2, #4]
 8002b12:	1d00      	addne	r0, r0, #4
 8002b14:	2004      	moveq	r0, #4
 8002b16:	f04f 0501 	mov.w	r5, #1
 8002b1a:	6800      	ldr	r0, [r0, #0]
 8002b1c:	2800      	cmp	r0, #0
 8002b1e:	bf14      	ite	ne
 8002b20:	6803      	ldrne	r3, [r0, #0]
 8002b22:	2300      	moveq	r3, #0
 8002b24:	2902      	cmp	r1, #2
 8002b26:	bfa6      	itte	ge
 8002b28:	6850      	ldrge	r0, [r2, #4]
 8002b2a:	3010      	addge	r0, #16
 8002b2c:	2004      	movlt	r0, #4
 8002b2e:	6800      	ldr	r0, [r0, #0]
 8002b30:	2800      	cmp	r0, #0
 8002b32:	bf19      	ittee	ne
 8002b34:	6800      	ldrne	r0, [r0, #0]
 8002b36:	f100 0418 	addne.w	r4, r0, #24
 8002b3a:	2100      	moveq	r1, #0
 8002b3c:	f101 0418 	addeq.w	r4, r1, #24
 8002b40:	f103 0108 	add.w	r1, r3, #8
 8002b44:	680a      	ldr	r2, [r1, #0]
 8002b46:	0a12      	lsrs	r2, r2, #8
 8002b48:	d01e      	beq.n	8002b88 <forward_cos+0x84>
 8002b4a:	684e      	ldr	r6, [r1, #4]
 8002b4c:	eb06 0182 	add.w	r1, r6, r2, lsl #2
 8002b50:	4610      	mov	r0, r2
 8002b52:	1f0f      	subs	r7, r1, #4
 8002b54:	f010 0103 	ands.w	r1, r0, #3
 8002b58:	d006      	beq.n	8002b68 <forward_cos+0x64>
 8002b5a:	1e52      	subs	r2, r2, #1
 8002b5c:	f857 c904 	ldr.w	ip, [r7], #-4
 8002b60:	1e49      	subs	r1, r1, #1
 8002b62:	fb0c f505 	mul.w	r5, ip, r5
 8002b66:	d1f8      	bne.n	8002b5a <forward_cos+0x56>
 8002b68:	0880      	lsrs	r0, r0, #2
 8002b6a:	d00d      	beq.n	8002b88 <forward_cos+0x84>
 8002b6c:	eb06 0182 	add.w	r1, r6, r2, lsl #2
 8002b70:	3910      	subs	r1, #16
 8002b72:	68ca      	ldr	r2, [r1, #12]
 8002b74:	688e      	ldr	r6, [r1, #8]
 8002b76:	684f      	ldr	r7, [r1, #4]
 8002b78:	4372      	muls	r2, r6
 8002b7a:	f851 6910 	ldr.w	r6, [r1], #-16
 8002b7e:	437a      	muls	r2, r7
 8002b80:	4372      	muls	r2, r6
 8002b82:	4355      	muls	r5, r2
 8002b84:	1e40      	subs	r0, r0, #1
 8002b86:	d1f4      	bne.n	8002b72 <forward_cos+0x6e>
 8002b88:	6998      	ldr	r0, [r3, #24]
 8002b8a:	6886      	ldr	r6, [r0, #8]
 8002b8c:	6821      	ldr	r1, [r4, #0]
 8002b8e:	eb06 0085 	add.w	r0, r6, r5, lsl #2
 8002b92:	1f07      	subs	r7, r0, #4
 8002b94:	6888      	ldr	r0, [r1, #8]
 8002b96:	eb00 0285 	add.w	r2, r0, r5, lsl #2
 8002b9a:	1f14      	subs	r4, r2, #4
 8002b9c:	42b7      	cmp	r7, r6
 8002b9e:	d309      	bcc.n	8002bb4 <forward_cos+0xb0>
 8002ba0:	ed97 0a00 	vldr	s0, [r7]
 8002ba4:	f006 f85c 	bl	8008c60 <cosf>
 8002ba8:	ed84 0a00 	vstr	s0, [r4]
 8002bac:	1f3f      	subs	r7, r7, #4
 8002bae:	1f24      	subs	r4, r4, #4
 8002bb0:	42b7      	cmp	r7, r6
 8002bb2:	d2f5      	bcs.n	8002ba0 <forward_cos+0x9c>
 8002bb4:	b001      	add	sp, #4
 8002bb6:	bdf0      	pop	{r4, r5, r6, r7, pc}

08002bb8 <nl_func_cosh_array_f32>:
 8002bb8:	b570      	push	{r4, r5, r6, lr}
 8002bba:	688c      	ldr	r4, [r1, #8]
 8002bbc:	6880      	ldr	r0, [r0, #8]
 8002bbe:	eb04 0182 	add.w	r1, r4, r2, lsl #2
 8002bc2:	1f0d      	subs	r5, r1, #4
 8002bc4:	eb00 0182 	add.w	r1, r0, r2, lsl #2
 8002bc8:	1f0e      	subs	r6, r1, #4
 8002bca:	42a5      	cmp	r5, r4
 8002bcc:	f0c0 800a 	bcc.w	8002be4 <nl_func_cosh_array_f32+0x2c>
 8002bd0:	ed95 0a00 	vldr	s0, [r5]
 8002bd4:	f006 fe0c 	bl	80097f0 <coshf>
 8002bd8:	ed86 0a00 	vstr	s0, [r6]
 8002bdc:	1f2d      	subs	r5, r5, #4
 8002bde:	1f36      	subs	r6, r6, #4
 8002be0:	42a5      	cmp	r5, r4
 8002be2:	d2f5      	bcs.n	8002bd0 <nl_func_cosh_array_f32+0x18>
 8002be4:	bd70      	pop	{r4, r5, r6, pc}
	...

08002be8 <forward_cosh>:
 8002be8:	b5f0      	push	{r4, r5, r6, r7, lr}
 8002bea:	b081      	sub	sp, #4
 8002bec:	6942      	ldr	r2, [r0, #20]
 8002bee:	8811      	ldrh	r1, [r2, #0]
 8002bf0:	2900      	cmp	r1, #0
 8002bf2:	bf1a      	itte	ne
 8002bf4:	6850      	ldrne	r0, [r2, #4]
 8002bf6:	1d00      	addne	r0, r0, #4
 8002bf8:	2004      	moveq	r0, #4
 8002bfa:	f04f 0501 	mov.w	r5, #1
 8002bfe:	6800      	ldr	r0, [r0, #0]
 8002c00:	2800      	cmp	r0, #0
 8002c02:	bf14      	ite	ne
 8002c04:	6803      	ldrne	r3, [r0, #0]
 8002c06:	2300      	moveq	r3, #0
 8002c08:	2902      	cmp	r1, #2
 8002c0a:	bfa6      	itte	ge
 8002c0c:	6850      	ldrge	r0, [r2, #4]
 8002c0e:	3010      	addge	r0, #16
 8002c10:	2004      	movlt	r0, #4
 8002c12:	6800      	ldr	r0, [r0, #0]
 8002c14:	2800      	cmp	r0, #0
 8002c16:	bf19      	ittee	ne
 8002c18:	6800      	ldrne	r0, [r0, #0]
 8002c1a:	f100 0418 	addne.w	r4, r0, #24
 8002c1e:	2100      	moveq	r1, #0
 8002c20:	f101 0418 	addeq.w	r4, r1, #24
 8002c24:	f103 0108 	add.w	r1, r3, #8
 8002c28:	680a      	ldr	r2, [r1, #0]
 8002c2a:	0a12      	lsrs	r2, r2, #8
 8002c2c:	d01e      	beq.n	8002c6c <forward_cosh+0x84>
 8002c2e:	684e      	ldr	r6, [r1, #4]
 8002c30:	eb06 0182 	add.w	r1, r6, r2, lsl #2
 8002c34:	4610      	mov	r0, r2
 8002c36:	1f0f      	subs	r7, r1, #4
 8002c38:	f010 0103 	ands.w	r1, r0, #3
 8002c3c:	d006      	beq.n	8002c4c <forward_cosh+0x64>
 8002c3e:	1e52      	subs	r2, r2, #1
 8002c40:	f857 c904 	ldr.w	ip, [r7], #-4
 8002c44:	1e49      	subs	r1, r1, #1
 8002c46:	fb0c f505 	mul.w	r5, ip, r5
 8002c4a:	d1f8      	bne.n	8002c3e <forward_cosh+0x56>
 8002c4c:	0880      	lsrs	r0, r0, #2
 8002c4e:	d00d      	beq.n	8002c6c <forward_cosh+0x84>
 8002c50:	eb06 0182 	add.w	r1, r6, r2, lsl #2
 8002c54:	3910      	subs	r1, #16
 8002c56:	68ca      	ldr	r2, [r1, #12]
 8002c58:	688e      	ldr	r6, [r1, #8]
 8002c5a:	684f      	ldr	r7, [r1, #4]
 8002c5c:	4372      	muls	r2, r6
 8002c5e:	f851 6910 	ldr.w	r6, [r1], #-16
 8002c62:	437a      	muls	r2, r7
 8002c64:	4372      	muls	r2, r6
 8002c66:	4355      	muls	r5, r2
 8002c68:	1e40      	subs	r0, r0, #1
 8002c6a:	d1f4      	bne.n	8002c56 <forward_cosh+0x6e>
 8002c6c:	6998      	ldr	r0, [r3, #24]
 8002c6e:	6886      	ldr	r6, [r0, #8]
 8002c70:	6821      	ldr	r1, [r4, #0]
 8002c72:	eb06 0085 	add.w	r0, r6, r5, lsl #2
 8002c76:	1f07      	subs	r7, r0, #4
 8002c78:	6888      	ldr	r0, [r1, #8]
 8002c7a:	eb00 0285 	add.w	r2, r0, r5, lsl #2
 8002c7e:	1f14      	subs	r4, r2, #4
 8002c80:	42b7      	cmp	r7, r6
 8002c82:	d309      	bcc.n	8002c98 <forward_cosh+0xb0>
 8002c84:	ed97 0a00 	vldr	s0, [r7]
 8002c88:	f006 fdb2 	bl	80097f0 <coshf>
 8002c8c:	ed84 0a00 	vstr	s0, [r4]
 8002c90:	1f3f      	subs	r7, r7, #4
 8002c92:	1f24      	subs	r4, r4, #4
 8002c94:	42b7      	cmp	r7, r6
 8002c96:	d2f5      	bcs.n	8002c84 <forward_cosh+0x9c>
 8002c98:	b001      	add	sp, #4
 8002c9a:	bdf0      	pop	{r4, r5, r6, r7, pc}

08002c9c <nl_func_erf_array_f32>:
 8002c9c:	b570      	push	{r4, r5, r6, lr}
 8002c9e:	688c      	ldr	r4, [r1, #8]
 8002ca0:	6880      	ldr	r0, [r0, #8]
 8002ca2:	eb04 0182 	add.w	r1, r4, r2, lsl #2
 8002ca6:	1f0d      	subs	r5, r1, #4
 8002ca8:	eb00 0182 	add.w	r1, r0, r2, lsl #2
 8002cac:	1f0e      	subs	r6, r1, #4
 8002cae:	42a5      	cmp	r5, r4
 8002cb0:	f0c0 800a 	bcc.w	8002cc8 <nl_func_erf_array_f32+0x2c>
 8002cb4:	ed95 0a00 	vldr	s0, [r5]
 8002cb8:	f006 f812 	bl	8008ce0 <erff>
 8002cbc:	ed86 0a00 	vstr	s0, [r6]
 8002cc0:	1f2d      	subs	r5, r5, #4
 8002cc2:	1f36      	subs	r6, r6, #4
 8002cc4:	42a5      	cmp	r5, r4
 8002cc6:	d2f5      	bcs.n	8002cb4 <nl_func_erf_array_f32+0x18>
 8002cc8:	bd70      	pop	{r4, r5, r6, pc}
	...

08002ccc <forward_erf>:
 8002ccc:	b5f0      	push	{r4, r5, r6, r7, lr}
 8002cce:	b081      	sub	sp, #4
 8002cd0:	6942      	ldr	r2, [r0, #20]
 8002cd2:	8811      	ldrh	r1, [r2, #0]
 8002cd4:	2900      	cmp	r1, #0
 8002cd6:	bf1a      	itte	ne
 8002cd8:	6850      	ldrne	r0, [r2, #4]
 8002cda:	1d00      	addne	r0, r0, #4
 8002cdc:	2004      	moveq	r0, #4
 8002cde:	f04f 0501 	mov.w	r5, #1
 8002ce2:	6800      	ldr	r0, [r0, #0]
 8002ce4:	2800      	cmp	r0, #0
 8002ce6:	bf14      	ite	ne
 8002ce8:	6803      	ldrne	r3, [r0, #0]
 8002cea:	2300      	moveq	r3, #0
 8002cec:	2902      	cmp	r1, #2
 8002cee:	bfa6      	itte	ge
 8002cf0:	6850      	ldrge	r0, [r2, #4]
 8002cf2:	3010      	addge	r0, #16
 8002cf4:	2004      	movlt	r0, #4
 8002cf6:	6800      	ldr	r0, [r0, #0]
 8002cf8:	2800      	cmp	r0, #0
 8002cfa:	bf19      	ittee	ne
 8002cfc:	6800      	ldrne	r0, [r0, #0]
 8002cfe:	f100 0418 	addne.w	r4, r0, #24
 8002d02:	2100      	moveq	r1, #0
 8002d04:	f101 0418 	addeq.w	r4, r1, #24
 8002d08:	f103 0108 	add.w	r1, r3, #8
 8002d0c:	680a      	ldr	r2, [r1, #0]
 8002d0e:	0a12      	lsrs	r2, r2, #8
 8002d10:	d01e      	beq.n	8002d50 <forward_erf+0x84>
 8002d12:	684e      	ldr	r6, [r1, #4]
 8002d14:	eb06 0182 	add.w	r1, r6, r2, lsl #2
 8002d18:	4610      	mov	r0, r2
 8002d1a:	1f0f      	subs	r7, r1, #4
 8002d1c:	f010 0103 	ands.w	r1, r0, #3
 8002d20:	d006      	beq.n	8002d30 <forward_erf+0x64>
 8002d22:	1e52      	subs	r2, r2, #1
 8002d24:	f857 c904 	ldr.w	ip, [r7], #-4
 8002d28:	1e49      	subs	r1, r1, #1
 8002d2a:	fb0c f505 	mul.w	r5, ip, r5
 8002d2e:	d1f8      	bne.n	8002d22 <forward_erf+0x56>
 8002d30:	0880      	lsrs	r0, r0, #2
 8002d32:	d00d      	beq.n	8002d50 <forward_erf+0x84>
 8002d34:	eb06 0182 	add.w	r1, r6, r2, lsl #2
 8002d38:	3910      	subs	r1, #16
 8002d3a:	68ca      	ldr	r2, [r1, #12]
 8002d3c:	688e      	ldr	r6, [r1, #8]
 8002d3e:	684f      	ldr	r7, [r1, #4]
 8002d40:	4372      	muls	r2, r6
 8002d42:	f851 6910 	ldr.w	r6, [r1], #-16
 8002d46:	437a      	muls	r2, r7
 8002d48:	4372      	muls	r2, r6
 8002d4a:	4355      	muls	r5, r2
 8002d4c:	1e40      	subs	r0, r0, #1
 8002d4e:	d1f4      	bne.n	8002d3a <forward_erf+0x6e>
 8002d50:	6998      	ldr	r0, [r3, #24]
 8002d52:	6886      	ldr	r6, [r0, #8]
 8002d54:	6821      	ldr	r1, [r4, #0]
 8002d56:	eb06 0085 	add.w	r0, r6, r5, lsl #2
 8002d5a:	1f07      	subs	r7, r0, #4
 8002d5c:	6888      	ldr	r0, [r1, #8]
 8002d5e:	eb00 0285 	add.w	r2, r0, r5, lsl #2
 8002d62:	1f14      	subs	r4, r2, #4
 8002d64:	42b7      	cmp	r7, r6
 8002d66:	d309      	bcc.n	8002d7c <forward_erf+0xb0>
 8002d68:	ed97 0a00 	vldr	s0, [r7]
 8002d6c:	f005 ffb8 	bl	8008ce0 <erff>
 8002d70:	ed84 0a00 	vstr	s0, [r4]
 8002d74:	1f3f      	subs	r7, r7, #4
 8002d76:	1f24      	subs	r4, r4, #4
 8002d78:	42b7      	cmp	r7, r6
 8002d7a:	d2f5      	bcs.n	8002d68 <forward_erf+0x9c>
 8002d7c:	b001      	add	sp, #4
 8002d7e:	bdf0      	pop	{r4, r5, r6, r7, pc}

08002d80 <nl_func_log_array_f32>:
 8002d80:	b570      	push	{r4, r5, r6, lr}
 8002d82:	688c      	ldr	r4, [r1, #8]
 8002d84:	6880      	ldr	r0, [r0, #8]
 8002d86:	eb04 0182 	add.w	r1, r4, r2, lsl #2
 8002d8a:	1f0d      	subs	r5, r1, #4
 8002d8c:	eb00 0182 	add.w	r1, r0, r2, lsl #2
 8002d90:	1f0e      	subs	r6, r1, #4
 8002d92:	42a5      	cmp	r5, r4
 8002d94:	f0c0 800a 	bcc.w	8002dac <nl_func_log_array_f32+0x2c>
 8002d98:	ed95 0a00 	vldr	s0, [r5]
 8002d9c:	f006 fe5e 	bl	8009a5c <logf>
 8002da0:	ed86 0a00 	vstr	s0, [r6]
 8002da4:	1f2d      	subs	r5, r5, #4
 8002da6:	1f36      	subs	r6, r6, #4
 8002da8:	42a5      	cmp	r5, r4
 8002daa:	d2f5      	bcs.n	8002d98 <nl_func_log_array_f32+0x18>
 8002dac:	bd70      	pop	{r4, r5, r6, pc}
	...

08002db0 <forward_log>:
 8002db0:	b5f0      	push	{r4, r5, r6, r7, lr}
 8002db2:	b081      	sub	sp, #4
 8002db4:	6942      	ldr	r2, [r0, #20]
 8002db6:	8811      	ldrh	r1, [r2, #0]
 8002db8:	2900      	cmp	r1, #0
 8002dba:	bf1a      	itte	ne
 8002dbc:	6850      	ldrne	r0, [r2, #4]
 8002dbe:	1d00      	addne	r0, r0, #4
 8002dc0:	2004      	moveq	r0, #4
 8002dc2:	f04f 0501 	mov.w	r5, #1
 8002dc6:	6800      	ldr	r0, [r0, #0]
 8002dc8:	2800      	cmp	r0, #0
 8002dca:	bf14      	ite	ne
 8002dcc:	6803      	ldrne	r3, [r0, #0]
 8002dce:	2300      	moveq	r3, #0
 8002dd0:	2902      	cmp	r1, #2
 8002dd2:	bfa6      	itte	ge
 8002dd4:	6850      	ldrge	r0, [r2, #4]
 8002dd6:	3010      	addge	r0, #16
 8002dd8:	2004      	movlt	r0, #4
 8002dda:	6800      	ldr	r0, [r0, #0]
 8002ddc:	2800      	cmp	r0, #0
 8002dde:	bf19      	ittee	ne
 8002de0:	6800      	ldrne	r0, [r0, #0]
 8002de2:	f100 0418 	addne.w	r4, r0, #24
 8002de6:	2100      	moveq	r1, #0
 8002de8:	f101 0418 	addeq.w	r4, r1, #24
 8002dec:	f103 0108 	add.w	r1, r3, #8
 8002df0:	680a      	ldr	r2, [r1, #0]
 8002df2:	0a12      	lsrs	r2, r2, #8
 8002df4:	d01e      	beq.n	8002e34 <forward_log+0x84>
 8002df6:	684e      	ldr	r6, [r1, #4]
 8002df8:	eb06 0182 	add.w	r1, r6, r2, lsl #2
 8002dfc:	4610      	mov	r0, r2
 8002dfe:	1f0f      	subs	r7, r1, #4
 8002e00:	f010 0103 	ands.w	r1, r0, #3
 8002e04:	d006      	beq.n	8002e14 <forward_log+0x64>
 8002e06:	1e52      	subs	r2, r2, #1
 8002e08:	f857 c904 	ldr.w	ip, [r7], #-4
 8002e0c:	1e49      	subs	r1, r1, #1
 8002e0e:	fb0c f505 	mul.w	r5, ip, r5
 8002e12:	d1f8      	bne.n	8002e06 <forward_log+0x56>
 8002e14:	0880      	lsrs	r0, r0, #2
 8002e16:	d00d      	beq.n	8002e34 <forward_log+0x84>
 8002e18:	eb06 0182 	add.w	r1, r6, r2, lsl #2
 8002e1c:	3910      	subs	r1, #16
 8002e1e:	68ca      	ldr	r2, [r1, #12]
 8002e20:	688e      	ldr	r6, [r1, #8]
 8002e22:	684f      	ldr	r7, [r1, #4]
 8002e24:	4372      	muls	r2, r6
 8002e26:	f851 6910 	ldr.w	r6, [r1], #-16
 8002e2a:	437a      	muls	r2, r7
 8002e2c:	4372      	muls	r2, r6
 8002e2e:	4355      	muls	r5, r2
 8002e30:	1e40      	subs	r0, r0, #1
 8002e32:	d1f4      	bne.n	8002e1e <forward_log+0x6e>
 8002e34:	6998      	ldr	r0, [r3, #24]
 8002e36:	6886      	ldr	r6, [r0, #8]
 8002e38:	6821      	ldr	r1, [r4, #0]
 8002e3a:	eb06 0085 	add.w	r0, r6, r5, lsl #2
 8002e3e:	1f07      	subs	r7, r0, #4
 8002e40:	6888      	ldr	r0, [r1, #8]
 8002e42:	eb00 0285 	add.w	r2, r0, r5, lsl #2
 8002e46:	1f14      	subs	r4, r2, #4
 8002e48:	42b7      	cmp	r7, r6
 8002e4a:	d309      	bcc.n	8002e60 <forward_log+0xb0>
 8002e4c:	ed97 0a00 	vldr	s0, [r7]
 8002e50:	f006 fe04 	bl	8009a5c <logf>
 8002e54:	ed84 0a00 	vstr	s0, [r4]
 8002e58:	1f3f      	subs	r7, r7, #4
 8002e5a:	1f24      	subs	r4, r4, #4
 8002e5c:	42b7      	cmp	r7, r6
 8002e5e:	d2f5      	bcs.n	8002e4c <forward_log+0x9c>
 8002e60:	b001      	add	sp, #4
 8002e62:	bdf0      	pop	{r4, r5, r6, r7, pc}

08002e64 <nl_func_rsqrt_array_f32>:
 8002e64:	b570      	push	{r4, r5, r6, lr}
 8002e66:	460c      	mov	r4, r1
 8002e68:	6880      	ldr	r0, [r0, #8]
 8002e6a:	68a1      	ldr	r1, [r4, #8]
 8002e6c:	eb01 0382 	add.w	r3, r1, r2, lsl #2
 8002e70:	eb00 0282 	add.w	r2, r0, r2, lsl #2
 8002e74:	1f1d      	subs	r5, r3, #4
 8002e76:	1f16      	subs	r6, r2, #4
 8002e78:	428d      	cmp	r5, r1
 8002e7a:	d30e      	bcc.n	8002e9a <nl_func_rsqrt_array_f32+0x36>
 8002e7c:	ed95 0a00 	vldr	s0, [r5]
 8002e80:	f003 f930 	bl	80060e4 <ai_math_sqrt>
 8002e84:	eef7 0a00 	vmov.f32	s1, #112	; 0x3f800000  1.0
 8002e88:	eec0 0a80 	vdiv.f32	s1, s1, s0
 8002e8c:	edc6 0a00 	vstr	s1, [r6]
 8002e90:	1f2d      	subs	r5, r5, #4
 8002e92:	68a0      	ldr	r0, [r4, #8]
 8002e94:	1f36      	subs	r6, r6, #4
 8002e96:	4285      	cmp	r5, r0
 8002e98:	d2f0      	bcs.n	8002e7c <nl_func_rsqrt_array_f32+0x18>
 8002e9a:	bd70      	pop	{r4, r5, r6, pc}

08002e9c <forward_rsqrt>:
 8002e9c:	b5f0      	push	{r4, r5, r6, r7, lr}
 8002e9e:	b081      	sub	sp, #4
 8002ea0:	6942      	ldr	r2, [r0, #20]
 8002ea2:	8811      	ldrh	r1, [r2, #0]
 8002ea4:	2900      	cmp	r1, #0
 8002ea6:	bf1a      	itte	ne
 8002ea8:	6850      	ldrne	r0, [r2, #4]
 8002eaa:	1d00      	addne	r0, r0, #4
 8002eac:	2004      	moveq	r0, #4
 8002eae:	f04f 0501 	mov.w	r5, #1
 8002eb2:	6800      	ldr	r0, [r0, #0]
 8002eb4:	2800      	cmp	r0, #0
 8002eb6:	bf14      	ite	ne
 8002eb8:	6803      	ldrne	r3, [r0, #0]
 8002eba:	2300      	moveq	r3, #0
 8002ebc:	2902      	cmp	r1, #2
 8002ebe:	bfa6      	itte	ge
 8002ec0:	6850      	ldrge	r0, [r2, #4]
 8002ec2:	3010      	addge	r0, #16
 8002ec4:	2004      	movlt	r0, #4
 8002ec6:	6800      	ldr	r0, [r0, #0]
 8002ec8:	2800      	cmp	r0, #0
 8002eca:	bf19      	ittee	ne
 8002ecc:	6800      	ldrne	r0, [r0, #0]
 8002ece:	f100 0418 	addne.w	r4, r0, #24
 8002ed2:	2100      	moveq	r1, #0
 8002ed4:	f101 0418 	addeq.w	r4, r1, #24
 8002ed8:	f103 0108 	add.w	r1, r3, #8
 8002edc:	680a      	ldr	r2, [r1, #0]
 8002ede:	0a12      	lsrs	r2, r2, #8
 8002ee0:	d01e      	beq.n	8002f20 <forward_rsqrt+0x84>
 8002ee2:	684e      	ldr	r6, [r1, #4]
 8002ee4:	eb06 0182 	add.w	r1, r6, r2, lsl #2
 8002ee8:	4610      	mov	r0, r2
 8002eea:	1f0f      	subs	r7, r1, #4
 8002eec:	f010 0103 	ands.w	r1, r0, #3
 8002ef0:	d006      	beq.n	8002f00 <forward_rsqrt+0x64>
 8002ef2:	1e52      	subs	r2, r2, #1
 8002ef4:	f857 c904 	ldr.w	ip, [r7], #-4
 8002ef8:	1e49      	subs	r1, r1, #1
 8002efa:	fb0c f505 	mul.w	r5, ip, r5
 8002efe:	d1f8      	bne.n	8002ef2 <forward_rsqrt+0x56>
 8002f00:	0880      	lsrs	r0, r0, #2
 8002f02:	d00d      	beq.n	8002f20 <forward_rsqrt+0x84>
 8002f04:	eb06 0182 	add.w	r1, r6, r2, lsl #2
 8002f08:	3910      	subs	r1, #16
 8002f0a:	68ca      	ldr	r2, [r1, #12]
 8002f0c:	688e      	ldr	r6, [r1, #8]
 8002f0e:	684f      	ldr	r7, [r1, #4]
 8002f10:	4372      	muls	r2, r6
 8002f12:	f851 6910 	ldr.w	r6, [r1], #-16
 8002f16:	437a      	muls	r2, r7
 8002f18:	4372      	muls	r2, r6
 8002f1a:	4355      	muls	r5, r2
 8002f1c:	1e40      	subs	r0, r0, #1
 8002f1e:	d1f4      	bne.n	8002f0a <forward_rsqrt+0x6e>
 8002f20:	699e      	ldr	r6, [r3, #24]
 8002f22:	68b0      	ldr	r0, [r6, #8]
 8002f24:	6822      	ldr	r2, [r4, #0]
 8002f26:	eb00 0185 	add.w	r1, r0, r5, lsl #2
 8002f2a:	1f0f      	subs	r7, r1, #4
 8002f2c:	6891      	ldr	r1, [r2, #8]
 8002f2e:	eb01 0385 	add.w	r3, r1, r5, lsl #2
 8002f32:	1f1c      	subs	r4, r3, #4
 8002f34:	4287      	cmp	r7, r0
 8002f36:	d30e      	bcc.n	8002f56 <forward_rsqrt+0xba>
 8002f38:	ed97 0a00 	vldr	s0, [r7]
 8002f3c:	f003 f8d2 	bl	80060e4 <ai_math_sqrt>
 8002f40:	eef7 0a00 	vmov.f32	s1, #112	; 0x3f800000  1.0
 8002f44:	eec0 0a80 	vdiv.f32	s1, s1, s0
 8002f48:	edc4 0a00 	vstr	s1, [r4]
 8002f4c:	1f3f      	subs	r7, r7, #4
 8002f4e:	68b0      	ldr	r0, [r6, #8]
 8002f50:	1f24      	subs	r4, r4, #4
 8002f52:	4287      	cmp	r7, r0
 8002f54:	d2f0      	bcs.n	8002f38 <forward_rsqrt+0x9c>
 8002f56:	b001      	add	sp, #4
 8002f58:	bdf0      	pop	{r4, r5, r6, r7, pc}
	...

08002f5c <nl_func_sin_array_f32>:
 8002f5c:	b570      	push	{r4, r5, r6, lr}
 8002f5e:	688c      	ldr	r4, [r1, #8]
 8002f60:	6880      	ldr	r0, [r0, #8]
 8002f62:	eb04 0182 	add.w	r1, r4, r2, lsl #2
 8002f66:	1f0d      	subs	r5, r1, #4
 8002f68:	eb00 0182 	add.w	r1, r0, r2, lsl #2
 8002f6c:	1f0e      	subs	r6, r1, #4
 8002f6e:	42a5      	cmp	r5, r4
 8002f70:	f0c0 800a 	bcc.w	8002f88 <nl_func_sin_array_f32+0x2c>
 8002f74:	ed95 0a00 	vldr	s0, [r5]
 8002f78:	f006 fa0a 	bl	8009390 <sinf>
 8002f7c:	ed86 0a00 	vstr	s0, [r6]
 8002f80:	1f2d      	subs	r5, r5, #4
 8002f82:	1f36      	subs	r6, r6, #4
 8002f84:	42a5      	cmp	r5, r4
 8002f86:	d2f5      	bcs.n	8002f74 <nl_func_sin_array_f32+0x18>
 8002f88:	bd70      	pop	{r4, r5, r6, pc}
	...

08002f8c <forward_sin>:
 8002f8c:	b5f0      	push	{r4, r5, r6, r7, lr}
 8002f8e:	b081      	sub	sp, #4
 8002f90:	6942      	ldr	r2, [r0, #20]
 8002f92:	8811      	ldrh	r1, [r2, #0]
 8002f94:	2900      	cmp	r1, #0
 8002f96:	bf1a      	itte	ne
 8002f98:	6850      	ldrne	r0, [r2, #4]
 8002f9a:	1d00      	addne	r0, r0, #4
 8002f9c:	2004      	moveq	r0, #4
 8002f9e:	f04f 0501 	mov.w	r5, #1
 8002fa2:	6800      	ldr	r0, [r0, #0]
 8002fa4:	2800      	cmp	r0, #0
 8002fa6:	bf14      	ite	ne
 8002fa8:	6803      	ldrne	r3, [r0, #0]
 8002faa:	2300      	moveq	r3, #0
 8002fac:	2902      	cmp	r1, #2
 8002fae:	bfa6      	itte	ge
 8002fb0:	6850      	ldrge	r0, [r2, #4]
 8002fb2:	3010      	addge	r0, #16
 8002fb4:	2004      	movlt	r0, #4
 8002fb6:	6800      	ldr	r0, [r0, #0]
 8002fb8:	2800      	cmp	r0, #0
 8002fba:	bf19      	ittee	ne
 8002fbc:	6800      	ldrne	r0, [r0, #0]
 8002fbe:	f100 0418 	addne.w	r4, r0, #24
 8002fc2:	2100      	moveq	r1, #0
 8002fc4:	f101 0418 	addeq.w	r4, r1, #24
 8002fc8:	f103 0108 	add.w	r1, r3, #8
 8002fcc:	680a      	ldr	r2, [r1, #0]
 8002fce:	0a12      	lsrs	r2, r2, #8
 8002fd0:	d01e      	beq.n	8003010 <forward_sin+0x84>
 8002fd2:	684e      	ldr	r6, [r1, #4]
 8002fd4:	eb06 0182 	add.w	r1, r6, r2, lsl #2
 8002fd8:	4610      	mov	r0, r2
 8002fda:	1f0f      	subs	r7, r1, #4
 8002fdc:	f010 0103 	ands.w	r1, r0, #3
 8002fe0:	d006      	beq.n	8002ff0 <forward_sin+0x64>
 8002fe2:	1e52      	subs	r2, r2, #1
 8002fe4:	f857 c904 	ldr.w	ip, [r7], #-4
 8002fe8:	1e49      	subs	r1, r1, #1
 8002fea:	fb0c f505 	mul.w	r5, ip, r5
 8002fee:	d1f8      	bne.n	8002fe2 <forward_sin+0x56>
 8002ff0:	0880      	lsrs	r0, r0, #2
 8002ff2:	d00d      	beq.n	8003010 <forward_sin+0x84>
 8002ff4:	eb06 0182 	add.w	r1, r6, r2, lsl #2
 8002ff8:	3910      	subs	r1, #16
 8002ffa:	68ca      	ldr	r2, [r1, #12]
 8002ffc:	688e      	ldr	r6, [r1, #8]
 8002ffe:	684f      	ldr	r7, [r1, #4]
 8003000:	4372      	muls	r2, r6
 8003002:	f851 6910 	ldr.w	r6, [r1], #-16
 8003006:	437a      	muls	r2, r7
 8003008:	4372      	muls	r2, r6
 800300a:	4355      	muls	r5, r2
 800300c:	1e40      	subs	r0, r0, #1
 800300e:	d1f4      	bne.n	8002ffa <forward_sin+0x6e>
 8003010:	6998      	ldr	r0, [r3, #24]
 8003012:	6886      	ldr	r6, [r0, #8]
 8003014:	6821      	ldr	r1, [r4, #0]
 8003016:	eb06 0085 	add.w	r0, r6, r5, lsl #2
 800301a:	1f07      	subs	r7, r0, #4
 800301c:	6888      	ldr	r0, [r1, #8]
 800301e:	eb00 0285 	add.w	r2, r0, r5, lsl #2
 8003022:	1f14      	subs	r4, r2, #4
 8003024:	42b7      	cmp	r7, r6
 8003026:	d309      	bcc.n	800303c <forward_sin+0xb0>
 8003028:	ed97 0a00 	vldr	s0, [r7]
 800302c:	f006 f9b0 	bl	8009390 <sinf>
 8003030:	ed84 0a00 	vstr	s0, [r4]
 8003034:	1f3f      	subs	r7, r7, #4
 8003036:	1f24      	subs	r4, r4, #4
 8003038:	42b7      	cmp	r7, r6
 800303a:	d2f5      	bcs.n	8003028 <forward_sin+0x9c>
 800303c:	b001      	add	sp, #4
 800303e:	bdf0      	pop	{r4, r5, r6, r7, pc}

08003040 <nl_func_sinh_array_f32>:
 8003040:	b570      	push	{r4, r5, r6, lr}
 8003042:	688c      	ldr	r4, [r1, #8]
 8003044:	6880      	ldr	r0, [r0, #8]
 8003046:	eb04 0182 	add.w	r1, r4, r2, lsl #2
 800304a:	1f0d      	subs	r5, r1, #4
 800304c:	eb00 0182 	add.w	r1, r0, r2, lsl #2
 8003050:	1f0e      	subs	r6, r1, #4
 8003052:	42a5      	cmp	r5, r4
 8003054:	f0c0 800a 	bcc.w	800306c <nl_func_sinh_array_f32+0x2c>
 8003058:	ed95 0a00 	vldr	s0, [r5]
 800305c:	f006 fed8 	bl	8009e10 <sinhf>
 8003060:	ed86 0a00 	vstr	s0, [r6]
 8003064:	1f2d      	subs	r5, r5, #4
 8003066:	1f36      	subs	r6, r6, #4
 8003068:	42a5      	cmp	r5, r4
 800306a:	d2f5      	bcs.n	8003058 <nl_func_sinh_array_f32+0x18>
 800306c:	bd70      	pop	{r4, r5, r6, pc}
	...

08003070 <forward_sinh>:
 8003070:	b5f0      	push	{r4, r5, r6, r7, lr}
 8003072:	b081      	sub	sp, #4
 8003074:	6942      	ldr	r2, [r0, #20]
 8003076:	8811      	ldrh	r1, [r2, #0]
 8003078:	2900      	cmp	r1, #0
 800307a:	bf1a      	itte	ne
 800307c:	6850      	ldrne	r0, [r2, #4]
 800307e:	1d00      	addne	r0, r0, #4
 8003080:	2004      	moveq	r0, #4
 8003082:	f04f 0501 	mov.w	r5, #1
 8003086:	6800      	ldr	r0, [r0, #0]
 8003088:	2800      	cmp	r0, #0
 800308a:	bf14      	ite	ne
 800308c:	6803      	ldrne	r3, [r0, #0]
 800308e:	2300      	moveq	r3, #0
 8003090:	2902      	cmp	r1, #2
 8003092:	bfa6      	itte	ge
 8003094:	6850      	ldrge	r0, [r2, #4]
 8003096:	3010      	addge	r0, #16
 8003098:	2004      	movlt	r0, #4
 800309a:	6800      	ldr	r0, [r0, #0]
 800309c:	2800      	cmp	r0, #0
 800309e:	bf19      	ittee	ne
 80030a0:	6800      	ldrne	r0, [r0, #0]
 80030a2:	f100 0418 	addne.w	r4, r0, #24
 80030a6:	2100      	moveq	r1, #0
 80030a8:	f101 0418 	addeq.w	r4, r1, #24
 80030ac:	f103 0108 	add.w	r1, r3, #8
 80030b0:	680a      	ldr	r2, [r1, #0]
 80030b2:	0a12      	lsrs	r2, r2, #8
 80030b4:	d01e      	beq.n	80030f4 <forward_sinh+0x84>
 80030b6:	684e      	ldr	r6, [r1, #4]
 80030b8:	eb06 0182 	add.w	r1, r6, r2, lsl #2
 80030bc:	4610      	mov	r0, r2
 80030be:	1f0f      	subs	r7, r1, #4
 80030c0:	f010 0103 	ands.w	r1, r0, #3
 80030c4:	d006      	beq.n	80030d4 <forward_sinh+0x64>
 80030c6:	1e52      	subs	r2, r2, #1
 80030c8:	f857 c904 	ldr.w	ip, [r7], #-4
 80030cc:	1e49      	subs	r1, r1, #1
 80030ce:	fb0c f505 	mul.w	r5, ip, r5
 80030d2:	d1f8      	bne.n	80030c6 <forward_sinh+0x56>
 80030d4:	0880      	lsrs	r0, r0, #2
 80030d6:	d00d      	beq.n	80030f4 <forward_sinh+0x84>
 80030d8:	eb06 0182 	add.w	r1, r6, r2, lsl #2
 80030dc:	3910      	subs	r1, #16
 80030de:	68ca      	ldr	r2, [r1, #12]
 80030e0:	688e      	ldr	r6, [r1, #8]
 80030e2:	684f      	ldr	r7, [r1, #4]
 80030e4:	4372      	muls	r2, r6
 80030e6:	f851 6910 	ldr.w	r6, [r1], #-16
 80030ea:	437a      	muls	r2, r7
 80030ec:	4372      	muls	r2, r6
 80030ee:	4355      	muls	r5, r2
 80030f0:	1e40      	subs	r0, r0, #1
 80030f2:	d1f4      	bne.n	80030de <forward_sinh+0x6e>
 80030f4:	6998      	ldr	r0, [r3, #24]
 80030f6:	6886      	ldr	r6, [r0, #8]
 80030f8:	6821      	ldr	r1, [r4, #0]
 80030fa:	eb06 0085 	add.w	r0, r6, r5, lsl #2
 80030fe:	1f07      	subs	r7, r0, #4
 8003100:	6888      	ldr	r0, [r1, #8]
 8003102:	eb00 0285 	add.w	r2, r0, r5, lsl #2
 8003106:	1f14      	subs	r4, r2, #4
 8003108:	42b7      	cmp	r7, r6
 800310a:	d309      	bcc.n	8003120 <forward_sinh+0xb0>
 800310c:	ed97 0a00 	vldr	s0, [r7]
 8003110:	f006 fe7e 	bl	8009e10 <sinhf>
 8003114:	ed84 0a00 	vstr	s0, [r4]
 8003118:	1f3f      	subs	r7, r7, #4
 800311a:	1f24      	subs	r4, r4, #4
 800311c:	42b7      	cmp	r7, r6
 800311e:	d2f5      	bcs.n	800310c <forward_sinh+0x9c>
 8003120:	b001      	add	sp, #4
 8003122:	bdf0      	pop	{r4, r5, r6, r7, pc}

08003124 <nl_func_tan_array_f32>:
 8003124:	b570      	push	{r4, r5, r6, lr}
 8003126:	688c      	ldr	r4, [r1, #8]
 8003128:	6880      	ldr	r0, [r0, #8]
 800312a:	eb04 0182 	add.w	r1, r4, r2, lsl #2
 800312e:	1f0d      	subs	r5, r1, #4
 8003130:	eb00 0182 	add.w	r1, r0, r2, lsl #2
 8003134:	1f0e      	subs	r6, r1, #4
 8003136:	42a5      	cmp	r5, r4
 8003138:	f0c0 800a 	bcc.w	8003150 <nl_func_tan_array_f32+0x2c>
 800313c:	ed95 0a00 	vldr	s0, [r5]
 8003140:	f006 f968 	bl	8009414 <tanf>
 8003144:	ed86 0a00 	vstr	s0, [r6]
 8003148:	1f2d      	subs	r5, r5, #4
 800314a:	1f36      	subs	r6, r6, #4
 800314c:	42a5      	cmp	r5, r4
 800314e:	d2f5      	bcs.n	800313c <nl_func_tan_array_f32+0x18>
 8003150:	bd70      	pop	{r4, r5, r6, pc}
	...

08003154 <forward_tan>:
 8003154:	b5f0      	push	{r4, r5, r6, r7, lr}
 8003156:	b081      	sub	sp, #4
 8003158:	6942      	ldr	r2, [r0, #20]
 800315a:	8811      	ldrh	r1, [r2, #0]
 800315c:	2900      	cmp	r1, #0
 800315e:	bf1a      	itte	ne
 8003160:	6850      	ldrne	r0, [r2, #4]
 8003162:	1d00      	addne	r0, r0, #4
 8003164:	2004      	moveq	r0, #4
 8003166:	f04f 0501 	mov.w	r5, #1
 800316a:	6800      	ldr	r0, [r0, #0]
 800316c:	2800      	cmp	r0, #0
 800316e:	bf14      	ite	ne
 8003170:	6803      	ldrne	r3, [r0, #0]
 8003172:	2300      	moveq	r3, #0
 8003174:	2902      	cmp	r1, #2
 8003176:	bfa6      	itte	ge
 8003178:	6850      	ldrge	r0, [r2, #4]
 800317a:	3010      	addge	r0, #16
 800317c:	2004      	movlt	r0, #4
 800317e:	6800      	ldr	r0, [r0, #0]
 8003180:	2800      	cmp	r0, #0
 8003182:	bf19      	ittee	ne
 8003184:	6800      	ldrne	r0, [r0, #0]
 8003186:	f100 0418 	addne.w	r4, r0, #24
 800318a:	2100      	moveq	r1, #0
 800318c:	f101 0418 	addeq.w	r4, r1, #24
 8003190:	f103 0108 	add.w	r1, r3, #8
 8003194:	680a      	ldr	r2, [r1, #0]
 8003196:	0a12      	lsrs	r2, r2, #8
 8003198:	d01e      	beq.n	80031d8 <forward_tan+0x84>
 800319a:	684e      	ldr	r6, [r1, #4]
 800319c:	eb06 0182 	add.w	r1, r6, r2, lsl #2
 80031a0:	4610      	mov	r0, r2
 80031a2:	1f0f      	subs	r7, r1, #4
 80031a4:	f010 0103 	ands.w	r1, r0, #3
 80031a8:	d006      	beq.n	80031b8 <forward_tan+0x64>
 80031aa:	1e52      	subs	r2, r2, #1
 80031ac:	f857 c904 	ldr.w	ip, [r7], #-4
 80031b0:	1e49      	subs	r1, r1, #1
 80031b2:	fb0c f505 	mul.w	r5, ip, r5
 80031b6:	d1f8      	bne.n	80031aa <forward_tan+0x56>
 80031b8:	0880      	lsrs	r0, r0, #2
 80031ba:	d00d      	beq.n	80031d8 <forward_tan+0x84>
 80031bc:	eb06 0182 	add.w	r1, r6, r2, lsl #2
 80031c0:	3910      	subs	r1, #16
 80031c2:	68ca      	ldr	r2, [r1, #12]
 80031c4:	688e      	ldr	r6, [r1, #8]
 80031c6:	684f      	ldr	r7, [r1, #4]
 80031c8:	4372      	muls	r2, r6
 80031ca:	f851 6910 	ldr.w	r6, [r1], #-16
 80031ce:	437a      	muls	r2, r7
 80031d0:	4372      	muls	r2, r6
 80031d2:	4355      	muls	r5, r2
 80031d4:	1e40      	subs	r0, r0, #1
 80031d6:	d1f4      	bne.n	80031c2 <forward_tan+0x6e>
 80031d8:	6998      	ldr	r0, [r3, #24]
 80031da:	6886      	ldr	r6, [r0, #8]
 80031dc:	6821      	ldr	r1, [r4, #0]
 80031de:	eb06 0085 	add.w	r0, r6, r5, lsl #2
 80031e2:	1f07      	subs	r7, r0, #4
 80031e4:	6888      	ldr	r0, [r1, #8]
 80031e6:	eb00 0285 	add.w	r2, r0, r5, lsl #2
 80031ea:	1f14      	subs	r4, r2, #4
 80031ec:	42b7      	cmp	r7, r6
 80031ee:	d309      	bcc.n	8003204 <forward_tan+0xb0>
 80031f0:	ed97 0a00 	vldr	s0, [r7]
 80031f4:	f006 f90e 	bl	8009414 <tanf>
 80031f8:	ed84 0a00 	vstr	s0, [r4]
 80031fc:	1f3f      	subs	r7, r7, #4
 80031fe:	1f24      	subs	r4, r4, #4
 8003200:	42b7      	cmp	r7, r6
 8003202:	d2f5      	bcs.n	80031f0 <forward_tan+0x9c>
 8003204:	b001      	add	sp, #4
 8003206:	bdf0      	pop	{r4, r5, r6, r7, pc}

08003208 <nl_func_abs_array_f32>:
 8003208:	6889      	ldr	r1, [r1, #8]
 800320a:	6880      	ldr	r0, [r0, #8]
 800320c:	eb01 0382 	add.w	r3, r1, r2, lsl #2
 8003210:	eb00 0282 	add.w	r2, r0, r2, lsl #2
 8003214:	1f1b      	subs	r3, r3, #4
 8003216:	1f10      	subs	r0, r2, #4
 8003218:	428b      	cmp	r3, r1
 800321a:	d307      	bcc.n	800322c <nl_func_abs_array_f32+0x24>
 800321c:	f853 c904 	ldr.w	ip, [r3], #-4
 8003220:	f02c 4200 	bic.w	r2, ip, #2147483648	; 0x80000000
 8003224:	428b      	cmp	r3, r1
 8003226:	f840 2904 	str.w	r2, [r0], #-4
 800322a:	d2f7      	bcs.n	800321c <nl_func_abs_array_f32+0x14>
 800322c:	4770      	bx	lr
	...

08003230 <forward_abs>:
 8003230:	b4f0      	push	{r4, r5, r6, r7}
 8003232:	6942      	ldr	r2, [r0, #20]
 8003234:	8811      	ldrh	r1, [r2, #0]
 8003236:	2900      	cmp	r1, #0
 8003238:	bf1a      	itte	ne
 800323a:	6850      	ldrne	r0, [r2, #4]
 800323c:	1d00      	addne	r0, r0, #4
 800323e:	2004      	moveq	r0, #4
 8003240:	f04f 0501 	mov.w	r5, #1
 8003244:	6800      	ldr	r0, [r0, #0]
 8003246:	2800      	cmp	r0, #0
 8003248:	bf14      	ite	ne
 800324a:	6803      	ldrne	r3, [r0, #0]
 800324c:	2300      	moveq	r3, #0
 800324e:	2902      	cmp	r1, #2
 8003250:	bfa6      	itte	ge
 8003252:	6850      	ldrge	r0, [r2, #4]
 8003254:	3010      	addge	r0, #16
 8003256:	2004      	movlt	r0, #4
 8003258:	6800      	ldr	r0, [r0, #0]
 800325a:	2800      	cmp	r0, #0
 800325c:	bf19      	ittee	ne
 800325e:	6800      	ldrne	r0, [r0, #0]
 8003260:	f100 0418 	addne.w	r4, r0, #24
 8003264:	2100      	moveq	r1, #0
 8003266:	f101 0418 	addeq.w	r4, r1, #24
 800326a:	f103 0108 	add.w	r1, r3, #8
 800326e:	680a      	ldr	r2, [r1, #0]
 8003270:	0a12      	lsrs	r2, r2, #8
 8003272:	d01e      	beq.n	80032b2 <forward_abs+0x82>
 8003274:	684e      	ldr	r6, [r1, #4]
 8003276:	eb06 0182 	add.w	r1, r6, r2, lsl #2
 800327a:	4610      	mov	r0, r2
 800327c:	1f0f      	subs	r7, r1, #4
 800327e:	f010 0103 	ands.w	r1, r0, #3
 8003282:	d006      	beq.n	8003292 <forward_abs+0x62>
 8003284:	1e52      	subs	r2, r2, #1
 8003286:	f857 c904 	ldr.w	ip, [r7], #-4
 800328a:	1e49      	subs	r1, r1, #1
 800328c:	fb0c f505 	mul.w	r5, ip, r5
 8003290:	d1f8      	bne.n	8003284 <forward_abs+0x54>
 8003292:	0880      	lsrs	r0, r0, #2
 8003294:	d00d      	beq.n	80032b2 <forward_abs+0x82>
 8003296:	eb06 0182 	add.w	r1, r6, r2, lsl #2
 800329a:	3910      	subs	r1, #16
 800329c:	68ca      	ldr	r2, [r1, #12]
 800329e:	688e      	ldr	r6, [r1, #8]
 80032a0:	684f      	ldr	r7, [r1, #4]
 80032a2:	4372      	muls	r2, r6
 80032a4:	f851 6910 	ldr.w	r6, [r1], #-16
 80032a8:	437a      	muls	r2, r7
 80032aa:	4372      	muls	r2, r6
 80032ac:	4355      	muls	r5, r2
 80032ae:	1e40      	subs	r0, r0, #1
 80032b0:	d1f4      	bne.n	800329c <forward_abs+0x6c>
 80032b2:	6998      	ldr	r0, [r3, #24]
 80032b4:	6822      	ldr	r2, [r4, #0]
 80032b6:	6880      	ldr	r0, [r0, #8]
 80032b8:	6893      	ldr	r3, [r2, #8]
 80032ba:	eb00 0185 	add.w	r1, r0, r5, lsl #2
 80032be:	eb03 0485 	add.w	r4, r3, r5, lsl #2
 80032c2:	1f09      	subs	r1, r1, #4
 80032c4:	1f22      	subs	r2, r4, #4
 80032c6:	4281      	cmp	r1, r0
 80032c8:	f0c0 8008 	bcc.w	80032dc <forward_abs+0xac>
 80032cc:	f851 3904 	ldr.w	r3, [r1], #-4
 80032d0:	f023 4300 	bic.w	r3, r3, #2147483648	; 0x80000000
 80032d4:	4281      	cmp	r1, r0
 80032d6:	f842 3904 	str.w	r3, [r2], #-4
 80032da:	d2f7      	bcs.n	80032cc <forward_abs+0x9c>
 80032dc:	bcf0      	pop	{r4, r5, r6, r7}
 80032de:	4770      	bx	lr

080032e0 <nl_func_ceil_array_f32>:
 80032e0:	b570      	push	{r4, r5, r6, lr}
 80032e2:	688c      	ldr	r4, [r1, #8]
 80032e4:	6880      	ldr	r0, [r0, #8]
 80032e6:	eb04 0182 	add.w	r1, r4, r2, lsl #2
 80032ea:	1f0d      	subs	r5, r1, #4
 80032ec:	eb00 0182 	add.w	r1, r0, r2, lsl #2
 80032f0:	1f0e      	subs	r6, r1, #4
 80032f2:	42a5      	cmp	r5, r4
 80032f4:	f0c0 800a 	bcc.w	800330c <nl_func_ceil_array_f32+0x2c>
 80032f8:	ed95 0a00 	vldr	s0, [r5]
 80032fc:	f005 fc70 	bl	8008be0 <ceilf>
 8003300:	ed86 0a00 	vstr	s0, [r6]
 8003304:	1f2d      	subs	r5, r5, #4
 8003306:	1f36      	subs	r6, r6, #4
 8003308:	42a5      	cmp	r5, r4
 800330a:	d2f5      	bcs.n	80032f8 <nl_func_ceil_array_f32+0x18>
 800330c:	bd70      	pop	{r4, r5, r6, pc}
	...

08003310 <forward_ceil>:
 8003310:	b5f0      	push	{r4, r5, r6, r7, lr}
 8003312:	b081      	sub	sp, #4
 8003314:	6942      	ldr	r2, [r0, #20]
 8003316:	8811      	ldrh	r1, [r2, #0]
 8003318:	2900      	cmp	r1, #0
 800331a:	bf1a      	itte	ne
 800331c:	6850      	ldrne	r0, [r2, #4]
 800331e:	1d00      	addne	r0, r0, #4
 8003320:	2004      	moveq	r0, #4
 8003322:	f04f 0501 	mov.w	r5, #1
 8003326:	6800      	ldr	r0, [r0, #0]
 8003328:	2800      	cmp	r0, #0
 800332a:	bf14      	ite	ne
 800332c:	6803      	ldrne	r3, [r0, #0]
 800332e:	2300      	moveq	r3, #0
 8003330:	2902      	cmp	r1, #2
 8003332:	bfa6      	itte	ge
 8003334:	6850      	ldrge	r0, [r2, #4]
 8003336:	3010      	addge	r0, #16
 8003338:	2004      	movlt	r0, #4
 800333a:	6800      	ldr	r0, [r0, #0]
 800333c:	2800      	cmp	r0, #0
 800333e:	bf19      	ittee	ne
 8003340:	6800      	ldrne	r0, [r0, #0]
 8003342:	f100 0418 	addne.w	r4, r0, #24
 8003346:	2100      	moveq	r1, #0
 8003348:	f101 0418 	addeq.w	r4, r1, #24
 800334c:	f103 0108 	add.w	r1, r3, #8
 8003350:	680a      	ldr	r2, [r1, #0]
 8003352:	0a12      	lsrs	r2, r2, #8
 8003354:	d01e      	beq.n	8003394 <forward_ceil+0x84>
 8003356:	684e      	ldr	r6, [r1, #4]
 8003358:	eb06 0182 	add.w	r1, r6, r2, lsl #2
 800335c:	4610      	mov	r0, r2
 800335e:	1f0f      	subs	r7, r1, #4
 8003360:	f010 0103 	ands.w	r1, r0, #3
 8003364:	d006      	beq.n	8003374 <forward_ceil+0x64>
 8003366:	1e52      	subs	r2, r2, #1
 8003368:	f857 c904 	ldr.w	ip, [r7], #-4
 800336c:	1e49      	subs	r1, r1, #1
 800336e:	fb0c f505 	mul.w	r5, ip, r5
 8003372:	d1f8      	bne.n	8003366 <forward_ceil+0x56>
 8003374:	0880      	lsrs	r0, r0, #2
 8003376:	d00d      	beq.n	8003394 <forward_ceil+0x84>
 8003378:	eb06 0182 	add.w	r1, r6, r2, lsl #2
 800337c:	3910      	subs	r1, #16
 800337e:	68ca      	ldr	r2, [r1, #12]
 8003380:	688e      	ldr	r6, [r1, #8]
 8003382:	684f      	ldr	r7, [r1, #4]
 8003384:	4372      	muls	r2, r6
 8003386:	f851 6910 	ldr.w	r6, [r1], #-16
 800338a:	437a      	muls	r2, r7
 800338c:	4372      	muls	r2, r6
 800338e:	4355      	muls	r5, r2
 8003390:	1e40      	subs	r0, r0, #1
 8003392:	d1f4      	bne.n	800337e <forward_ceil+0x6e>
 8003394:	6998      	ldr	r0, [r3, #24]
 8003396:	6886      	ldr	r6, [r0, #8]
 8003398:	6821      	ldr	r1, [r4, #0]
 800339a:	eb06 0085 	add.w	r0, r6, r5, lsl #2
 800339e:	1f07      	subs	r7, r0, #4
 80033a0:	6888      	ldr	r0, [r1, #8]
 80033a2:	eb00 0285 	add.w	r2, r0, r5, lsl #2
 80033a6:	1f14      	subs	r4, r2, #4
 80033a8:	42b7      	cmp	r7, r6
 80033aa:	d309      	bcc.n	80033c0 <forward_ceil+0xb0>
 80033ac:	ed97 0a00 	vldr	s0, [r7]
 80033b0:	f005 fc16 	bl	8008be0 <ceilf>
 80033b4:	ed84 0a00 	vstr	s0, [r4]
 80033b8:	1f3f      	subs	r7, r7, #4
 80033ba:	1f24      	subs	r4, r4, #4
 80033bc:	42b7      	cmp	r7, r6
 80033be:	d2f5      	bcs.n	80033ac <forward_ceil+0x9c>
 80033c0:	b001      	add	sp, #4
 80033c2:	bdf0      	pop	{r4, r5, r6, r7, pc}

080033c4 <nl_func_floor_array_f32>:
 80033c4:	b570      	push	{r4, r5, r6, lr}
 80033c6:	688c      	ldr	r4, [r1, #8]
 80033c8:	6880      	ldr	r0, [r0, #8]
 80033ca:	eb04 0182 	add.w	r1, r4, r2, lsl #2
 80033ce:	1f0d      	subs	r5, r1, #4
 80033d0:	eb00 0182 	add.w	r1, r0, r2, lsl #2
 80033d4:	1f0e      	subs	r6, r1, #4
 80033d6:	42a5      	cmp	r5, r4
 80033d8:	f0c0 800a 	bcc.w	80033f0 <nl_func_floor_array_f32+0x2c>
 80033dc:	ed95 0a00 	vldr	s0, [r5]
 80033e0:	f005 fe66 	bl	80090b0 <floorf>
 80033e4:	ed86 0a00 	vstr	s0, [r6]
 80033e8:	1f2d      	subs	r5, r5, #4
 80033ea:	1f36      	subs	r6, r6, #4
 80033ec:	42a5      	cmp	r5, r4
 80033ee:	d2f5      	bcs.n	80033dc <nl_func_floor_array_f32+0x18>
 80033f0:	bd70      	pop	{r4, r5, r6, pc}
	...

080033f4 <forward_floor>:
 80033f4:	b5f0      	push	{r4, r5, r6, r7, lr}
 80033f6:	b081      	sub	sp, #4
 80033f8:	6942      	ldr	r2, [r0, #20]
 80033fa:	8811      	ldrh	r1, [r2, #0]
 80033fc:	2900      	cmp	r1, #0
 80033fe:	bf1a      	itte	ne
 8003400:	6850      	ldrne	r0, [r2, #4]
 8003402:	1d00      	addne	r0, r0, #4
 8003404:	2004      	moveq	r0, #4
 8003406:	f04f 0501 	mov.w	r5, #1
 800340a:	6800      	ldr	r0, [r0, #0]
 800340c:	2800      	cmp	r0, #0
 800340e:	bf14      	ite	ne
 8003410:	6803      	ldrne	r3, [r0, #0]
 8003412:	2300      	moveq	r3, #0
 8003414:	2902      	cmp	r1, #2
 8003416:	bfa6      	itte	ge
 8003418:	6850      	ldrge	r0, [r2, #4]
 800341a:	3010      	addge	r0, #16
 800341c:	2004      	movlt	r0, #4
 800341e:	6800      	ldr	r0, [r0, #0]
 8003420:	2800      	cmp	r0, #0
 8003422:	bf19      	ittee	ne
 8003424:	6800      	ldrne	r0, [r0, #0]
 8003426:	f100 0418 	addne.w	r4, r0, #24
 800342a:	2100      	moveq	r1, #0
 800342c:	f101 0418 	addeq.w	r4, r1, #24
 8003430:	f103 0108 	add.w	r1, r3, #8
 8003434:	680a      	ldr	r2, [r1, #0]
 8003436:	0a12      	lsrs	r2, r2, #8
 8003438:	d01e      	beq.n	8003478 <forward_floor+0x84>
 800343a:	684e      	ldr	r6, [r1, #4]
 800343c:	eb06 0182 	add.w	r1, r6, r2, lsl #2
 8003440:	4610      	mov	r0, r2
 8003442:	1f0f      	subs	r7, r1, #4
 8003444:	f010 0103 	ands.w	r1, r0, #3
 8003448:	d006      	beq.n	8003458 <forward_floor+0x64>
 800344a:	1e52      	subs	r2, r2, #1
 800344c:	f857 c904 	ldr.w	ip, [r7], #-4
 8003450:	1e49      	subs	r1, r1, #1
 8003452:	fb0c f505 	mul.w	r5, ip, r5
 8003456:	d1f8      	bne.n	800344a <forward_floor+0x56>
 8003458:	0880      	lsrs	r0, r0, #2
 800345a:	d00d      	beq.n	8003478 <forward_floor+0x84>
 800345c:	eb06 0182 	add.w	r1, r6, r2, lsl #2
 8003460:	3910      	subs	r1, #16
 8003462:	68ca      	ldr	r2, [r1, #12]
 8003464:	688e      	ldr	r6, [r1, #8]
 8003466:	684f      	ldr	r7, [r1, #4]
 8003468:	4372      	muls	r2, r6
 800346a:	f851 6910 	ldr.w	r6, [r1], #-16
 800346e:	437a      	muls	r2, r7
 8003470:	4372      	muls	r2, r6
 8003472:	4355      	muls	r5, r2
 8003474:	1e40      	subs	r0, r0, #1
 8003476:	d1f4      	bne.n	8003462 <forward_floor+0x6e>
 8003478:	6998      	ldr	r0, [r3, #24]
 800347a:	6886      	ldr	r6, [r0, #8]
 800347c:	6821      	ldr	r1, [r4, #0]
 800347e:	eb06 0085 	add.w	r0, r6, r5, lsl #2
 8003482:	1f07      	subs	r7, r0, #4
 8003484:	6888      	ldr	r0, [r1, #8]
 8003486:	eb00 0285 	add.w	r2, r0, r5, lsl #2
 800348a:	1f14      	subs	r4, r2, #4
 800348c:	42b7      	cmp	r7, r6
 800348e:	d309      	bcc.n	80034a4 <forward_floor+0xb0>
 8003490:	ed97 0a00 	vldr	s0, [r7]
 8003494:	f005 fe0c 	bl	80090b0 <floorf>
 8003498:	ed84 0a00 	vstr	s0, [r4]
 800349c:	1f3f      	subs	r7, r7, #4
 800349e:	1f24      	subs	r4, r4, #4
 80034a0:	42b7      	cmp	r7, r6
 80034a2:	d2f5      	bcs.n	8003490 <forward_floor+0x9c>
 80034a4:	b001      	add	sp, #4
 80034a6:	bdf0      	pop	{r4, r5, r6, r7, pc}

080034a8 <nl_func_round_array_f32>:
 80034a8:	b570      	push	{r4, r5, r6, lr}
 80034aa:	688c      	ldr	r4, [r1, #8]
 80034ac:	6880      	ldr	r0, [r0, #8]
 80034ae:	eb04 0182 	add.w	r1, r4, r2, lsl #2
 80034b2:	1f0d      	subs	r5, r1, #4
 80034b4:	eb00 0182 	add.w	r1, r0, r2, lsl #2
 80034b8:	1f0e      	subs	r6, r1, #4
 80034ba:	42a5      	cmp	r5, r4
 80034bc:	f0c0 800a 	bcc.w	80034d4 <nl_func_round_array_f32+0x2c>
 80034c0:	ed95 0a00 	vldr	s0, [r5]
 80034c4:	f005 ff3e 	bl	8009344 <roundf>
 80034c8:	ed86 0a00 	vstr	s0, [r6]
 80034cc:	1f2d      	subs	r5, r5, #4
 80034ce:	1f36      	subs	r6, r6, #4
 80034d0:	42a5      	cmp	r5, r4
 80034d2:	d2f5      	bcs.n	80034c0 <nl_func_round_array_f32+0x18>
 80034d4:	bd70      	pop	{r4, r5, r6, pc}
	...

080034d8 <forward_round>:
 80034d8:	b5f0      	push	{r4, r5, r6, r7, lr}
 80034da:	b081      	sub	sp, #4
 80034dc:	6942      	ldr	r2, [r0, #20]
 80034de:	8811      	ldrh	r1, [r2, #0]
 80034e0:	2900      	cmp	r1, #0
 80034e2:	bf1a      	itte	ne
 80034e4:	6850      	ldrne	r0, [r2, #4]
 80034e6:	1d00      	addne	r0, r0, #4
 80034e8:	2004      	moveq	r0, #4
 80034ea:	f04f 0501 	mov.w	r5, #1
 80034ee:	6800      	ldr	r0, [r0, #0]
 80034f0:	2800      	cmp	r0, #0
 80034f2:	bf14      	ite	ne
 80034f4:	6803      	ldrne	r3, [r0, #0]
 80034f6:	2300      	moveq	r3, #0
 80034f8:	2902      	cmp	r1, #2
 80034fa:	bfa6      	itte	ge
 80034fc:	6850      	ldrge	r0, [r2, #4]
 80034fe:	3010      	addge	r0, #16
 8003500:	2004      	movlt	r0, #4
 8003502:	6800      	ldr	r0, [r0, #0]
 8003504:	2800      	cmp	r0, #0
 8003506:	bf19      	ittee	ne
 8003508:	6800      	ldrne	r0, [r0, #0]
 800350a:	f100 0418 	addne.w	r4, r0, #24
 800350e:	2100      	moveq	r1, #0
 8003510:	f101 0418 	addeq.w	r4, r1, #24
 8003514:	f103 0108 	add.w	r1, r3, #8
 8003518:	680a      	ldr	r2, [r1, #0]
 800351a:	0a12      	lsrs	r2, r2, #8
 800351c:	d01e      	beq.n	800355c <forward_round+0x84>
 800351e:	684e      	ldr	r6, [r1, #4]
 8003520:	eb06 0182 	add.w	r1, r6, r2, lsl #2
 8003524:	4610      	mov	r0, r2
 8003526:	1f0f      	subs	r7, r1, #4
 8003528:	f010 0103 	ands.w	r1, r0, #3
 800352c:	d006      	beq.n	800353c <forward_round+0x64>
 800352e:	1e52      	subs	r2, r2, #1
 8003530:	f857 c904 	ldr.w	ip, [r7], #-4
 8003534:	1e49      	subs	r1, r1, #1
 8003536:	fb0c f505 	mul.w	r5, ip, r5
 800353a:	d1f8      	bne.n	800352e <forward_round+0x56>
 800353c:	0880      	lsrs	r0, r0, #2
 800353e:	d00d      	beq.n	800355c <forward_round+0x84>
 8003540:	eb06 0182 	add.w	r1, r6, r2, lsl #2
 8003544:	3910      	subs	r1, #16
 8003546:	68ca      	ldr	r2, [r1, #12]
 8003548:	688e      	ldr	r6, [r1, #8]
 800354a:	684f      	ldr	r7, [r1, #4]
 800354c:	4372      	muls	r2, r6
 800354e:	f851 6910 	ldr.w	r6, [r1], #-16
 8003552:	437a      	muls	r2, r7
 8003554:	4372      	muls	r2, r6
 8003556:	4355      	muls	r5, r2
 8003558:	1e40      	subs	r0, r0, #1
 800355a:	d1f4      	bne.n	8003546 <forward_round+0x6e>
 800355c:	6998      	ldr	r0, [r3, #24]
 800355e:	6886      	ldr	r6, [r0, #8]
 8003560:	6821      	ldr	r1, [r4, #0]
 8003562:	eb06 0085 	add.w	r0, r6, r5, lsl #2
 8003566:	1f07      	subs	r7, r0, #4
 8003568:	6888      	ldr	r0, [r1, #8]
 800356a:	eb00 0285 	add.w	r2, r0, r5, lsl #2
 800356e:	1f14      	subs	r4, r2, #4
 8003570:	42b7      	cmp	r7, r6
 8003572:	d309      	bcc.n	8003588 <forward_round+0xb0>
 8003574:	ed97 0a00 	vldr	s0, [r7]
 8003578:	f005 fee4 	bl	8009344 <roundf>
 800357c:	ed84 0a00 	vstr	s0, [r4]
 8003580:	1f3f      	subs	r7, r7, #4
 8003582:	1f24      	subs	r4, r4, #4
 8003584:	42b7      	cmp	r7, r6
 8003586:	d2f5      	bcs.n	8003574 <forward_round+0x9c>
 8003588:	b001      	add	sp, #4
 800358a:	bdf0      	pop	{r4, r5, r6, r7, pc}

0800358c <nl_func_neg_array_f32>:
 800358c:	6889      	ldr	r1, [r1, #8]
 800358e:	6880      	ldr	r0, [r0, #8]
 8003590:	eb01 0382 	add.w	r3, r1, r2, lsl #2
 8003594:	eb00 0282 	add.w	r2, r0, r2, lsl #2
 8003598:	1f1b      	subs	r3, r3, #4
 800359a:	1f12      	subs	r2, r2, #4
 800359c:	428b      	cmp	r3, r1
 800359e:	d32b      	bcc.n	80035f8 <nl_func_neg_array_f32+0x6c>
 80035a0:	eebf 0a00 	vmov.f32	s0, #240	; 0xbf800000 -1.0
 80035a4:	edd3 0a00 	vldr	s1, [r3]
 80035a8:	1f18      	subs	r0, r3, #4
 80035aa:	ee60 0a80 	vmul.f32	s1, s1, s0
 80035ae:	4288      	cmp	r0, r1
 80035b0:	edc2 0a00 	vstr	s1, [r2]
 80035b4:	d320      	bcc.n	80035f8 <nl_func_neg_array_f32+0x6c>
 80035b6:	ed90 1a00 	vldr	s2, [r0]
 80035ba:	1f13      	subs	r3, r2, #4
 80035bc:	1f00      	subs	r0, r0, #4
 80035be:	ee21 1a00 	vmul.f32	s2, s2, s0
 80035c2:	4288      	cmp	r0, r1
 80035c4:	ed83 1a00 	vstr	s2, [r3]
 80035c8:	d316      	bcc.n	80035f8 <nl_func_neg_array_f32+0x6c>
 80035ca:	edd0 0a00 	vldr	s1, [r0]
 80035ce:	f1a2 0308 	sub.w	r3, r2, #8
 80035d2:	1f00      	subs	r0, r0, #4
 80035d4:	ee60 0a80 	vmul.f32	s1, s1, s0
 80035d8:	4288      	cmp	r0, r1
 80035da:	edc3 0a00 	vstr	s1, [r3]
 80035de:	d30b      	bcc.n	80035f8 <nl_func_neg_array_f32+0x6c>
 80035e0:	ed90 1a00 	vldr	s2, [r0]
 80035e4:	f1a2 030c 	sub.w	r3, r2, #12
 80035e8:	ee61 0a00 	vmul.f32	s1, s2, s0
 80035ec:	edc3 0a00 	vstr	s1, [r3]
 80035f0:	1f03      	subs	r3, r0, #4
 80035f2:	3a10      	subs	r2, #16
 80035f4:	428b      	cmp	r3, r1
 80035f6:	d2d5      	bcs.n	80035a4 <nl_func_neg_array_f32+0x18>
 80035f8:	4770      	bx	lr
	...

080035fc <forward_neg>:
 80035fc:	b4f0      	push	{r4, r5, r6, r7}
 80035fe:	6942      	ldr	r2, [r0, #20]
 8003600:	8811      	ldrh	r1, [r2, #0]
 8003602:	2900      	cmp	r1, #0
 8003604:	bf1a      	itte	ne
 8003606:	6850      	ldrne	r0, [r2, #4]
 8003608:	1d00      	addne	r0, r0, #4
 800360a:	2004      	moveq	r0, #4
 800360c:	f04f 0501 	mov.w	r5, #1
 8003610:	6800      	ldr	r0, [r0, #0]
 8003612:	2800      	cmp	r0, #0
 8003614:	bf14      	ite	ne
 8003616:	6803      	ldrne	r3, [r0, #0]
 8003618:	2300      	moveq	r3, #0
 800361a:	2902      	cmp	r1, #2
 800361c:	bfa6      	itte	ge
 800361e:	6850      	ldrge	r0, [r2, #4]
 8003620:	3010      	addge	r0, #16
 8003622:	2004      	movlt	r0, #4
 8003624:	6800      	ldr	r0, [r0, #0]
 8003626:	2800      	cmp	r0, #0
 8003628:	bf19      	ittee	ne
 800362a:	6800      	ldrne	r0, [r0, #0]
 800362c:	f100 0418 	addne.w	r4, r0, #24
 8003630:	2100      	moveq	r1, #0
 8003632:	f101 0418 	addeq.w	r4, r1, #24
 8003636:	f103 0108 	add.w	r1, r3, #8
 800363a:	680a      	ldr	r2, [r1, #0]
 800363c:	0a12      	lsrs	r2, r2, #8
 800363e:	d01e      	beq.n	800367e <forward_neg+0x82>
 8003640:	684e      	ldr	r6, [r1, #4]
 8003642:	eb06 0182 	add.w	r1, r6, r2, lsl #2
 8003646:	4610      	mov	r0, r2
 8003648:	1f0f      	subs	r7, r1, #4
 800364a:	f010 0103 	ands.w	r1, r0, #3
 800364e:	d006      	beq.n	800365e <forward_neg+0x62>
 8003650:	1e52      	subs	r2, r2, #1
 8003652:	f857 c904 	ldr.w	ip, [r7], #-4
 8003656:	1e49      	subs	r1, r1, #1
 8003658:	fb0c f505 	mul.w	r5, ip, r5
 800365c:	d1f8      	bne.n	8003650 <forward_neg+0x54>
 800365e:	0880      	lsrs	r0, r0, #2
 8003660:	d00d      	beq.n	800367e <forward_neg+0x82>
 8003662:	eb06 0182 	add.w	r1, r6, r2, lsl #2
 8003666:	3910      	subs	r1, #16
 8003668:	68ca      	ldr	r2, [r1, #12]
 800366a:	688e      	ldr	r6, [r1, #8]
 800366c:	684f      	ldr	r7, [r1, #4]
 800366e:	4372      	muls	r2, r6
 8003670:	f851 6910 	ldr.w	r6, [r1], #-16
 8003674:	437a      	muls	r2, r7
 8003676:	4372      	muls	r2, r6
 8003678:	4355      	muls	r5, r2
 800367a:	1e40      	subs	r0, r0, #1
 800367c:	d1f4      	bne.n	8003668 <forward_neg+0x6c>
 800367e:	6998      	ldr	r0, [r3, #24]
 8003680:	6822      	ldr	r2, [r4, #0]
 8003682:	6880      	ldr	r0, [r0, #8]
 8003684:	6893      	ldr	r3, [r2, #8]
 8003686:	eb00 0185 	add.w	r1, r0, r5, lsl #2
 800368a:	eb03 0485 	add.w	r4, r3, r5, lsl #2
 800368e:	1f09      	subs	r1, r1, #4
 8003690:	1f22      	subs	r2, r4, #4
 8003692:	4281      	cmp	r1, r0
 8003694:	f0c0 802c 	bcc.w	80036f0 <forward_neg+0xf4>
 8003698:	eebf 0a00 	vmov.f32	s0, #240	; 0xbf800000 -1.0
 800369c:	edd1 0a00 	vldr	s1, [r1]
 80036a0:	1f09      	subs	r1, r1, #4
 80036a2:	ee60 0a80 	vmul.f32	s1, s1, s0
 80036a6:	4281      	cmp	r1, r0
 80036a8:	edc2 0a00 	vstr	s1, [r2]
 80036ac:	d320      	bcc.n	80036f0 <forward_neg+0xf4>
 80036ae:	ed91 1a00 	vldr	s2, [r1]
 80036b2:	1f13      	subs	r3, r2, #4
 80036b4:	1f09      	subs	r1, r1, #4
 80036b6:	ee21 1a00 	vmul.f32	s2, s2, s0
 80036ba:	4281      	cmp	r1, r0
 80036bc:	ed83 1a00 	vstr	s2, [r3]
 80036c0:	d316      	bcc.n	80036f0 <forward_neg+0xf4>
 80036c2:	edd1 0a00 	vldr	s1, [r1]
 80036c6:	f1a2 0308 	sub.w	r3, r2, #8
 80036ca:	1f09      	subs	r1, r1, #4
 80036cc:	ee60 0a80 	vmul.f32	s1, s1, s0
 80036d0:	4281      	cmp	r1, r0
 80036d2:	edc3 0a00 	vstr	s1, [r3]
 80036d6:	d30b      	bcc.n	80036f0 <forward_neg+0xf4>
 80036d8:	ed91 1a00 	vldr	s2, [r1]
 80036dc:	f1a2 030c 	sub.w	r3, r2, #12
 80036e0:	1f09      	subs	r1, r1, #4
 80036e2:	3a10      	subs	r2, #16
 80036e4:	ee61 0a00 	vmul.f32	s1, s2, s0
 80036e8:	4281      	cmp	r1, r0
 80036ea:	edc3 0a00 	vstr	s1, [r3]
 80036ee:	d2d5      	bcs.n	800369c <forward_neg+0xa0>
 80036f0:	bcf0      	pop	{r4, r5, r6, r7}
 80036f2:	4770      	bx	lr

080036f4 <nl_func_reciprocal_array_f32>:
 80036f4:	6889      	ldr	r1, [r1, #8]
 80036f6:	6880      	ldr	r0, [r0, #8]
 80036f8:	eb01 0382 	add.w	r3, r1, r2, lsl #2
 80036fc:	eb00 0282 	add.w	r2, r0, r2, lsl #2
 8003700:	1f1b      	subs	r3, r3, #4
 8003702:	1f12      	subs	r2, r2, #4
 8003704:	428b      	cmp	r3, r1
 8003706:	d331      	bcc.n	800376c <nl_func_reciprocal_array_f32+0x78>
 8003708:	ed93 0a00 	vldr	s0, [r3]
 800370c:	eef7 0a00 	vmov.f32	s1, #112	; 0x3f800000  1.0
 8003710:	1f18      	subs	r0, r3, #4
 8003712:	ee80 0a80 	vdiv.f32	s0, s1, s0
 8003716:	4288      	cmp	r0, r1
 8003718:	ed82 0a00 	vstr	s0, [r2]
 800371c:	d326      	bcc.n	800376c <nl_func_reciprocal_array_f32+0x78>
 800371e:	edd0 0a00 	vldr	s1, [r0]
 8003722:	eeb7 0a00 	vmov.f32	s0, #112	; 0x3f800000  1.0
 8003726:	1f13      	subs	r3, r2, #4
 8003728:	1f00      	subs	r0, r0, #4
 800372a:	ee80 0a20 	vdiv.f32	s0, s0, s1
 800372e:	4288      	cmp	r0, r1
 8003730:	ed83 0a00 	vstr	s0, [r3]
 8003734:	d31a      	bcc.n	800376c <nl_func_reciprocal_array_f32+0x78>
 8003736:	ed90 0a00 	vldr	s0, [r0]
 800373a:	eef7 0a00 	vmov.f32	s1, #112	; 0x3f800000  1.0
 800373e:	f1a2 0308 	sub.w	r3, r2, #8
 8003742:	1f00      	subs	r0, r0, #4
 8003744:	ee80 0a80 	vdiv.f32	s0, s1, s0
 8003748:	4288      	cmp	r0, r1
 800374a:	ed83 0a00 	vstr	s0, [r3]
 800374e:	d30d      	bcc.n	800376c <nl_func_reciprocal_array_f32+0x78>
 8003750:	edd0 0a00 	vldr	s1, [r0]
 8003754:	eeb7 0a00 	vmov.f32	s0, #112	; 0x3f800000  1.0
 8003758:	f1a2 030c 	sub.w	r3, r2, #12
 800375c:	ee80 0a20 	vdiv.f32	s0, s0, s1
 8003760:	ed83 0a00 	vstr	s0, [r3]
 8003764:	1f03      	subs	r3, r0, #4
 8003766:	3a10      	subs	r2, #16
 8003768:	428b      	cmp	r3, r1
 800376a:	d2cd      	bcs.n	8003708 <nl_func_reciprocal_array_f32+0x14>
 800376c:	4770      	bx	lr
	...

08003770 <forward_reciprocal>:
 8003770:	b4f0      	push	{r4, r5, r6, r7}
 8003772:	6942      	ldr	r2, [r0, #20]
 8003774:	8811      	ldrh	r1, [r2, #0]
 8003776:	2900      	cmp	r1, #0
 8003778:	bf1a      	itte	ne
 800377a:	6850      	ldrne	r0, [r2, #4]
 800377c:	1d00      	addne	r0, r0, #4
 800377e:	2004      	moveq	r0, #4
 8003780:	f04f 0501 	mov.w	r5, #1
 8003784:	6800      	ldr	r0, [r0, #0]
 8003786:	2800      	cmp	r0, #0
 8003788:	bf14      	ite	ne
 800378a:	6803      	ldrne	r3, [r0, #0]
 800378c:	2300      	moveq	r3, #0
 800378e:	2902      	cmp	r1, #2
 8003790:	bfa6      	itte	ge
 8003792:	6850      	ldrge	r0, [r2, #4]
 8003794:	3010      	addge	r0, #16
 8003796:	2004      	movlt	r0, #4
 8003798:	6800      	ldr	r0, [r0, #0]
 800379a:	2800      	cmp	r0, #0
 800379c:	bf19      	ittee	ne
 800379e:	6800      	ldrne	r0, [r0, #0]
 80037a0:	f100 0418 	addne.w	r4, r0, #24
 80037a4:	2100      	moveq	r1, #0
 80037a6:	f101 0418 	addeq.w	r4, r1, #24
 80037aa:	f103 0108 	add.w	r1, r3, #8
 80037ae:	680a      	ldr	r2, [r1, #0]
 80037b0:	0a12      	lsrs	r2, r2, #8
 80037b2:	d01e      	beq.n	80037f2 <forward_reciprocal+0x82>
 80037b4:	684e      	ldr	r6, [r1, #4]
 80037b6:	eb06 0182 	add.w	r1, r6, r2, lsl #2
 80037ba:	4610      	mov	r0, r2
 80037bc:	1f0f      	subs	r7, r1, #4
 80037be:	f010 0103 	ands.w	r1, r0, #3
 80037c2:	d006      	beq.n	80037d2 <forward_reciprocal+0x62>
 80037c4:	1e52      	subs	r2, r2, #1
 80037c6:	f857 c904 	ldr.w	ip, [r7], #-4
 80037ca:	1e49      	subs	r1, r1, #1
 80037cc:	fb0c f505 	mul.w	r5, ip, r5
 80037d0:	d1f8      	bne.n	80037c4 <forward_reciprocal+0x54>
 80037d2:	0880      	lsrs	r0, r0, #2
 80037d4:	d00d      	beq.n	80037f2 <forward_reciprocal+0x82>
 80037d6:	eb06 0182 	add.w	r1, r6, r2, lsl #2
 80037da:	3910      	subs	r1, #16
 80037dc:	68ca      	ldr	r2, [r1, #12]
 80037de:	688e      	ldr	r6, [r1, #8]
 80037e0:	684f      	ldr	r7, [r1, #4]
 80037e2:	4372      	muls	r2, r6
 80037e4:	f851 6910 	ldr.w	r6, [r1], #-16
 80037e8:	437a      	muls	r2, r7
 80037ea:	4372      	muls	r2, r6
 80037ec:	4355      	muls	r5, r2
 80037ee:	1e40      	subs	r0, r0, #1
 80037f0:	d1f4      	bne.n	80037dc <forward_reciprocal+0x6c>
 80037f2:	6998      	ldr	r0, [r3, #24]
 80037f4:	6822      	ldr	r2, [r4, #0]
 80037f6:	6880      	ldr	r0, [r0, #8]
 80037f8:	6893      	ldr	r3, [r2, #8]
 80037fa:	eb00 0185 	add.w	r1, r0, r5, lsl #2
 80037fe:	eb03 0485 	add.w	r4, r3, r5, lsl #2
 8003802:	1f09      	subs	r1, r1, #4
 8003804:	1f22      	subs	r2, r4, #4
 8003806:	4281      	cmp	r1, r0
 8003808:	f0c0 8032 	bcc.w	8003870 <forward_reciprocal+0x100>
 800380c:	ed91 0a00 	vldr	s0, [r1]
 8003810:	eef7 0a00 	vmov.f32	s1, #112	; 0x3f800000  1.0
 8003814:	1f09      	subs	r1, r1, #4
 8003816:	ee80 0a80 	vdiv.f32	s0, s1, s0
 800381a:	4281      	cmp	r1, r0
 800381c:	ed82 0a00 	vstr	s0, [r2]
 8003820:	d326      	bcc.n	8003870 <forward_reciprocal+0x100>
 8003822:	edd1 0a00 	vldr	s1, [r1]
 8003826:	eeb7 0a00 	vmov.f32	s0, #112	; 0x3f800000  1.0
 800382a:	1f13      	subs	r3, r2, #4
 800382c:	1f09      	subs	r1, r1, #4
 800382e:	ee80 0a20 	vdiv.f32	s0, s0, s1
 8003832:	4281      	cmp	r1, r0
 8003834:	ed83 0a00 	vstr	s0, [r3]
 8003838:	d31a      	bcc.n	8003870 <forward_reciprocal+0x100>
 800383a:	ed91 0a00 	vldr	s0, [r1]
 800383e:	eef7 0a00 	vmov.f32	s1, #112	; 0x3f800000  1.0
 8003842:	f1a2 0308 	sub.w	r3, r2, #8
 8003846:	1f09      	subs	r1, r1, #4
 8003848:	ee80 0a80 	vdiv.f32	s0, s1, s0
 800384c:	4281      	cmp	r1, r0
 800384e:	ed83 0a00 	vstr	s0, [r3]
 8003852:	d30d      	bcc.n	8003870 <forward_reciprocal+0x100>
 8003854:	edd1 0a00 	vldr	s1, [r1]
 8003858:	eeb7 0a00 	vmov.f32	s0, #112	; 0x3f800000  1.0
 800385c:	f1a2 030c 	sub.w	r3, r2, #12
 8003860:	1f09      	subs	r1, r1, #4
 8003862:	3a10      	subs	r2, #16
 8003864:	ee80 0a20 	vdiv.f32	s0, s0, s1
 8003868:	4281      	cmp	r1, r0
 800386a:	ed83 0a00 	vstr	s0, [r3]
 800386e:	d2cd      	bcs.n	800380c <forward_reciprocal+0x9c>
 8003870:	bcf0      	pop	{r4, r5, r6, r7}
 8003872:	4770      	bx	lr

08003874 <nl_func_exp_array_f32>:
 8003874:	b570      	push	{r4, r5, r6, lr}
 8003876:	688c      	ldr	r4, [r1, #8]
 8003878:	6880      	ldr	r0, [r0, #8]
 800387a:	eb04 0182 	add.w	r1, r4, r2, lsl #2
 800387e:	1f0d      	subs	r5, r1, #4
 8003880:	eb00 0182 	add.w	r1, r0, r2, lsl #2
 8003884:	1f0e      	subs	r6, r1, #4
 8003886:	42a5      	cmp	r5, r4
 8003888:	f0c0 800a 	bcc.w	80038a0 <nl_func_exp_array_f32+0x2c>
 800388c:	ed95 0a00 	vldr	s0, [r5]
 8003890:	f006 f80e 	bl	80098b0 <expf>
 8003894:	ed86 0a00 	vstr	s0, [r6]
 8003898:	1f2d      	subs	r5, r5, #4
 800389a:	1f36      	subs	r6, r6, #4
 800389c:	42a5      	cmp	r5, r4
 800389e:	d2f5      	bcs.n	800388c <nl_func_exp_array_f32+0x18>
 80038a0:	bd70      	pop	{r4, r5, r6, pc}
	...

080038a4 <forward_exp>:
 80038a4:	b5f0      	push	{r4, r5, r6, r7, lr}
 80038a6:	b081      	sub	sp, #4
 80038a8:	6942      	ldr	r2, [r0, #20]
 80038aa:	8811      	ldrh	r1, [r2, #0]
 80038ac:	2900      	cmp	r1, #0
 80038ae:	bf1a      	itte	ne
 80038b0:	6850      	ldrne	r0, [r2, #4]
 80038b2:	1d00      	addne	r0, r0, #4
 80038b4:	2004      	moveq	r0, #4
 80038b6:	f04f 0501 	mov.w	r5, #1
 80038ba:	6800      	ldr	r0, [r0, #0]
 80038bc:	2800      	cmp	r0, #0
 80038be:	bf14      	ite	ne
 80038c0:	6803      	ldrne	r3, [r0, #0]
 80038c2:	2300      	moveq	r3, #0
 80038c4:	2902      	cmp	r1, #2
 80038c6:	bfa6      	itte	ge
 80038c8:	6850      	ldrge	r0, [r2, #4]
 80038ca:	3010      	addge	r0, #16
 80038cc:	2004      	movlt	r0, #4
 80038ce:	6800      	ldr	r0, [r0, #0]
 80038d0:	2800      	cmp	r0, #0
 80038d2:	bf19      	ittee	ne
 80038d4:	6800      	ldrne	r0, [r0, #0]
 80038d6:	f100 0418 	addne.w	r4, r0, #24
 80038da:	2100      	moveq	r1, #0
 80038dc:	f101 0418 	addeq.w	r4, r1, #24
 80038e0:	f103 0108 	add.w	r1, r3, #8
 80038e4:	680a      	ldr	r2, [r1, #0]
 80038e6:	0a12      	lsrs	r2, r2, #8
 80038e8:	d01e      	beq.n	8003928 <forward_exp+0x84>
 80038ea:	684e      	ldr	r6, [r1, #4]
 80038ec:	eb06 0182 	add.w	r1, r6, r2, lsl #2
 80038f0:	4610      	mov	r0, r2
 80038f2:	1f0f      	subs	r7, r1, #4
 80038f4:	f010 0103 	ands.w	r1, r0, #3
 80038f8:	d006      	beq.n	8003908 <forward_exp+0x64>
 80038fa:	1e52      	subs	r2, r2, #1
 80038fc:	f857 c904 	ldr.w	ip, [r7], #-4
 8003900:	1e49      	subs	r1, r1, #1
 8003902:	fb0c f505 	mul.w	r5, ip, r5
 8003906:	d1f8      	bne.n	80038fa <forward_exp+0x56>
 8003908:	0880      	lsrs	r0, r0, #2
 800390a:	d00d      	beq.n	8003928 <forward_exp+0x84>
 800390c:	eb06 0182 	add.w	r1, r6, r2, lsl #2
 8003910:	3910      	subs	r1, #16
 8003912:	68ca      	ldr	r2, [r1, #12]
 8003914:	688e      	ldr	r6, [r1, #8]
 8003916:	684f      	ldr	r7, [r1, #4]
 8003918:	4372      	muls	r2, r6
 800391a:	f851 6910 	ldr.w	r6, [r1], #-16
 800391e:	437a      	muls	r2, r7
 8003920:	4372      	muls	r2, r6
 8003922:	4355      	muls	r5, r2
 8003924:	1e40      	subs	r0, r0, #1
 8003926:	d1f4      	bne.n	8003912 <forward_exp+0x6e>
 8003928:	6998      	ldr	r0, [r3, #24]
 800392a:	6886      	ldr	r6, [r0, #8]
 800392c:	6821      	ldr	r1, [r4, #0]
 800392e:	eb06 0085 	add.w	r0, r6, r5, lsl #2
 8003932:	1f07      	subs	r7, r0, #4
 8003934:	6888      	ldr	r0, [r1, #8]
 8003936:	eb00 0285 	add.w	r2, r0, r5, lsl #2
 800393a:	1f14      	subs	r4, r2, #4
 800393c:	42b7      	cmp	r7, r6
 800393e:	d309      	bcc.n	8003954 <forward_exp+0xb0>
 8003940:	ed97 0a00 	vldr	s0, [r7]
 8003944:	f005 ffb4 	bl	80098b0 <expf>
 8003948:	ed84 0a00 	vstr	s0, [r4]
 800394c:	1f3f      	subs	r7, r7, #4
 800394e:	1f24      	subs	r4, r4, #4
 8003950:	42b7      	cmp	r7, r6
 8003952:	d2f5      	bcs.n	8003940 <forward_exp+0x9c>
 8003954:	b001      	add	sp, #4
 8003956:	bdf0      	pop	{r4, r5, r6, r7, pc}

08003958 <nl_func_sigmoid_array_f32>:
 8003958:	b570      	push	{r4, r5, r6, lr}
 800395a:	688c      	ldr	r4, [r1, #8]
 800395c:	6880      	ldr	r0, [r0, #8]
 800395e:	eb04 0182 	add.w	r1, r4, r2, lsl #2
 8003962:	1f0d      	subs	r5, r1, #4
 8003964:	eb00 0182 	add.w	r1, r0, r2, lsl #2
 8003968:	1f0e      	subs	r6, r1, #4
 800396a:	42a5      	cmp	r5, r4
 800396c:	f0c0 8014 	bcc.w	8003998 <nl_func_sigmoid_array_f32+0x40>
 8003970:	ed95 0a00 	vldr	s0, [r5]
 8003974:	eeb1 0a40 	vneg.f32	s0, s0
 8003978:	f005 ff9a 	bl	80098b0 <expf>
 800397c:	eef7 0a00 	vmov.f32	s1, #112	; 0x3f800000  1.0
 8003980:	ee70 0a20 	vadd.f32	s1, s0, s1
 8003984:	eeb7 0a00 	vmov.f32	s0, #112	; 0x3f800000  1.0
 8003988:	ee80 0a20 	vdiv.f32	s0, s0, s1
 800398c:	ed86 0a00 	vstr	s0, [r6]
 8003990:	1f2d      	subs	r5, r5, #4
 8003992:	1f36      	subs	r6, r6, #4
 8003994:	42a5      	cmp	r5, r4
 8003996:	d2eb      	bcs.n	8003970 <nl_func_sigmoid_array_f32+0x18>
 8003998:	bd70      	pop	{r4, r5, r6, pc}
	...

0800399c <forward_sigmoid>:
 800399c:	b5f0      	push	{r4, r5, r6, r7, lr}
 800399e:	b081      	sub	sp, #4
 80039a0:	6942      	ldr	r2, [r0, #20]
 80039a2:	8811      	ldrh	r1, [r2, #0]
 80039a4:	2900      	cmp	r1, #0
 80039a6:	bf1a      	itte	ne
 80039a8:	6850      	ldrne	r0, [r2, #4]
 80039aa:	1d00      	addne	r0, r0, #4
 80039ac:	2004      	moveq	r0, #4
 80039ae:	f04f 0501 	mov.w	r5, #1
 80039b2:	6800      	ldr	r0, [r0, #0]
 80039b4:	2800      	cmp	r0, #0
 80039b6:	bf14      	ite	ne
 80039b8:	6803      	ldrne	r3, [r0, #0]
 80039ba:	2300      	moveq	r3, #0
 80039bc:	2902      	cmp	r1, #2
 80039be:	bfa6      	itte	ge
 80039c0:	6850      	ldrge	r0, [r2, #4]
 80039c2:	3010      	addge	r0, #16
 80039c4:	2004      	movlt	r0, #4
 80039c6:	6800      	ldr	r0, [r0, #0]
 80039c8:	2800      	cmp	r0, #0
 80039ca:	bf19      	ittee	ne
 80039cc:	6800      	ldrne	r0, [r0, #0]
 80039ce:	f100 0418 	addne.w	r4, r0, #24
 80039d2:	2100      	moveq	r1, #0
 80039d4:	f101 0418 	addeq.w	r4, r1, #24
 80039d8:	f103 0108 	add.w	r1, r3, #8
 80039dc:	680a      	ldr	r2, [r1, #0]
 80039de:	0a12      	lsrs	r2, r2, #8
 80039e0:	d01e      	beq.n	8003a20 <forward_sigmoid+0x84>
 80039e2:	684e      	ldr	r6, [r1, #4]
 80039e4:	eb06 0182 	add.w	r1, r6, r2, lsl #2
 80039e8:	4610      	mov	r0, r2
 80039ea:	1f0f      	subs	r7, r1, #4
 80039ec:	f010 0103 	ands.w	r1, r0, #3
 80039f0:	d006      	beq.n	8003a00 <forward_sigmoid+0x64>
 80039f2:	1e52      	subs	r2, r2, #1
 80039f4:	f857 c904 	ldr.w	ip, [r7], #-4
 80039f8:	1e49      	subs	r1, r1, #1
 80039fa:	fb0c f505 	mul.w	r5, ip, r5
 80039fe:	d1f8      	bne.n	80039f2 <forward_sigmoid+0x56>
 8003a00:	0880      	lsrs	r0, r0, #2
 8003a02:	d00d      	beq.n	8003a20 <forward_sigmoid+0x84>
 8003a04:	eb06 0182 	add.w	r1, r6, r2, lsl #2
 8003a08:	3910      	subs	r1, #16
 8003a0a:	68ca      	ldr	r2, [r1, #12]
 8003a0c:	688e      	ldr	r6, [r1, #8]
 8003a0e:	684f      	ldr	r7, [r1, #4]
 8003a10:	4372      	muls	r2, r6
 8003a12:	f851 6910 	ldr.w	r6, [r1], #-16
 8003a16:	437a      	muls	r2, r7
 8003a18:	4372      	muls	r2, r6
 8003a1a:	4355      	muls	r5, r2
 8003a1c:	1e40      	subs	r0, r0, #1
 8003a1e:	d1f4      	bne.n	8003a0a <forward_sigmoid+0x6e>
 8003a20:	6998      	ldr	r0, [r3, #24]
 8003a22:	6886      	ldr	r6, [r0, #8]
 8003a24:	6821      	ldr	r1, [r4, #0]
 8003a26:	eb06 0085 	add.w	r0, r6, r5, lsl #2
 8003a2a:	1f07      	subs	r7, r0, #4
 8003a2c:	6888      	ldr	r0, [r1, #8]
 8003a2e:	eb00 0285 	add.w	r2, r0, r5, lsl #2
 8003a32:	1f14      	subs	r4, r2, #4
 8003a34:	42b7      	cmp	r7, r6
 8003a36:	d313      	bcc.n	8003a60 <forward_sigmoid+0xc4>
 8003a38:	ed97 0a00 	vldr	s0, [r7]
 8003a3c:	eeb1 0a40 	vneg.f32	s0, s0
 8003a40:	f005 ff36 	bl	80098b0 <expf>
 8003a44:	eef7 0a00 	vmov.f32	s1, #112	; 0x3f800000  1.0
 8003a48:	ee70 0a20 	vadd.f32	s1, s0, s1
 8003a4c:	eeb7 0a00 	vmov.f32	s0, #112	; 0x3f800000  1.0
 8003a50:	ee80 0a20 	vdiv.f32	s0, s0, s1
 8003a54:	ed84 0a00 	vstr	s0, [r4]
 8003a58:	1f3f      	subs	r7, r7, #4
 8003a5a:	1f24      	subs	r4, r4, #4
 8003a5c:	42b7      	cmp	r7, r6
 8003a5e:	d2eb      	bcs.n	8003a38 <forward_sigmoid+0x9c>
 8003a60:	b001      	add	sp, #4
 8003a62:	bdf0      	pop	{r4, r5, r6, r7, pc}

08003a64 <nl_func_sign_array_f32>:
 8003a64:	6889      	ldr	r1, [r1, #8]
 8003a66:	6880      	ldr	r0, [r0, #8]
 8003a68:	eb01 0382 	add.w	r3, r1, r2, lsl #2
 8003a6c:	eb00 0282 	add.w	r2, r0, r2, lsl #2
 8003a70:	1f1b      	subs	r3, r3, #4
 8003a72:	1f10      	subs	r0, r2, #4
 8003a74:	428b      	cmp	r3, r1
 8003a76:	d314      	bcc.n	8003aa2 <nl_func_sign_array_f32+0x3e>
 8003a78:	f04f 32ff 	mov.w	r2, #4294967295
 8003a7c:	ed93 0a00 	vldr	s0, [r3]
 8003a80:	eeb5 0a40 	vcmp.f32	s0, #0.0
 8003a84:	eef1 fa10 	vmrs	APSR_nzcv, fpscr
 8003a88:	bfcc      	ite	gt
 8003a8a:	ed9f 0a39 	vldrgt	s0, [pc, #228]	; 8003b70 <.text_49>
 8003a8e:	ee00 2a10 	vmovle	s0, r2
 8003a92:	eeb8 0ac0 	vcvt.f32.s32	s0, s0
 8003a96:	ed80 0a00 	vstr	s0, [r0]
 8003a9a:	1f1b      	subs	r3, r3, #4
 8003a9c:	1f00      	subs	r0, r0, #4
 8003a9e:	428b      	cmp	r3, r1
 8003aa0:	d2ec      	bcs.n	8003a7c <nl_func_sign_array_f32+0x18>
 8003aa2:	4770      	bx	lr

08003aa4 <forward_sign>:
 8003aa4:	b4f0      	push	{r4, r5, r6, r7}
 8003aa6:	6942      	ldr	r2, [r0, #20]
 8003aa8:	8811      	ldrh	r1, [r2, #0]
 8003aaa:	2900      	cmp	r1, #0
 8003aac:	bf1a      	itte	ne
 8003aae:	6850      	ldrne	r0, [r2, #4]
 8003ab0:	1d00      	addne	r0, r0, #4
 8003ab2:	2004      	moveq	r0, #4
 8003ab4:	f04f 0501 	mov.w	r5, #1
 8003ab8:	6800      	ldr	r0, [r0, #0]
 8003aba:	2800      	cmp	r0, #0
 8003abc:	bf14      	ite	ne
 8003abe:	6803      	ldrne	r3, [r0, #0]
 8003ac0:	2300      	moveq	r3, #0
 8003ac2:	2901      	cmp	r1, #1
 8003ac4:	bfc6      	itte	gt
 8003ac6:	6850      	ldrgt	r0, [r2, #4]
 8003ac8:	3010      	addgt	r0, #16
 8003aca:	2004      	movle	r0, #4
 8003acc:	6800      	ldr	r0, [r0, #0]
 8003ace:	2800      	cmp	r0, #0
 8003ad0:	bf19      	ittee	ne
 8003ad2:	6800      	ldrne	r0, [r0, #0]
 8003ad4:	f100 0418 	addne.w	r4, r0, #24
 8003ad8:	2100      	moveq	r1, #0
 8003ada:	f101 0418 	addeq.w	r4, r1, #24
 8003ade:	f103 0108 	add.w	r1, r3, #8
 8003ae2:	680a      	ldr	r2, [r1, #0]
 8003ae4:	0a12      	lsrs	r2, r2, #8
 8003ae6:	d01e      	beq.n	8003b26 <forward_sign+0x82>
 8003ae8:	684e      	ldr	r6, [r1, #4]
 8003aea:	eb06 0182 	add.w	r1, r6, r2, lsl #2
 8003aee:	4610      	mov	r0, r2
 8003af0:	1f0f      	subs	r7, r1, #4
 8003af2:	f010 0103 	ands.w	r1, r0, #3
 8003af6:	d006      	beq.n	8003b06 <forward_sign+0x62>
 8003af8:	1e52      	subs	r2, r2, #1
 8003afa:	f857 c904 	ldr.w	ip, [r7], #-4
 8003afe:	1e49      	subs	r1, r1, #1
 8003b00:	fb0c f505 	mul.w	r5, ip, r5
 8003b04:	d1f8      	bne.n	8003af8 <forward_sign+0x54>
 8003b06:	0880      	lsrs	r0, r0, #2
 8003b08:	d00d      	beq.n	8003b26 <forward_sign+0x82>
 8003b0a:	eb06 0182 	add.w	r1, r6, r2, lsl #2
 8003b0e:	3910      	subs	r1, #16
 8003b10:	68ca      	ldr	r2, [r1, #12]
 8003b12:	688e      	ldr	r6, [r1, #8]
 8003b14:	684f      	ldr	r7, [r1, #4]
 8003b16:	4372      	muls	r2, r6
 8003b18:	f851 6910 	ldr.w	r6, [r1], #-16
 8003b1c:	437a      	muls	r2, r7
 8003b1e:	4372      	muls	r2, r6
 8003b20:	4355      	muls	r5, r2
 8003b22:	1e40      	subs	r0, r0, #1
 8003b24:	d1f4      	bne.n	8003b10 <forward_sign+0x6c>
 8003b26:	6998      	ldr	r0, [r3, #24]
 8003b28:	6822      	ldr	r2, [r4, #0]
 8003b2a:	6880      	ldr	r0, [r0, #8]
 8003b2c:	6893      	ldr	r3, [r2, #8]
 8003b2e:	eb00 0185 	add.w	r1, r0, r5, lsl #2
 8003b32:	eb03 0485 	add.w	r4, r3, r5, lsl #2
 8003b36:	1f09      	subs	r1, r1, #4
 8003b38:	1f22      	subs	r2, r4, #4
 8003b3a:	4281      	cmp	r1, r0
 8003b3c:	f0c0 8015 	bcc.w	8003b6a <forward_sign+0xc6>
 8003b40:	f04f 33ff 	mov.w	r3, #4294967295
 8003b44:	ed91 0a00 	vldr	s0, [r1]
 8003b48:	eeb5 0a40 	vcmp.f32	s0, #0.0
 8003b4c:	eef1 fa10 	vmrs	APSR_nzcv, fpscr
 8003b50:	bfcc      	ite	gt
 8003b52:	ed9f 0a07 	vldrgt	s0, [pc, #28]	; 8003b70 <.text_49>
 8003b56:	ee00 3a10 	vmovle	s0, r3
 8003b5a:	eeb8 0ac0 	vcvt.f32.s32	s0, s0
 8003b5e:	ed82 0a00 	vstr	s0, [r2]
 8003b62:	1f09      	subs	r1, r1, #4
 8003b64:	1f12      	subs	r2, r2, #4
 8003b66:	4281      	cmp	r1, r0
 8003b68:	d2ec      	bcs.n	8003b44 <forward_sign+0xa0>
 8003b6a:	bcf0      	pop	{r4, r5, r6, r7}
 8003b6c:	4770      	bx	lr
	...

08003b70 <.text_49>:
 8003b70:	00000001 	.word	0x00000001

08003b74 <nl_func_sqrt_array_f32>:
 8003b74:	b570      	push	{r4, r5, r6, lr}
 8003b76:	460c      	mov	r4, r1
 8003b78:	6880      	ldr	r0, [r0, #8]
 8003b7a:	68a1      	ldr	r1, [r4, #8]
 8003b7c:	eb01 0382 	add.w	r3, r1, r2, lsl #2
 8003b80:	eb00 0282 	add.w	r2, r0, r2, lsl #2
 8003b84:	1f1d      	subs	r5, r3, #4
 8003b86:	1f16      	subs	r6, r2, #4
 8003b88:	428d      	cmp	r5, r1
 8003b8a:	d30a      	bcc.n	8003ba2 <nl_func_sqrt_array_f32+0x2e>
 8003b8c:	ed95 0a00 	vldr	s0, [r5]
 8003b90:	f002 faa8 	bl	80060e4 <ai_math_sqrt>
 8003b94:	ed86 0a00 	vstr	s0, [r6]
 8003b98:	1f2d      	subs	r5, r5, #4
 8003b9a:	68a0      	ldr	r0, [r4, #8]
 8003b9c:	1f36      	subs	r6, r6, #4
 8003b9e:	4285      	cmp	r5, r0
 8003ba0:	d2f4      	bcs.n	8003b8c <nl_func_sqrt_array_f32+0x18>
 8003ba2:	bd70      	pop	{r4, r5, r6, pc}

08003ba4 <forward_sqrt>:
 8003ba4:	b5f0      	push	{r4, r5, r6, r7, lr}
 8003ba6:	b081      	sub	sp, #4
 8003ba8:	6942      	ldr	r2, [r0, #20]
 8003baa:	8811      	ldrh	r1, [r2, #0]
 8003bac:	2900      	cmp	r1, #0
 8003bae:	bf1a      	itte	ne
 8003bb0:	6850      	ldrne	r0, [r2, #4]
 8003bb2:	1d00      	addne	r0, r0, #4
 8003bb4:	2004      	moveq	r0, #4
 8003bb6:	f04f 0501 	mov.w	r5, #1
 8003bba:	6800      	ldr	r0, [r0, #0]
 8003bbc:	2800      	cmp	r0, #0
 8003bbe:	bf14      	ite	ne
 8003bc0:	6803      	ldrne	r3, [r0, #0]
 8003bc2:	2300      	moveq	r3, #0
 8003bc4:	2902      	cmp	r1, #2
 8003bc6:	bfa6      	itte	ge
 8003bc8:	6850      	ldrge	r0, [r2, #4]
 8003bca:	3010      	addge	r0, #16
 8003bcc:	2004      	movlt	r0, #4
 8003bce:	6800      	ldr	r0, [r0, #0]
 8003bd0:	2800      	cmp	r0, #0
 8003bd2:	bf19      	ittee	ne
 8003bd4:	6800      	ldrne	r0, [r0, #0]
 8003bd6:	f100 0418 	addne.w	r4, r0, #24
 8003bda:	2100      	moveq	r1, #0
 8003bdc:	f101 0418 	addeq.w	r4, r1, #24
 8003be0:	f103 0108 	add.w	r1, r3, #8
 8003be4:	680a      	ldr	r2, [r1, #0]
 8003be6:	0a12      	lsrs	r2, r2, #8
 8003be8:	d01e      	beq.n	8003c28 <forward_sqrt+0x84>
 8003bea:	684e      	ldr	r6, [r1, #4]
 8003bec:	eb06 0182 	add.w	r1, r6, r2, lsl #2
 8003bf0:	4610      	mov	r0, r2
 8003bf2:	1f0f      	subs	r7, r1, #4
 8003bf4:	f010 0103 	ands.w	r1, r0, #3
 8003bf8:	d006      	beq.n	8003c08 <forward_sqrt+0x64>
 8003bfa:	1e52      	subs	r2, r2, #1
 8003bfc:	f857 c904 	ldr.w	ip, [r7], #-4
 8003c00:	1e49      	subs	r1, r1, #1
 8003c02:	fb0c f505 	mul.w	r5, ip, r5
 8003c06:	d1f8      	bne.n	8003bfa <forward_sqrt+0x56>
 8003c08:	0880      	lsrs	r0, r0, #2
 8003c0a:	d00d      	beq.n	8003c28 <forward_sqrt+0x84>
 8003c0c:	eb06 0182 	add.w	r1, r6, r2, lsl #2
 8003c10:	3910      	subs	r1, #16
 8003c12:	68ca      	ldr	r2, [r1, #12]
 8003c14:	688e      	ldr	r6, [r1, #8]
 8003c16:	684f      	ldr	r7, [r1, #4]
 8003c18:	4372      	muls	r2, r6
 8003c1a:	f851 6910 	ldr.w	r6, [r1], #-16
 8003c1e:	437a      	muls	r2, r7
 8003c20:	4372      	muls	r2, r6
 8003c22:	4355      	muls	r5, r2
 8003c24:	1e40      	subs	r0, r0, #1
 8003c26:	d1f4      	bne.n	8003c12 <forward_sqrt+0x6e>
 8003c28:	699e      	ldr	r6, [r3, #24]
 8003c2a:	68b0      	ldr	r0, [r6, #8]
 8003c2c:	6822      	ldr	r2, [r4, #0]
 8003c2e:	eb00 0185 	add.w	r1, r0, r5, lsl #2
 8003c32:	1f0f      	subs	r7, r1, #4
 8003c34:	6891      	ldr	r1, [r2, #8]
 8003c36:	eb01 0385 	add.w	r3, r1, r5, lsl #2
 8003c3a:	1f1c      	subs	r4, r3, #4
 8003c3c:	4287      	cmp	r7, r0
 8003c3e:	d30a      	bcc.n	8003c56 <forward_sqrt+0xb2>
 8003c40:	ed97 0a00 	vldr	s0, [r7]
 8003c44:	f002 fa4e 	bl	80060e4 <ai_math_sqrt>
 8003c48:	ed84 0a00 	vstr	s0, [r4]
 8003c4c:	1f3f      	subs	r7, r7, #4
 8003c4e:	68b0      	ldr	r0, [r6, #8]
 8003c50:	1f24      	subs	r4, r4, #4
 8003c52:	4287      	cmp	r7, r0
 8003c54:	d2f4      	bcs.n	8003c40 <forward_sqrt+0x9c>
 8003c56:	b001      	add	sp, #4
 8003c58:	bdf0      	pop	{r4, r5, r6, r7, pc}
	...

08003c5c <nl_func_soft_plus_array_f32>:
 8003c5c:	b570      	push	{r4, r5, r6, lr}
 8003c5e:	688c      	ldr	r4, [r1, #8]
 8003c60:	6880      	ldr	r0, [r0, #8]
 8003c62:	eb04 0182 	add.w	r1, r4, r2, lsl #2
 8003c66:	1f0d      	subs	r5, r1, #4
 8003c68:	eb00 0182 	add.w	r1, r0, r2, lsl #2
 8003c6c:	1f0e      	subs	r6, r1, #4
 8003c6e:	42a5      	cmp	r5, r4
 8003c70:	f0c0 8010 	bcc.w	8003c94 <nl_func_soft_plus_array_f32+0x38>
 8003c74:	ed95 0a00 	vldr	s0, [r5]
 8003c78:	f005 fe1a 	bl	80098b0 <expf>
 8003c7c:	eef7 0a00 	vmov.f32	s1, #112	; 0x3f800000  1.0
 8003c80:	ee30 0a20 	vadd.f32	s0, s0, s1
 8003c84:	f005 feea 	bl	8009a5c <logf>
 8003c88:	ed86 0a00 	vstr	s0, [r6]
 8003c8c:	1f2d      	subs	r5, r5, #4
 8003c8e:	1f36      	subs	r6, r6, #4
 8003c90:	42a5      	cmp	r5, r4
 8003c92:	d2ef      	bcs.n	8003c74 <nl_func_soft_plus_array_f32+0x18>
 8003c94:	bd70      	pop	{r4, r5, r6, pc}
	...

08003c98 <forward_soft_plus>:
 8003c98:	b5f0      	push	{r4, r5, r6, r7, lr}
 8003c9a:	b081      	sub	sp, #4
 8003c9c:	6942      	ldr	r2, [r0, #20]
 8003c9e:	8811      	ldrh	r1, [r2, #0]
 8003ca0:	2900      	cmp	r1, #0
 8003ca2:	bf1a      	itte	ne
 8003ca4:	6850      	ldrne	r0, [r2, #4]
 8003ca6:	1d00      	addne	r0, r0, #4
 8003ca8:	2004      	moveq	r0, #4
 8003caa:	f04f 0501 	mov.w	r5, #1
 8003cae:	6800      	ldr	r0, [r0, #0]
 8003cb0:	2800      	cmp	r0, #0
 8003cb2:	bf14      	ite	ne
 8003cb4:	6803      	ldrne	r3, [r0, #0]
 8003cb6:	2300      	moveq	r3, #0
 8003cb8:	2902      	cmp	r1, #2
 8003cba:	bfa6      	itte	ge
 8003cbc:	6850      	ldrge	r0, [r2, #4]
 8003cbe:	3010      	addge	r0, #16
 8003cc0:	2004      	movlt	r0, #4
 8003cc2:	6800      	ldr	r0, [r0, #0]
 8003cc4:	2800      	cmp	r0, #0
 8003cc6:	bf19      	ittee	ne
 8003cc8:	6800      	ldrne	r0, [r0, #0]
 8003cca:	f100 0418 	addne.w	r4, r0, #24
 8003cce:	2100      	moveq	r1, #0
 8003cd0:	f101 0418 	addeq.w	r4, r1, #24
 8003cd4:	f103 0108 	add.w	r1, r3, #8
 8003cd8:	680a      	ldr	r2, [r1, #0]
 8003cda:	0a12      	lsrs	r2, r2, #8
 8003cdc:	d01e      	beq.n	8003d1c <forward_soft_plus+0x84>
 8003cde:	684e      	ldr	r6, [r1, #4]
 8003ce0:	eb06 0182 	add.w	r1, r6, r2, lsl #2
 8003ce4:	4610      	mov	r0, r2
 8003ce6:	1f0f      	subs	r7, r1, #4
 8003ce8:	f010 0103 	ands.w	r1, r0, #3
 8003cec:	d006      	beq.n	8003cfc <forward_soft_plus+0x64>
 8003cee:	1e52      	subs	r2, r2, #1
 8003cf0:	f857 c904 	ldr.w	ip, [r7], #-4
 8003cf4:	1e49      	subs	r1, r1, #1
 8003cf6:	fb0c f505 	mul.w	r5, ip, r5
 8003cfa:	d1f8      	bne.n	8003cee <forward_soft_plus+0x56>
 8003cfc:	0880      	lsrs	r0, r0, #2
 8003cfe:	d00d      	beq.n	8003d1c <forward_soft_plus+0x84>
 8003d00:	eb06 0182 	add.w	r1, r6, r2, lsl #2
 8003d04:	3910      	subs	r1, #16
 8003d06:	68ca      	ldr	r2, [r1, #12]
 8003d08:	688e      	ldr	r6, [r1, #8]
 8003d0a:	684f      	ldr	r7, [r1, #4]
 8003d0c:	4372      	muls	r2, r6
 8003d0e:	f851 6910 	ldr.w	r6, [r1], #-16
 8003d12:	437a      	muls	r2, r7
 8003d14:	4372      	muls	r2, r6
 8003d16:	4355      	muls	r5, r2
 8003d18:	1e40      	subs	r0, r0, #1
 8003d1a:	d1f4      	bne.n	8003d06 <forward_soft_plus+0x6e>
 8003d1c:	6998      	ldr	r0, [r3, #24]
 8003d1e:	6886      	ldr	r6, [r0, #8]
 8003d20:	6821      	ldr	r1, [r4, #0]
 8003d22:	eb06 0085 	add.w	r0, r6, r5, lsl #2
 8003d26:	1f07      	subs	r7, r0, #4
 8003d28:	6888      	ldr	r0, [r1, #8]
 8003d2a:	eb00 0285 	add.w	r2, r0, r5, lsl #2
 8003d2e:	1f14      	subs	r4, r2, #4
 8003d30:	42b7      	cmp	r7, r6
 8003d32:	d30f      	bcc.n	8003d54 <forward_soft_plus+0xbc>
 8003d34:	ed97 0a00 	vldr	s0, [r7]
 8003d38:	f005 fdba 	bl	80098b0 <expf>
 8003d3c:	eef7 0a00 	vmov.f32	s1, #112	; 0x3f800000  1.0
 8003d40:	ee30 0a20 	vadd.f32	s0, s0, s1
 8003d44:	f005 fe8a 	bl	8009a5c <logf>
 8003d48:	ed84 0a00 	vstr	s0, [r4]
 8003d4c:	1f3f      	subs	r7, r7, #4
 8003d4e:	1f24      	subs	r4, r4, #4
 8003d50:	42b7      	cmp	r7, r6
 8003d52:	d2ef      	bcs.n	8003d34 <forward_soft_plus+0x9c>
 8003d54:	b001      	add	sp, #4
 8003d56:	bdf0      	pop	{r4, r5, r6, r7, pc}

08003d58 <nl_func_soft_sign_array_f32>:
 8003d58:	6889      	ldr	r1, [r1, #8]
 8003d5a:	6880      	ldr	r0, [r0, #8]
 8003d5c:	eb01 0382 	add.w	r3, r1, r2, lsl #2
 8003d60:	eb00 0282 	add.w	r2, r0, r2, lsl #2
 8003d64:	1f1b      	subs	r3, r3, #4
 8003d66:	1f10      	subs	r0, r2, #4
 8003d68:	428b      	cmp	r3, r1
 8003d6a:	d30f      	bcc.n	8003d8c <nl_func_soft_sign_array_f32+0x34>
 8003d6c:	ed93 0a00 	vldr	s0, [r3]
 8003d70:	eef0 0ac0 	vabs.f32	s1, s0
 8003d74:	eeb7 1a00 	vmov.f32	s2, #112	; 0x3f800000  1.0
 8003d78:	ee70 0a81 	vadd.f32	s1, s1, s2
 8003d7c:	ee80 0a20 	vdiv.f32	s0, s0, s1
 8003d80:	ed80 0a00 	vstr	s0, [r0]
 8003d84:	1f1b      	subs	r3, r3, #4
 8003d86:	1f00      	subs	r0, r0, #4
 8003d88:	428b      	cmp	r3, r1
 8003d8a:	d2ef      	bcs.n	8003d6c <nl_func_soft_sign_array_f32+0x14>
 8003d8c:	4770      	bx	lr
	...

08003d90 <forward_soft_sign>:
 8003d90:	b4f0      	push	{r4, r5, r6, r7}
 8003d92:	6942      	ldr	r2, [r0, #20]
 8003d94:	8811      	ldrh	r1, [r2, #0]
 8003d96:	2900      	cmp	r1, #0
 8003d98:	bf1a      	itte	ne
 8003d9a:	6850      	ldrne	r0, [r2, #4]
 8003d9c:	1d00      	addne	r0, r0, #4
 8003d9e:	2004      	moveq	r0, #4
 8003da0:	f04f 0501 	mov.w	r5, #1
 8003da4:	6800      	ldr	r0, [r0, #0]
 8003da6:	2800      	cmp	r0, #0
 8003da8:	bf14      	ite	ne
 8003daa:	6803      	ldrne	r3, [r0, #0]
 8003dac:	2300      	moveq	r3, #0
 8003dae:	2902      	cmp	r1, #2
 8003db0:	bfa6      	itte	ge
 8003db2:	6850      	ldrge	r0, [r2, #4]
 8003db4:	3010      	addge	r0, #16
 8003db6:	2004      	movlt	r0, #4
 8003db8:	6800      	ldr	r0, [r0, #0]
 8003dba:	2800      	cmp	r0, #0
 8003dbc:	bf19      	ittee	ne
 8003dbe:	6800      	ldrne	r0, [r0, #0]
 8003dc0:	f100 0418 	addne.w	r4, r0, #24
 8003dc4:	2100      	moveq	r1, #0
 8003dc6:	f101 0418 	addeq.w	r4, r1, #24
 8003dca:	f103 0108 	add.w	r1, r3, #8
 8003dce:	680a      	ldr	r2, [r1, #0]
 8003dd0:	0a12      	lsrs	r2, r2, #8
 8003dd2:	d01e      	beq.n	8003e12 <forward_soft_sign+0x82>
 8003dd4:	684e      	ldr	r6, [r1, #4]
 8003dd6:	eb06 0182 	add.w	r1, r6, r2, lsl #2
 8003dda:	4610      	mov	r0, r2
 8003ddc:	1f0f      	subs	r7, r1, #4
 8003dde:	f010 0103 	ands.w	r1, r0, #3
 8003de2:	d006      	beq.n	8003df2 <forward_soft_sign+0x62>
 8003de4:	1e52      	subs	r2, r2, #1
 8003de6:	f857 c904 	ldr.w	ip, [r7], #-4
 8003dea:	1e49      	subs	r1, r1, #1
 8003dec:	fb0c f505 	mul.w	r5, ip, r5
 8003df0:	d1f8      	bne.n	8003de4 <forward_soft_sign+0x54>
 8003df2:	0880      	lsrs	r0, r0, #2
 8003df4:	d00d      	beq.n	8003e12 <forward_soft_sign+0x82>
 8003df6:	eb06 0182 	add.w	r1, r6, r2, lsl #2
 8003dfa:	3910      	subs	r1, #16
 8003dfc:	68ca      	ldr	r2, [r1, #12]
 8003dfe:	688e      	ldr	r6, [r1, #8]
 8003e00:	684f      	ldr	r7, [r1, #4]
 8003e02:	4372      	muls	r2, r6
 8003e04:	f851 6910 	ldr.w	r6, [r1], #-16
 8003e08:	437a      	muls	r2, r7
 8003e0a:	4372      	muls	r2, r6
 8003e0c:	4355      	muls	r5, r2
 8003e0e:	1e40      	subs	r0, r0, #1
 8003e10:	d1f4      	bne.n	8003dfc <forward_soft_sign+0x6c>
 8003e12:	6998      	ldr	r0, [r3, #24]
 8003e14:	6822      	ldr	r2, [r4, #0]
 8003e16:	6880      	ldr	r0, [r0, #8]
 8003e18:	6893      	ldr	r3, [r2, #8]
 8003e1a:	eb00 0185 	add.w	r1, r0, r5, lsl #2
 8003e1e:	eb03 0485 	add.w	r4, r3, r5, lsl #2
 8003e22:	1f09      	subs	r1, r1, #4
 8003e24:	1f22      	subs	r2, r4, #4
 8003e26:	4281      	cmp	r1, r0
 8003e28:	f0c0 8010 	bcc.w	8003e4c <forward_soft_sign+0xbc>
 8003e2c:	ed91 0a00 	vldr	s0, [r1]
 8003e30:	eef0 0ac0 	vabs.f32	s1, s0
 8003e34:	eeb7 1a00 	vmov.f32	s2, #112	; 0x3f800000  1.0
 8003e38:	ee70 0a81 	vadd.f32	s1, s1, s2
 8003e3c:	ee80 0a20 	vdiv.f32	s0, s0, s1
 8003e40:	ed82 0a00 	vstr	s0, [r2]
 8003e44:	1f09      	subs	r1, r1, #4
 8003e46:	1f12      	subs	r2, r2, #4
 8003e48:	4281      	cmp	r1, r0
 8003e4a:	d2ef      	bcs.n	8003e2c <forward_soft_sign+0x9c>
 8003e4c:	bcf0      	pop	{r4, r5, r6, r7}
 8003e4e:	4770      	bx	lr

08003e50 <nl_func_tanh_array_f32>:
 8003e50:	b570      	push	{r4, r5, r6, lr}
 8003e52:	688c      	ldr	r4, [r1, #8]
 8003e54:	6880      	ldr	r0, [r0, #8]
 8003e56:	eb04 0182 	add.w	r1, r4, r2, lsl #2
 8003e5a:	1f0d      	subs	r5, r1, #4
 8003e5c:	eb00 0182 	add.w	r1, r0, r2, lsl #2
 8003e60:	1f0e      	subs	r6, r1, #4
 8003e62:	42a5      	cmp	r5, r4
 8003e64:	f0c0 800a 	bcc.w	8003e7c <nl_func_tanh_array_f32+0x2c>
 8003e68:	ed95 0a00 	vldr	s0, [r5]
 8003e6c:	f005 fafa 	bl	8009464 <tanhf>
 8003e70:	ed86 0a00 	vstr	s0, [r6]
 8003e74:	1f2d      	subs	r5, r5, #4
 8003e76:	1f36      	subs	r6, r6, #4
 8003e78:	42a5      	cmp	r5, r4
 8003e7a:	d2f5      	bcs.n	8003e68 <nl_func_tanh_array_f32+0x18>
 8003e7c:	bd70      	pop	{r4, r5, r6, pc}
	...

08003e80 <forward_tanh>:
 8003e80:	b5f0      	push	{r4, r5, r6, r7, lr}
 8003e82:	b081      	sub	sp, #4
 8003e84:	6942      	ldr	r2, [r0, #20]
 8003e86:	8811      	ldrh	r1, [r2, #0]
 8003e88:	2900      	cmp	r1, #0
 8003e8a:	bf1a      	itte	ne
 8003e8c:	6850      	ldrne	r0, [r2, #4]
 8003e8e:	1d00      	addne	r0, r0, #4
 8003e90:	2004      	moveq	r0, #4
 8003e92:	f04f 0501 	mov.w	r5, #1
 8003e96:	6800      	ldr	r0, [r0, #0]
 8003e98:	2800      	cmp	r0, #0
 8003e9a:	bf14      	ite	ne
 8003e9c:	6803      	ldrne	r3, [r0, #0]
 8003e9e:	2300      	moveq	r3, #0
 8003ea0:	2902      	cmp	r1, #2
 8003ea2:	bfa6      	itte	ge
 8003ea4:	6850      	ldrge	r0, [r2, #4]
 8003ea6:	3010      	addge	r0, #16
 8003ea8:	2004      	movlt	r0, #4
 8003eaa:	6800      	ldr	r0, [r0, #0]
 8003eac:	2800      	cmp	r0, #0
 8003eae:	bf19      	ittee	ne
 8003eb0:	6800      	ldrne	r0, [r0, #0]
 8003eb2:	f100 0418 	addne.w	r4, r0, #24
 8003eb6:	2100      	moveq	r1, #0
 8003eb8:	f101 0418 	addeq.w	r4, r1, #24
 8003ebc:	f103 0108 	add.w	r1, r3, #8
 8003ec0:	680a      	ldr	r2, [r1, #0]
 8003ec2:	0a12      	lsrs	r2, r2, #8
 8003ec4:	d01e      	beq.n	8003f04 <forward_tanh+0x84>
 8003ec6:	684e      	ldr	r6, [r1, #4]
 8003ec8:	eb06 0182 	add.w	r1, r6, r2, lsl #2
 8003ecc:	4610      	mov	r0, r2
 8003ece:	1f0f      	subs	r7, r1, #4
 8003ed0:	f010 0103 	ands.w	r1, r0, #3
 8003ed4:	d006      	beq.n	8003ee4 <forward_tanh+0x64>
 8003ed6:	1e52      	subs	r2, r2, #1
 8003ed8:	f857 c904 	ldr.w	ip, [r7], #-4
 8003edc:	1e49      	subs	r1, r1, #1
 8003ede:	fb0c f505 	mul.w	r5, ip, r5
 8003ee2:	d1f8      	bne.n	8003ed6 <forward_tanh+0x56>
 8003ee4:	0880      	lsrs	r0, r0, #2
 8003ee6:	d00d      	beq.n	8003f04 <forward_tanh+0x84>
 8003ee8:	eb06 0182 	add.w	r1, r6, r2, lsl #2
 8003eec:	3910      	subs	r1, #16
 8003eee:	68ca      	ldr	r2, [r1, #12]
 8003ef0:	688e      	ldr	r6, [r1, #8]
 8003ef2:	684f      	ldr	r7, [r1, #4]
 8003ef4:	4372      	muls	r2, r6
 8003ef6:	f851 6910 	ldr.w	r6, [r1], #-16
 8003efa:	437a      	muls	r2, r7
 8003efc:	4372      	muls	r2, r6
 8003efe:	4355      	muls	r5, r2
 8003f00:	1e40      	subs	r0, r0, #1
 8003f02:	d1f4      	bne.n	8003eee <forward_tanh+0x6e>
 8003f04:	6998      	ldr	r0, [r3, #24]
 8003f06:	6886      	ldr	r6, [r0, #8]
 8003f08:	6821      	ldr	r1, [r4, #0]
 8003f0a:	eb06 0085 	add.w	r0, r6, r5, lsl #2
 8003f0e:	1f07      	subs	r7, r0, #4
 8003f10:	6888      	ldr	r0, [r1, #8]
 8003f12:	eb00 0285 	add.w	r2, r0, r5, lsl #2
 8003f16:	1f14      	subs	r4, r2, #4
 8003f18:	42b7      	cmp	r7, r6
 8003f1a:	d309      	bcc.n	8003f30 <forward_tanh+0xb0>
 8003f1c:	ed97 0a00 	vldr	s0, [r7]
 8003f20:	f005 faa0 	bl	8009464 <tanhf>
 8003f24:	ed84 0a00 	vstr	s0, [r4]
 8003f28:	1f3f      	subs	r7, r7, #4
 8003f2a:	1f24      	subs	r4, r4, #4
 8003f2c:	42b7      	cmp	r7, r6
 8003f2e:	d2f5      	bcs.n	8003f1c <forward_tanh+0x9c>
 8003f30:	b001      	add	sp, #4
 8003f32:	bdf0      	pop	{r4, r5, r6, r7, pc}

08003f34 <nl_func_relu_array_f32>:
 8003f34:	6889      	ldr	r1, [r1, #8]
 8003f36:	6880      	ldr	r0, [r0, #8]
 8003f38:	eb01 0382 	add.w	r3, r1, r2, lsl #2
 8003f3c:	eb00 0282 	add.w	r2, r0, r2, lsl #2
 8003f40:	1f1b      	subs	r3, r3, #4
 8003f42:	1f10      	subs	r0, r2, #4
 8003f44:	428b      	cmp	r3, r1
 8003f46:	d30e      	bcc.n	8003f66 <nl_func_relu_array_f32+0x32>
 8003f48:	ed93 0a00 	vldr	s0, [r3]
 8003f4c:	eeb5 0a40 	vcmp.f32	s0, #0.0
 8003f50:	eef1 fa10 	vmrs	APSR_nzcv, fpscr
 8003f54:	bf48      	it	mi
 8003f56:	ed9f 0a7b 	vldrmi	s0, [pc, #492]	; 8004144 <.text_62>
 8003f5a:	ed80 0a00 	vstr	s0, [r0]
 8003f5e:	1f1b      	subs	r3, r3, #4
 8003f60:	1f00      	subs	r0, r0, #4
 8003f62:	428b      	cmp	r3, r1
 8003f64:	d2f0      	bcs.n	8003f48 <nl_func_relu_array_f32+0x14>
 8003f66:	4770      	bx	lr

08003f68 <nl_func_sm_channel_f32>:
 8003f68:	e92d 41f0 	stmdb	sp!, {r4, r5, r6, r7, r8, lr}
 8003f6c:	ed2d 8b02 	vpush	{d8}
 8003f70:	688f      	ldr	r7, [r1, #8]
 8003f72:	6886      	ldr	r6, [r0, #8]
 8003f74:	ed97 8a00 	vldr	s16, [r7]
 8003f78:	4614      	mov	r4, r2
 8003f7a:	2c02      	cmp	r4, #2
 8003f7c:	eddf 8a71 	vldr	s17, [pc, #452]	; 8004144 <.text_62>
 8003f80:	d33d      	bcc.n	8003ffe <nl_func_sm_channel_f32+0x96>
 8003f82:	1e61      	subs	r1, r4, #1
 8003f84:	1d3a      	adds	r2, r7, #4
 8003f86:	f011 0003 	ands.w	r0, r1, #3
 8003f8a:	d00c      	beq.n	8003fa6 <nl_func_sm_channel_f32+0x3e>
 8003f8c:	ed92 0a00 	vldr	s0, [r2]
 8003f90:	eeb4 0a48 	vcmp.f32	s0, s16
 8003f94:	eef1 fa10 	vmrs	APSR_nzcv, fpscr
 8003f98:	bf58      	it	pl
 8003f9a:	eeb0 8a40 	vmovpl.f32	s16, s0
 8003f9e:	1e40      	subs	r0, r0, #1
 8003fa0:	f102 0204 	add.w	r2, r2, #4
 8003fa4:	d1f2      	bne.n	8003f8c <nl_func_sm_channel_f32+0x24>
 8003fa6:	0889      	lsrs	r1, r1, #2
 8003fa8:	f000 802b 	beq.w	8004002 <nl_func_sm_channel_f32+0x9a>
 8003fac:	ed92 0a00 	vldr	s0, [r2]
 8003fb0:	eeb4 0a48 	vcmp.f32	s0, s16
 8003fb4:	eef1 fa10 	vmrs	APSR_nzcv, fpscr
 8003fb8:	bf58      	it	pl
 8003fba:	eeb0 8a40 	vmovpl.f32	s16, s0
 8003fbe:	ed92 0a01 	vldr	s0, [r2, #4]
 8003fc2:	eeb4 0a48 	vcmp.f32	s0, s16
 8003fc6:	eef1 fa10 	vmrs	APSR_nzcv, fpscr
 8003fca:	bf58      	it	pl
 8003fcc:	eeb0 8a40 	vmovpl.f32	s16, s0
 8003fd0:	ed92 0a02 	vldr	s0, [r2, #8]
 8003fd4:	eeb4 0a48 	vcmp.f32	s0, s16
 8003fd8:	eef1 fa10 	vmrs	APSR_nzcv, fpscr
 8003fdc:	bf58      	it	pl
 8003fde:	eeb0 8a40 	vmovpl.f32	s16, s0
 8003fe2:	ed92 0a03 	vldr	s0, [r2, #12]
 8003fe6:	eeb4 0a48 	vcmp.f32	s0, s16
 8003fea:	eef1 fa10 	vmrs	APSR_nzcv, fpscr
 8003fee:	bf58      	it	pl
 8003ff0:	eeb0 8a40 	vmovpl.f32	s16, s0
 8003ff4:	1e49      	subs	r1, r1, #1
 8003ff6:	f102 0210 	add.w	r2, r2, #16
 8003ffa:	d1d7      	bne.n	8003fac <nl_func_sm_channel_f32+0x44>
 8003ffc:	e001      	b.n	8004002 <nl_func_sm_channel_f32+0x9a>
 8003ffe:	2c00      	cmp	r4, #0
 8004000:	d040      	beq.n	8004084 <nl_func_sm_channel_f32+0x11c>
 8004002:	46b0      	mov	r8, r6
 8004004:	ea4f 0504 	mov.w	r5, r4
 8004008:	ed97 0a00 	vldr	s0, [r7]
 800400c:	ee30 0a48 	vsub.f32	s0, s0, s16
 8004010:	f005 fc4e 	bl	80098b0 <expf>
 8004014:	1d3f      	adds	r7, r7, #4
 8004016:	ed88 0a00 	vstr	s0, [r8]
 800401a:	1e6d      	subs	r5, r5, #1
 800401c:	ee78 8a80 	vadd.f32	s17, s17, s0
 8004020:	f108 0804 	add.w	r8, r8, #4
 8004024:	d1f0      	bne.n	8004008 <nl_func_sm_channel_f32+0xa0>
 8004026:	eeb7 0a00 	vmov.f32	s0, #112	; 0x3f800000  1.0
 800402a:	f014 0003 	ands.w	r0, r4, #3
 800402e:	ee80 0a28 	vdiv.f32	s0, s0, s17
 8004032:	d009      	beq.n	8004048 <nl_func_sm_channel_f32+0xe0>
 8004034:	edd6 0a00 	vldr	s1, [r6]
 8004038:	ee60 0a80 	vmul.f32	s1, s1, s0
 800403c:	edc6 0a00 	vstr	s1, [r6]
 8004040:	1e40      	subs	r0, r0, #1
 8004042:	f106 0604 	add.w	r6, r6, #4
 8004046:	d1f5      	bne.n	8004034 <nl_func_sm_channel_f32+0xcc>
 8004048:	08a4      	lsrs	r4, r4, #2
 800404a:	d01b      	beq.n	8004084 <nl_func_sm_channel_f32+0x11c>
 800404c:	edd6 0a00 	vldr	s1, [r6]
 8004050:	ee60 0a80 	vmul.f32	s1, s1, s0
 8004054:	edc6 0a00 	vstr	s1, [r6]
 8004058:	1e64      	subs	r4, r4, #1
 800405a:	ed96 1a01 	vldr	s2, [r6, #4]
 800405e:	edd6 0a02 	vldr	s1, [r6, #8]
 8004062:	ee21 1a00 	vmul.f32	s2, s2, s0
 8004066:	ed86 1a01 	vstr	s2, [r6, #4]
 800406a:	ee60 0a80 	vmul.f32	s1, s1, s0
 800406e:	ed96 1a03 	vldr	s2, [r6, #12]
 8004072:	edc6 0a02 	vstr	s1, [r6, #8]
 8004076:	ee21 1a00 	vmul.f32	s2, s2, s0
 800407a:	ed86 1a03 	vstr	s2, [r6, #12]
 800407e:	f106 0610 	add.w	r6, r6, #16
 8004082:	d1e3      	bne.n	800404c <nl_func_sm_channel_f32+0xe4>
 8004084:	ecbd 8b02 	vpop	{d8}
 8004088:	e8bd 81f0 	ldmia.w	sp!, {r4, r5, r6, r7, r8, pc}

0800408c <nl_func_sm_array_f32>:
 800408c:	e92d 47f0 	stmdb	sp!, {r4, r5, r6, r7, r8, r9, sl, lr}
 8004090:	460d      	mov	r5, r1
 8004092:	4604      	mov	r4, r0
 8004094:	9f08      	ldr	r7, [sp, #32]
 8004096:	68a8      	ldr	r0, [r5, #8]
 8004098:	9e09      	ldr	r6, [sp, #36]	; 0x24
 800409a:	00bf      	lsls	r7, r7, #2
 800409c:	427f      	negs	r7, r7
 800409e:	eb00 0182 	add.w	r1, r0, r2, lsl #2
 80040a2:	68a0      	ldr	r0, [r4, #8]
 80040a4:	eb01 0a07 	add.w	sl, r1, r7
 80040a8:	00b6      	lsls	r6, r6, #2
 80040aa:	4276      	negs	r6, r6
 80040ac:	eb00 0182 	add.w	r1, r0, r2, lsl #2
 80040b0:	68ea      	ldr	r2, [r5, #12]
 80040b2:	4592      	cmp	sl, r2
 80040b4:	eb01 0906 	add.w	r9, r1, r6
 80040b8:	d30f      	bcc.n	80040da <nl_func_sm_array_f32+0x4e>
 80040ba:	4698      	mov	r8, r3
 80040bc:	f8c5 a008 	str.w	sl, [r5, #8]
 80040c0:	f8c4 9008 	str.w	r9, [r4, #8]
 80040c4:	2300      	movs	r3, #0
 80040c6:	4642      	mov	r2, r8
 80040c8:	4629      	mov	r1, r5
 80040ca:	4620      	mov	r0, r4
 80040cc:	f7ff ff4c 	bl	8003f68 <nl_func_sm_channel_f32>
 80040d0:	68e8      	ldr	r0, [r5, #12]
 80040d2:	44ba      	add	sl, r7
 80040d4:	4582      	cmp	sl, r0
 80040d6:	44b1      	add	r9, r6
 80040d8:	d2f0      	bcs.n	80040bc <nl_func_sm_array_f32+0x30>
 80040da:	68e9      	ldr	r1, [r5, #12]
 80040dc:	60a9      	str	r1, [r5, #8]
 80040de:	68e0      	ldr	r0, [r4, #12]
 80040e0:	60a0      	str	r0, [r4, #8]
 80040e2:	e8bd 87f0 	ldmia.w	sp!, {r4, r5, r6, r7, r8, r9, sl, pc}
	...

080040e8 <nl_func_hard_sigmoid_array_f32>:
 80040e8:	6889      	ldr	r1, [r1, #8]
 80040ea:	6880      	ldr	r0, [r0, #8]
 80040ec:	eb01 0382 	add.w	r3, r1, r2, lsl #2
 80040f0:	eb00 0282 	add.w	r2, r0, r2, lsl #2
 80040f4:	1f1b      	subs	r3, r3, #4
 80040f6:	1f10      	subs	r0, r2, #4
 80040f8:	428b      	cmp	r3, r1
 80040fa:	d321      	bcc.n	8004140 <nl_func_hard_sigmoid_array_f32+0x58>
 80040fc:	eeb7 0a00 	vmov.f32	s0, #112	; 0x3f800000  1.0
 8004100:	eddf 0ab8 	vldr	s1, [pc, #736]	; 80043e4 <.text_68>
 8004104:	edd3 1a00 	vldr	s3, [r3]
 8004108:	ed9f 2ab7 	vldr	s4, [pc, #732]	; 80043e8 <.text_69>
 800410c:	eeb6 1a00 	vmov.f32	s2, #96	; 0x3f000000  0.5
 8004110:	ee01 1a82 	vmla.f32	s2, s3, s4
 8004114:	eeb4 1a60 	vcmp.f32	s2, s1
 8004118:	eef1 fa10 	vmrs	APSR_nzcv, fpscr
 800411c:	da08      	bge.n	8004130 <nl_func_hard_sigmoid_array_f32+0x48>
 800411e:	eeb5 1a40 	vcmp.f32	s2, #0.0
 8004122:	eef1 fa10 	vmrs	APSR_nzcv, fpscr
 8004126:	d505      	bpl.n	8004134 <nl_func_hard_sigmoid_array_f32+0x4c>
 8004128:	ed9f 1a06 	vldr	s2, [pc, #24]	; 8004144 <.text_62>
 800412c:	e002      	b.n	8004134 <nl_func_hard_sigmoid_array_f32+0x4c>
 800412e:	bf00      	nop
 8004130:	eeb0 1a40 	vmov.f32	s2, s0
 8004134:	ed80 1a00 	vstr	s2, [r0]
 8004138:	1f1b      	subs	r3, r3, #4
 800413a:	1f00      	subs	r0, r0, #4
 800413c:	428b      	cmp	r3, r1
 800413e:	d2e1      	bcs.n	8004104 <nl_func_hard_sigmoid_array_f32+0x1c>
 8004140:	4770      	bx	lr
	...

08004144 <.text_62>:
 8004144:	00000000 	.word	0x00000000

08004148 <nl_func_clip_array_f32>:
 8004148:	6889      	ldr	r1, [r1, #8]
 800414a:	6880      	ldr	r0, [r0, #8]
 800414c:	ed93 0a00 	vldr	s0, [r3]
 8004150:	edd3 0a01 	vldr	s1, [r3, #4]
 8004154:	eb01 0382 	add.w	r3, r1, r2, lsl #2
 8004158:	eb00 0282 	add.w	r2, r0, r2, lsl #2
 800415c:	1f1b      	subs	r3, r3, #4
 800415e:	1f10      	subs	r0, r2, #4
 8004160:	428b      	cmp	r3, r1
 8004162:	d315      	bcc.n	8004190 <nl_func_clip_array_f32+0x48>
 8004164:	ed93 1a00 	vldr	s2, [r3]
 8004168:	eeb4 0a41 	vcmp.f32	s0, s2
 800416c:	eef1 fa10 	vmrs	APSR_nzcv, fpscr
 8004170:	bf58      	it	pl
 8004172:	eeb0 1a40 	vmovpl.f32	s2, s0
 8004176:	eeb4 1a60 	vcmp.f32	s2, s1
 800417a:	eef1 fa10 	vmrs	APSR_nzcv, fpscr
 800417e:	bf58      	it	pl
 8004180:	eeb0 1a60 	vmovpl.f32	s2, s1
 8004184:	ed80 1a00 	vstr	s2, [r0]
 8004188:	1f1b      	subs	r3, r3, #4
 800418a:	1f00      	subs	r0, r0, #4
 800418c:	428b      	cmp	r3, r1
 800418e:	d2e9      	bcs.n	8004164 <nl_func_clip_array_f32+0x1c>
 8004190:	4770      	bx	lr
	...

08004194 <nl_func_hardmax_array_f32>:
 8004194:	e92d 41f0 	stmdb	sp!, {r4, r5, r6, r7, r8, lr}
 8004198:	6852      	ldr	r2, [r2, #4]
 800419a:	6855      	ldr	r5, [r2, #4]
 800419c:	68d4      	ldr	r4, [r2, #12]
 800419e:	688e      	ldr	r6, [r1, #8]
 80041a0:	f8d0 8008 	ldr.w	r8, [r0, #8]
 80041a4:	436c      	muls	r4, r5
 80041a6:	00a1      	lsls	r1, r4, #2
 80041a8:	4640      	mov	r0, r8
 80041aa:	f004 fae9 	bl	8008780 <__aeabi_memclr>
 80041ae:	2200      	movs	r2, #0
 80041b0:	2c00      	cmp	r4, #0
 80041b2:	4633      	mov	r3, r6
 80041b4:	eeb7 0a00 	vmov.f32	s0, #112	; 0x3f800000  1.0
 80041b8:	f000 805b 	beq.w	8004272 <nl_func_hardmax_array_f32+0xde>
 80041bc:	f102 0c01 	add.w	ip, r2, #1
 80041c0:	eb05 0e02 	add.w	lr, r5, r2
 80041c4:	45f4      	cmp	ip, lr
 80041c6:	edd3 0a00 	vldr	s1, [r3]
 80041ca:	d249      	bcs.n	8004260 <nl_func_hardmax_array_f32+0xcc>
 80041cc:	1e69      	subs	r1, r5, #1
 80041ce:	f011 0003 	ands.w	r0, r1, #3
 80041d2:	eb06 078c 	add.w	r7, r6, ip, lsl #2
 80041d6:	d00f      	beq.n	80041f8 <nl_func_hardmax_array_f32+0x64>
 80041d8:	ed97 1a00 	vldr	s2, [r7]
 80041dc:	eef4 0a41 	vcmp.f32	s1, s2
 80041e0:	eef1 fa10 	vmrs	APSR_nzcv, fpscr
 80041e4:	bf44      	itt	mi
 80041e6:	eef0 0a41 	vmovmi.f32	s1, s2
 80041ea:	4662      	movmi	r2, ip
 80041ec:	1e40      	subs	r0, r0, #1
 80041ee:	f10c 0c01 	add.w	ip, ip, #1
 80041f2:	f107 0704 	add.w	r7, r7, #4
 80041f6:	d1ef      	bne.n	80041d8 <nl_func_hardmax_array_f32+0x44>
 80041f8:	0889      	lsrs	r1, r1, #2
 80041fa:	d031      	beq.n	8004260 <nl_func_hardmax_array_f32+0xcc>
 80041fc:	ed97 1a00 	vldr	s2, [r7]
 8004200:	eef4 0a41 	vcmp.f32	s1, s2
 8004204:	eef1 fa10 	vmrs	APSR_nzcv, fpscr
 8004208:	bf44      	itt	mi
 800420a:	eef0 0a41 	vmovmi.f32	s1, s2
 800420e:	4662      	movmi	r2, ip
 8004210:	ed97 1a01 	vldr	s2, [r7, #4]
 8004214:	eef4 0a41 	vcmp.f32	s1, s2
 8004218:	f10c 0001 	add.w	r0, ip, #1
 800421c:	eef1 fa10 	vmrs	APSR_nzcv, fpscr
 8004220:	bf44      	itt	mi
 8004222:	eef0 0a41 	vmovmi.f32	s1, s2
 8004226:	4602      	movmi	r2, r0
 8004228:	ed97 1a02 	vldr	s2, [r7, #8]
 800422c:	1c40      	adds	r0, r0, #1
 800422e:	eef4 0a41 	vcmp.f32	s1, s2
 8004232:	eef1 fa10 	vmrs	APSR_nzcv, fpscr
 8004236:	bf44      	itt	mi
 8004238:	eef0 0a41 	vmovmi.f32	s1, s2
 800423c:	4602      	movmi	r2, r0
 800423e:	ed97 1a03 	vldr	s2, [r7, #12]
 8004242:	1c40      	adds	r0, r0, #1
 8004244:	eef4 0a41 	vcmp.f32	s1, s2
 8004248:	eef1 fa10 	vmrs	APSR_nzcv, fpscr
 800424c:	bf44      	itt	mi
 800424e:	eef0 0a41 	vmovmi.f32	s1, s2
 8004252:	4602      	movmi	r2, r0
 8004254:	1e49      	subs	r1, r1, #1
 8004256:	f100 0c01 	add.w	ip, r0, #1
 800425a:	f107 0710 	add.w	r7, r7, #16
 800425e:	d1cd      	bne.n	80041fc <nl_func_hardmax_array_f32+0x68>
 8004260:	eb08 0082 	add.w	r0, r8, r2, lsl #2
 8004264:	4672      	mov	r2, lr
 8004266:	42a2      	cmp	r2, r4
 8004268:	ed80 0a00 	vstr	s0, [r0]
 800426c:	eb03 0385 	add.w	r3, r3, r5, lsl #2
 8004270:	d3a4      	bcc.n	80041bc <nl_func_hardmax_array_f32+0x28>
 8004272:	e8bd 81f0 	ldmia.w	sp!, {r4, r5, r6, r7, r8, pc}
	...

08004278 <nl_func_relu_generic_array_f32>:
 8004278:	6880      	ldr	r0, [r0, #8]
 800427a:	ed93 0a00 	vldr	s0, [r3]
 800427e:	edd3 0a01 	vldr	s1, [r3, #4]
 8004282:	ed93 1a02 	vldr	s2, [r3, #8]
 8004286:	6889      	ldr	r1, [r1, #8]
 8004288:	1f03      	subs	r3, r0, #4
 800428a:	eb03 0082 	add.w	r0, r3, r2, lsl #2
 800428e:	eeb5 1a40 	vcmp.f32	s2, #0.0
 8004292:	1f0b      	subs	r3, r1, #4
 8004294:	eef1 fa10 	vmrs	APSR_nzcv, fpscr
 8004298:	eb03 0282 	add.w	r2, r3, r2, lsl #2
 800429c:	d52a      	bpl.n	80042f4 <nl_func_relu_generic_array_f32+0x7c>
 800429e:	eef5 0a40 	vcmp.f32	s1, #0.0
 80042a2:	eef1 fa10 	vmrs	APSR_nzcv, fpscr
 80042a6:	d013      	beq.n	80042d0 <nl_func_relu_generic_array_f32+0x58>
 80042a8:	428a      	cmp	r2, r1
 80042aa:	d310      	bcc.n	80042ce <nl_func_relu_generic_array_f32+0x56>
 80042ac:	ed92 1a00 	vldr	s2, [r2]
 80042b0:	eeb4 1a40 	vcmp.f32	s2, s0
 80042b4:	eef1 fa10 	vmrs	APSR_nzcv, fpscr
 80042b8:	bf44      	itt	mi
 80042ba:	ee31 1a40 	vsubmi.f32	s2, s2, s0
 80042be:	ee21 1a20 	vmulmi.f32	s2, s2, s1
 80042c2:	ed80 1a00 	vstr	s2, [r0]
 80042c6:	1f12      	subs	r2, r2, #4
 80042c8:	1f00      	subs	r0, r0, #4
 80042ca:	428a      	cmp	r2, r1
 80042cc:	d2ee      	bcs.n	80042ac <nl_func_relu_generic_array_f32+0x34>
 80042ce:	4770      	bx	lr
 80042d0:	428a      	cmp	r2, r1
 80042d2:	d3fc      	bcc.n	80042ce <nl_func_relu_generic_array_f32+0x56>
 80042d4:	edd2 0a00 	vldr	s1, [r2]
 80042d8:	eef4 0a40 	vcmp.f32	s1, s0
 80042dc:	eef1 fa10 	vmrs	APSR_nzcv, fpscr
 80042e0:	bf48      	it	mi
 80042e2:	eddf 0aa7 	vldrmi	s1, [pc, #668]	; 8004580 <.text_73>
 80042e6:	edc0 0a00 	vstr	s1, [r0]
 80042ea:	1f12      	subs	r2, r2, #4
 80042ec:	1f00      	subs	r0, r0, #4
 80042ee:	428a      	cmp	r2, r1
 80042f0:	d2f0      	bcs.n	80042d4 <nl_func_relu_generic_array_f32+0x5c>
 80042f2:	4770      	bx	lr
 80042f4:	428a      	cmp	r2, r1
 80042f6:	d3ea      	bcc.n	80042ce <nl_func_relu_generic_array_f32+0x56>
 80042f8:	edd2 1a00 	vldr	s3, [r2]
 80042fc:	eef4 1a41 	vcmp.f32	s3, s2
 8004300:	eef1 fa10 	vmrs	APSR_nzcv, fpscr
 8004304:	d50a      	bpl.n	800431c <nl_func_relu_generic_array_f32+0xa4>
 8004306:	eef4 1a40 	vcmp.f32	s3, s0
 800430a:	eef1 fa10 	vmrs	APSR_nzcv, fpscr
 800430e:	d507      	bpl.n	8004320 <nl_func_relu_generic_array_f32+0xa8>
 8004310:	ee71 1ac0 	vsub.f32	s3, s3, s0
 8004314:	ee61 1aa0 	vmul.f32	s3, s3, s1
 8004318:	e002      	b.n	8004320 <nl_func_relu_generic_array_f32+0xa8>
 800431a:	bf00      	nop
 800431c:	eef0 1a41 	vmov.f32	s3, s2
 8004320:	edc0 1a00 	vstr	s3, [r0]
 8004324:	1f12      	subs	r2, r2, #4
 8004326:	1f00      	subs	r0, r0, #4
 8004328:	428a      	cmp	r2, r1
 800432a:	d2e5      	bcs.n	80042f8 <nl_func_relu_generic_array_f32+0x80>
 800432c:	4770      	bx	lr
	...

08004330 <nl_func_relu_thresholded_array_f32>:
 8004330:	6889      	ldr	r1, [r1, #8]
 8004332:	6880      	ldr	r0, [r0, #8]
 8004334:	ed93 0a00 	vldr	s0, [r3]
 8004338:	eb01 0382 	add.w	r3, r1, r2, lsl #2
 800433c:	eb00 0282 	add.w	r2, r0, r2, lsl #2
 8004340:	1f1b      	subs	r3, r3, #4
 8004342:	1f10      	subs	r0, r2, #4
 8004344:	428b      	cmp	r3, r1
 8004346:	d30e      	bcc.n	8004366 <nl_func_relu_thresholded_array_f32+0x36>
 8004348:	edd3 0a00 	vldr	s1, [r3]
 800434c:	eef4 0a40 	vcmp.f32	s1, s0
 8004350:	eef1 fa10 	vmrs	APSR_nzcv, fpscr
 8004354:	bf48      	it	mi
 8004356:	eddf 0a8a 	vldrmi	s1, [pc, #552]	; 8004580 <.text_73>
 800435a:	edc0 0a00 	vstr	s1, [r0]
 800435e:	1f1b      	subs	r3, r3, #4
 8004360:	1f00      	subs	r0, r0, #4
 8004362:	428b      	cmp	r3, r1
 8004364:	d2f0      	bcs.n	8004348 <nl_func_relu_thresholded_array_f32+0x18>
 8004366:	4770      	bx	lr

08004368 <nl_func_elu_array_f32>:
 8004368:	b570      	push	{r4, r5, r6, lr}
 800436a:	ed2d 8b04 	vpush	{d8-d9}
 800436e:	688c      	ldr	r4, [r1, #8]
 8004370:	6880      	ldr	r0, [r0, #8]
 8004372:	ed93 8a00 	vldr	s16, [r3]
 8004376:	eb04 0182 	add.w	r1, r4, r2, lsl #2
 800437a:	1f0d      	subs	r5, r1, #4
 800437c:	eb00 0182 	add.w	r1, r0, r2, lsl #2
 8004380:	1f0e      	subs	r6, r1, #4
 8004382:	42a5      	cmp	r5, r4
 8004384:	f0c0 802a 	bcc.w	80043dc <nl_func_elu_array_f32+0x74>
 8004388:	edd5 8a00 	vldr	s17, [r5]
 800438c:	eef5 8a40 	vcmp.f32	s17, #0.0
 8004390:	eef1 fa10 	vmrs	APSR_nzcv, fpscr
 8004394:	bf4c      	ite	mi
 8004396:	ed9f 9a7a 	vldrmi	s18, [pc, #488]	; 8004580 <.text_73>
 800439a:	eeb0 9a68 	vmovpl.f32	s18, s17
 800439e:	eeb0 0a68 	vmov.f32	s0, s17
 80043a2:	f005 fa85 	bl	80098b0 <expf>
 80043a6:	eeff 0a00 	vmov.f32	s1, #240	; 0xbf800000 -1.0
 80043aa:	ee30 0a20 	vadd.f32	s0, s0, s1
 80043ae:	ee20 0a08 	vmul.f32	s0, s0, s16
 80043b2:	eeb5 0a40 	vcmp.f32	s0, #0.0
 80043b6:	eef1 fa10 	vmrs	APSR_nzcv, fpscr
 80043ba:	dc09      	bgt.n	80043d0 <nl_func_elu_array_f32+0x68>
 80043bc:	eeb0 0a68 	vmov.f32	s0, s17
 80043c0:	f005 fa76 	bl	80098b0 <expf>
 80043c4:	eeff 0a00 	vmov.f32	s1, #240	; 0xbf800000 -1.0
 80043c8:	ee30 0a20 	vadd.f32	s0, s0, s1
 80043cc:	ee00 9a08 	vmla.f32	s18, s0, s16
 80043d0:	ed86 9a00 	vstr	s18, [r6]
 80043d4:	1f2d      	subs	r5, r5, #4
 80043d6:	1f36      	subs	r6, r6, #4
 80043d8:	42a5      	cmp	r5, r4
 80043da:	d2d5      	bcs.n	8004388 <nl_func_elu_array_f32+0x20>
 80043dc:	ecbd 8b04 	vpop	{d8-d9}
 80043e0:	bd70      	pop	{r4, r5, r6, pc}
	...

080043e4 <.text_68>:
 80043e4:	3f800001 	.word	0x3f800001

080043e8 <.text_69>:
 80043e8:	3e4ccccd 	.word	0x3e4ccccd

080043ec <nl_func_selu_array_f32>:
 80043ec:	b570      	push	{r4, r5, r6, lr}
 80043ee:	ed2d 8b04 	vpush	{d8-d9}
 80043f2:	688c      	ldr	r4, [r1, #8]
 80043f4:	6880      	ldr	r0, [r0, #8]
 80043f6:	ed93 8a00 	vldr	s16, [r3]
 80043fa:	edd3 8a01 	vldr	s17, [r3, #4]
 80043fe:	eb04 0182 	add.w	r1, r4, r2, lsl #2
 8004402:	1f0d      	subs	r5, r1, #4
 8004404:	eb00 0182 	add.w	r1, r0, r2, lsl #2
 8004408:	1f0e      	subs	r6, r1, #4
 800440a:	42a5      	cmp	r5, r4
 800440c:	f0c0 802c 	bcc.w	8004468 <nl_func_selu_array_f32+0x7c>
 8004410:	ed95 9a00 	vldr	s18, [r5]
 8004414:	eeb5 9a40 	vcmp.f32	s18, #0.0
 8004418:	eef1 fa10 	vmrs	APSR_nzcv, fpscr
 800441c:	bf4c      	ite	mi
 800441e:	eddf 9a58 	vldrmi	s19, [pc, #352]	; 8004580 <.text_73>
 8004422:	eef0 9a49 	vmovpl.f32	s19, s18
 8004426:	eeb0 0a49 	vmov.f32	s0, s18
 800442a:	f005 fa41 	bl	80098b0 <expf>
 800442e:	eeff 0a00 	vmov.f32	s1, #240	; 0xbf800000 -1.0
 8004432:	ee30 0a20 	vadd.f32	s0, s0, s1
 8004436:	ee20 0a08 	vmul.f32	s0, s0, s16
 800443a:	eeb5 0a40 	vcmp.f32	s0, #0.0
 800443e:	eef1 fa10 	vmrs	APSR_nzcv, fpscr
 8004442:	dc09      	bgt.n	8004458 <nl_func_selu_array_f32+0x6c>
 8004444:	eeb0 0a49 	vmov.f32	s0, s18
 8004448:	f005 fa32 	bl	80098b0 <expf>
 800444c:	eeff 0a00 	vmov.f32	s1, #240	; 0xbf800000 -1.0
 8004450:	ee30 0a20 	vadd.f32	s0, s0, s1
 8004454:	ee40 9a08 	vmla.f32	s19, s0, s16
 8004458:	ee28 0aa9 	vmul.f32	s0, s17, s19
 800445c:	ed86 0a00 	vstr	s0, [r6]
 8004460:	1f2d      	subs	r5, r5, #4
 8004462:	1f36      	subs	r6, r6, #4
 8004464:	42a5      	cmp	r5, r4
 8004466:	d2d3      	bcs.n	8004410 <nl_func_selu_array_f32+0x24>
 8004468:	ecbd 8b04 	vpop	{d8-d9}
 800446c:	bd70      	pop	{r4, r5, r6, pc}
	...

08004470 <nl_func_prelu_array_f32>:
 8004470:	6889      	ldr	r1, [r1, #8]
 8004472:	6880      	ldr	r0, [r0, #8]
 8004474:	eb03 0382 	add.w	r3, r3, r2, lsl #2
 8004478:	eb01 0c82 	add.w	ip, r1, r2, lsl #2
 800447c:	eb00 0282 	add.w	r2, r0, r2, lsl #2
 8004480:	1f1b      	subs	r3, r3, #4
 8004482:	f1ac 0c04 	sub.w	ip, ip, #4
 8004486:	1f10      	subs	r0, r2, #4
 8004488:	458c      	cmp	ip, r1
 800448a:	d320      	bcc.n	80044ce <nl_func_prelu_array_f32+0x5e>
 800448c:	ed9c 0a00 	vldr	s0, [ip]
 8004490:	eeb5 0a40 	vcmp.f32	s0, #0.0
 8004494:	eef1 fa10 	vmrs	APSR_nzcv, fpscr
 8004498:	bf4c      	ite	mi
 800449a:	eddf 0a39 	vldrmi	s1, [pc, #228]	; 8004580 <.text_73>
 800449e:	eef0 0a40 	vmovpl.f32	s1, s0
 80044a2:	461a      	mov	r2, r3
 80044a4:	eeb1 0a40 	vneg.f32	s0, s0
 80044a8:	1f13      	subs	r3, r2, #4
 80044aa:	eeb5 0a40 	vcmp.f32	s0, #0.0
 80044ae:	eef1 fa10 	vmrs	APSR_nzcv, fpscr
 80044b2:	bf48      	it	mi
 80044b4:	ed9f 0a32 	vldrmi	s0, [pc, #200]	; 8004580 <.text_73>
 80044b8:	ed92 1a00 	vldr	s2, [r2]
 80044bc:	ee41 0a40 	vmls.f32	s1, s2, s0
 80044c0:	edc0 0a00 	vstr	s1, [r0]
 80044c4:	f1ac 0c04 	sub.w	ip, ip, #4
 80044c8:	1f00      	subs	r0, r0, #4
 80044ca:	458c      	cmp	ip, r1
 80044cc:	d2de      	bcs.n	800448c <nl_func_prelu_array_f32+0x1c>
 80044ce:	4770      	bx	lr

080044d0 <forward_relu>:
 80044d0:	b570      	push	{r4, r5, r6, lr}
 80044d2:	4604      	mov	r4, r0
 80044d4:	6962      	ldr	r2, [r4, #20]
 80044d6:	8811      	ldrh	r1, [r2, #0]
 80044d8:	2900      	cmp	r1, #0
 80044da:	bf1a      	itte	ne
 80044dc:	6850      	ldrne	r0, [r2, #4]
 80044de:	1d00      	addne	r0, r0, #4
 80044e0:	2004      	moveq	r0, #4
 80044e2:	6800      	ldr	r0, [r0, #0]
 80044e4:	2800      	cmp	r0, #0
 80044e6:	bf14      	ite	ne
 80044e8:	6805      	ldrne	r5, [r0, #0]
 80044ea:	2500      	moveq	r5, #0
 80044ec:	2902      	cmp	r1, #2
 80044ee:	bfa6      	itte	ge
 80044f0:	6850      	ldrge	r0, [r2, #4]
 80044f2:	3010      	addge	r0, #16
 80044f4:	2004      	movlt	r0, #4
 80044f6:	6800      	ldr	r0, [r0, #0]
 80044f8:	2800      	cmp	r0, #0
 80044fa:	bf19      	ittee	ne
 80044fc:	6800      	ldrne	r0, [r0, #0]
 80044fe:	f100 0618 	addne.w	r6, r0, #24
 8004502:	2100      	moveq	r1, #0
 8004504:	f101 0618 	addeq.w	r6, r1, #24
 8004508:	69a0      	ldr	r0, [r4, #24]
 800450a:	b9f8      	cbnz	r0, 800454c <forward_relu+0x7c>
 800450c:	f105 0008 	add.w	r0, r5, #8
 8004510:	f7fe f80a 	bl	8002528 <ai_shape_get_size>
 8004514:	69a9      	ldr	r1, [r5, #24]
 8004516:	6833      	ldr	r3, [r6, #0]
 8004518:	6889      	ldr	r1, [r1, #8]
 800451a:	689c      	ldr	r4, [r3, #8]
 800451c:	eb01 0280 	add.w	r2, r1, r0, lsl #2
 8004520:	eb04 0080 	add.w	r0, r4, r0, lsl #2
 8004524:	1f12      	subs	r2, r2, #4
 8004526:	1f00      	subs	r0, r0, #4
 8004528:	428a      	cmp	r2, r1
 800452a:	d328      	bcc.n	800457e <forward_relu+0xae>
 800452c:	ed92 0a00 	vldr	s0, [r2]
 8004530:	eeb5 0a40 	vcmp.f32	s0, #0.0
 8004534:	eef1 fa10 	vmrs	APSR_nzcv, fpscr
 8004538:	bf48      	it	mi
 800453a:	ed9f 0a11 	vldrmi	s0, [pc, #68]	; 8004580 <.text_73>
 800453e:	ed80 0a00 	vstr	s0, [r0]
 8004542:	1f12      	subs	r2, r2, #4
 8004544:	1f00      	subs	r0, r0, #4
 8004546:	428a      	cmp	r2, r1
 8004548:	d2f0      	bcs.n	800452c <forward_relu+0x5c>
 800454a:	bd70      	pop	{r4, r5, r6, pc}
 800454c:	6840      	ldr	r0, [r0, #4]
 800454e:	2801      	cmp	r0, #1
 8004550:	f105 0008 	add.w	r0, r5, #8
 8004554:	d109      	bne.n	800456a <forward_relu+0x9a>
 8004556:	f7fd ffe7 	bl	8002528 <ai_shape_get_size>
 800455a:	4602      	mov	r2, r0
 800455c:	69a0      	ldr	r0, [r4, #24]
 800455e:	6883      	ldr	r3, [r0, #8]
 8004560:	69a9      	ldr	r1, [r5, #24]
 8004562:	6830      	ldr	r0, [r6, #0]
 8004564:	e8bd 4070 	ldmia.w	sp!, {r4, r5, r6, lr}
 8004568:	e6e2      	b.n	8004330 <nl_func_relu_thresholded_array_f32>
 800456a:	f7fd ffdd 	bl	8002528 <ai_shape_get_size>
 800456e:	69a1      	ldr	r1, [r4, #24]
 8004570:	688b      	ldr	r3, [r1, #8]
 8004572:	69a9      	ldr	r1, [r5, #24]
 8004574:	4602      	mov	r2, r0
 8004576:	6830      	ldr	r0, [r6, #0]
 8004578:	e8bd 4070 	ldmia.w	sp!, {r4, r5, r6, lr}
 800457c:	e67c      	b.n	8004278 <nl_func_relu_generic_array_f32>
 800457e:	bd70      	pop	{r4, r5, r6, pc}

08004580 <.text_73>:
 8004580:	00000000 	.word	0x00000000

08004584 <forward_relu_thresholded>:
 8004584:	b5f0      	push	{r4, r5, r6, r7, lr}
 8004586:	4602      	mov	r2, r0
 8004588:	f04f 0601 	mov.w	r6, #1
 800458c:	6953      	ldr	r3, [r2, #20]
 800458e:	8819      	ldrh	r1, [r3, #0]
 8004590:	2900      	cmp	r1, #0
 8004592:	bf1a      	itte	ne
 8004594:	6858      	ldrne	r0, [r3, #4]
 8004596:	1d00      	addne	r0, r0, #4
 8004598:	2004      	moveq	r0, #4
 800459a:	6800      	ldr	r0, [r0, #0]
 800459c:	2800      	cmp	r0, #0
 800459e:	bf14      	ite	ne
 80045a0:	6804      	ldrne	r4, [r0, #0]
 80045a2:	2400      	moveq	r4, #0
 80045a4:	2902      	cmp	r1, #2
 80045a6:	bfa6      	itte	ge
 80045a8:	6858      	ldrge	r0, [r3, #4]
 80045aa:	3010      	addge	r0, #16
 80045ac:	2004      	movlt	r0, #4
 80045ae:	6800      	ldr	r0, [r0, #0]
 80045b0:	2800      	cmp	r0, #0
 80045b2:	bf19      	ittee	ne
 80045b4:	6800      	ldrne	r0, [r0, #0]
 80045b6:	f100 0518 	addne.w	r5, r0, #24
 80045ba:	2100      	moveq	r1, #0
 80045bc:	f101 0518 	addeq.w	r5, r1, #24
 80045c0:	f104 0108 	add.w	r1, r4, #8
 80045c4:	680b      	ldr	r3, [r1, #0]
 80045c6:	0a1b      	lsrs	r3, r3, #8
 80045c8:	d01f      	beq.n	800460a <forward_relu_thresholded+0x86>
 80045ca:	684f      	ldr	r7, [r1, #4]
 80045cc:	eb07 0183 	add.w	r1, r7, r3, lsl #2
 80045d0:	4618      	mov	r0, r3
 80045d2:	f1a1 0c04 	sub.w	ip, r1, #4
 80045d6:	f010 0103 	ands.w	r1, r0, #3
 80045da:	d006      	beq.n	80045ea <forward_relu_thresholded+0x66>
 80045dc:	1e5b      	subs	r3, r3, #1
 80045de:	f85c e904 	ldr.w	lr, [ip], #-4
 80045e2:	1e49      	subs	r1, r1, #1
 80045e4:	fb0e f606 	mul.w	r6, lr, r6
 80045e8:	d1f8      	bne.n	80045dc <forward_relu_thresholded+0x58>
 80045ea:	0880      	lsrs	r0, r0, #2
 80045ec:	d00d      	beq.n	800460a <forward_relu_thresholded+0x86>
 80045ee:	eb07 0183 	add.w	r1, r7, r3, lsl #2
 80045f2:	3910      	subs	r1, #16
 80045f4:	68cb      	ldr	r3, [r1, #12]
 80045f6:	688f      	ldr	r7, [r1, #8]
 80045f8:	437b      	muls	r3, r7
 80045fa:	684f      	ldr	r7, [r1, #4]
 80045fc:	437b      	muls	r3, r7
 80045fe:	f851 7910 	ldr.w	r7, [r1], #-16
 8004602:	437b      	muls	r3, r7
 8004604:	435e      	muls	r6, r3
 8004606:	1e40      	subs	r0, r0, #1
 8004608:	d1f4      	bne.n	80045f4 <forward_relu_thresholded+0x70>
 800460a:	6990      	ldr	r0, [r2, #24]
 800460c:	6881      	ldr	r1, [r0, #8]
 800460e:	69a0      	ldr	r0, [r4, #24]
 8004610:	682a      	ldr	r2, [r5, #0]
 8004612:	6880      	ldr	r0, [r0, #8]
 8004614:	6893      	ldr	r3, [r2, #8]
 8004616:	ed91 0a00 	vldr	s0, [r1]
 800461a:	eb00 0186 	add.w	r1, r0, r6, lsl #2
 800461e:	eb03 0486 	add.w	r4, r3, r6, lsl #2
 8004622:	1f09      	subs	r1, r1, #4
 8004624:	1f22      	subs	r2, r4, #4
 8004626:	4281      	cmp	r1, r0
 8004628:	f0c0 800f 	bcc.w	800464a <forward_relu_thresholded+0xc6>
 800462c:	edd1 0a00 	vldr	s1, [r1]
 8004630:	eef4 0a40 	vcmp.f32	s1, s0
 8004634:	eef1 fa10 	vmrs	APSR_nzcv, fpscr
 8004638:	bf48      	it	mi
 800463a:	eddf 0ac2 	vldrmi	s1, [pc, #776]	; 8004944 <.text_80>
 800463e:	edc2 0a00 	vstr	s1, [r2]
 8004642:	1f09      	subs	r1, r1, #4
 8004644:	1f12      	subs	r2, r2, #4
 8004646:	4281      	cmp	r1, r0
 8004648:	d2f0      	bcs.n	800462c <forward_relu_thresholded+0xa8>
 800464a:	bdf0      	pop	{r4, r5, r6, r7, pc}

0800464c <forward_elu>:
 800464c:	b570      	push	{r4, r5, r6, lr}
 800464e:	4604      	mov	r4, r0
 8004650:	6962      	ldr	r2, [r4, #20]
 8004652:	8811      	ldrh	r1, [r2, #0]
 8004654:	2900      	cmp	r1, #0
 8004656:	bf1a      	itte	ne
 8004658:	6850      	ldrne	r0, [r2, #4]
 800465a:	1d00      	addne	r0, r0, #4
 800465c:	2004      	moveq	r0, #4
 800465e:	6800      	ldr	r0, [r0, #0]
 8004660:	2800      	cmp	r0, #0
 8004662:	bf14      	ite	ne
 8004664:	6805      	ldrne	r5, [r0, #0]
 8004666:	2500      	moveq	r5, #0
 8004668:	2902      	cmp	r1, #2
 800466a:	bfa6      	itte	ge
 800466c:	6850      	ldrge	r0, [r2, #4]
 800466e:	3010      	addge	r0, #16
 8004670:	2004      	movlt	r0, #4
 8004672:	6800      	ldr	r0, [r0, #0]
 8004674:	2800      	cmp	r0, #0
 8004676:	bf19      	ittee	ne
 8004678:	6800      	ldrne	r0, [r0, #0]
 800467a:	f100 0618 	addne.w	r6, r0, #24
 800467e:	2100      	moveq	r1, #0
 8004680:	f101 0618 	addeq.w	r6, r1, #24
 8004684:	f105 0008 	add.w	r0, r5, #8
 8004688:	f7fd ff4e 	bl	8002528 <ai_shape_get_size>
 800468c:	4602      	mov	r2, r0
 800468e:	69a0      	ldr	r0, [r4, #24]
 8004690:	6883      	ldr	r3, [r0, #8]
 8004692:	69a9      	ldr	r1, [r5, #24]
 8004694:	6830      	ldr	r0, [r6, #0]
 8004696:	e8bd 4070 	ldmia.w	sp!, {r4, r5, r6, lr}
 800469a:	e665      	b.n	8004368 <nl_func_elu_array_f32>

0800469c <forward_selu>:
 800469c:	b570      	push	{r4, r5, r6, lr}
 800469e:	4604      	mov	r4, r0
 80046a0:	6962      	ldr	r2, [r4, #20]
 80046a2:	8811      	ldrh	r1, [r2, #0]
 80046a4:	2900      	cmp	r1, #0
 80046a6:	bf1a      	itte	ne
 80046a8:	6850      	ldrne	r0, [r2, #4]
 80046aa:	1d00      	addne	r0, r0, #4
 80046ac:	2004      	moveq	r0, #4
 80046ae:	6800      	ldr	r0, [r0, #0]
 80046b0:	2800      	cmp	r0, #0
 80046b2:	bf14      	ite	ne
 80046b4:	6805      	ldrne	r5, [r0, #0]
 80046b6:	2500      	moveq	r5, #0
 80046b8:	2902      	cmp	r1, #2
 80046ba:	bfa6      	itte	ge
 80046bc:	6850      	ldrge	r0, [r2, #4]
 80046be:	3010      	addge	r0, #16
 80046c0:	2004      	movlt	r0, #4
 80046c2:	6800      	ldr	r0, [r0, #0]
 80046c4:	2800      	cmp	r0, #0
 80046c6:	bf19      	ittee	ne
 80046c8:	6800      	ldrne	r0, [r0, #0]
 80046ca:	f100 0618 	addne.w	r6, r0, #24
 80046ce:	2100      	moveq	r1, #0
 80046d0:	f101 0618 	addeq.w	r6, r1, #24
 80046d4:	f105 0008 	add.w	r0, r5, #8
 80046d8:	f7fd ff26 	bl	8002528 <ai_shape_get_size>
 80046dc:	4602      	mov	r2, r0
 80046de:	69a0      	ldr	r0, [r4, #24]
 80046e0:	6883      	ldr	r3, [r0, #8]
 80046e2:	69a9      	ldr	r1, [r5, #24]
 80046e4:	6830      	ldr	r0, [r6, #0]
 80046e6:	e8bd 4070 	ldmia.w	sp!, {r4, r5, r6, lr}
 80046ea:	e67f      	b.n	80043ec <nl_func_selu_array_f32>

080046ec <forward_prelu>:
 80046ec:	e92d 4ff0 	stmdb	sp!, {r4, r5, r6, r7, r8, r9, sl, fp, lr}
 80046f0:	b083      	sub	sp, #12
 80046f2:	6942      	ldr	r2, [r0, #20]
 80046f4:	8810      	ldrh	r0, [r2, #0]
 80046f6:	2800      	cmp	r0, #0
 80046f8:	bf1a      	itte	ne
 80046fa:	6851      	ldrne	r1, [r2, #4]
 80046fc:	1d09      	addne	r1, r1, #4
 80046fe:	2104      	moveq	r1, #4
 8004700:	6809      	ldr	r1, [r1, #0]
 8004702:	2900      	cmp	r1, #0
 8004704:	bf19      	ittee	ne
 8004706:	6809      	ldrne	r1, [r1, #0]
 8004708:	f101 0518 	addne.w	r5, r1, #24
 800470c:	2300      	moveq	r3, #0
 800470e:	f103 0518 	addeq.w	r5, r3, #24
 8004712:	2801      	cmp	r0, #1
 8004714:	bfc6      	itte	gt
 8004716:	6851      	ldrgt	r1, [r2, #4]
 8004718:	3110      	addgt	r1, #16
 800471a:	2104      	movle	r1, #4
 800471c:	6809      	ldr	r1, [r1, #0]
 800471e:	2900      	cmp	r1, #0
 8004720:	bf19      	ittee	ne
 8004722:	6809      	ldrne	r1, [r1, #0]
 8004724:	f101 0618 	addne.w	r6, r1, #24
 8004728:	2300      	moveq	r3, #0
 800472a:	f103 0618 	addeq.w	r6, r3, #24
 800472e:	2802      	cmp	r0, #2
 8004730:	bfc6      	itte	gt
 8004732:	6850      	ldrgt	r0, [r2, #4]
 8004734:	301c      	addgt	r0, #28
 8004736:	2004      	movle	r0, #4
 8004738:	6800      	ldr	r0, [r0, #0]
 800473a:	2800      	cmp	r0, #0
 800473c:	bf14      	ite	ne
 800473e:	6804      	ldrne	r4, [r0, #0]
 8004740:	2400      	moveq	r4, #0
 8004742:	69a0      	ldr	r0, [r4, #24]
 8004744:	6887      	ldr	r7, [r0, #8]
 8004746:	b12c      	cbz	r4, 8004754 <forward_prelu+0x68>
 8004748:	6841      	ldr	r1, [r0, #4]
 800474a:	6800      	ldr	r0, [r0, #0]
 800474c:	f001 fb8a 	bl	8005e64 <ai_array_get_byte_size>
 8004750:	4680      	mov	r8, r0
 8004752:	e001      	b.n	8004758 <forward_prelu+0x6c>
 8004754:	f04f 0801 	mov.w	r8, #1
 8004758:	6828      	ldr	r0, [r5, #0]
 800475a:	6841      	ldr	r1, [r0, #4]
 800475c:	6800      	ldr	r0, [r0, #0]
 800475e:	f001 fb81 	bl	8005e64 <ai_array_get_byte_size>
 8004762:	4601      	mov	r1, r0
 8004764:	6828      	ldr	r0, [r5, #0]
 8004766:	6832      	ldr	r2, [r6, #0]
 8004768:	6880      	ldr	r0, [r0, #8]
 800476a:	f8d2 9008 	ldr.w	r9, [r2, #8]
 800476e:	4401      	add	r1, r0
 8004770:	f104 0308 	add.w	r3, r4, #8
 8004774:	4288      	cmp	r0, r1
 8004776:	9300      	str	r3, [sp, #0]
 8004778:	d241      	bcs.n	80047fe <forward_prelu+0x112>
 800477a:	9702      	str	r7, [sp, #8]
 800477c:	9101      	str	r1, [sp, #4]
 800477e:	4607      	mov	r7, r0
 8004780:	6829      	ldr	r1, [r5, #0]
 8004782:	608f      	str	r7, [r1, #8]
 8004784:	f04f 0201 	mov.w	r2, #1
 8004788:	6834      	ldr	r4, [r6, #0]
 800478a:	f8c4 9008 	str.w	r9, [r4, #8]
 800478e:	9b00      	ldr	r3, [sp, #0]
 8004790:	6818      	ldr	r0, [r3, #0]
 8004792:	0a00      	lsrs	r0, r0, #8
 8004794:	d02a      	beq.n	80047ec <forward_prelu+0x100>
 8004796:	f8d3 e004 	ldr.w	lr, [r3, #4]
 800479a:	eb0e 0380 	add.w	r3, lr, r0, lsl #2
 800479e:	4684      	mov	ip, r0
 80047a0:	f1a3 0a04 	sub.w	sl, r3, #4
 80047a4:	f01c 0303 	ands.w	r3, ip, #3
 80047a8:	d006      	beq.n	80047b8 <forward_prelu+0xcc>
 80047aa:	1e40      	subs	r0, r0, #1
 80047ac:	f85a b904 	ldr.w	fp, [sl], #-4
 80047b0:	1e5b      	subs	r3, r3, #1
 80047b2:	fb0b f202 	mul.w	r2, fp, r2
 80047b6:	d1f8      	bne.n	80047aa <forward_prelu+0xbe>
 80047b8:	ea5f 0c9c 	movs.w	ip, ip, lsr #2
 80047bc:	4663      	mov	r3, ip
 80047be:	d015      	beq.n	80047ec <forward_prelu+0x100>
 80047c0:	eb0e 0080 	add.w	r0, lr, r0, lsl #2
 80047c4:	f1b0 0010 	subs.w	r0, r0, #16
 80047c8:	f8d0 c00c 	ldr.w	ip, [r0, #12]
 80047cc:	f8d0 e008 	ldr.w	lr, [r0, #8]
 80047d0:	f8d0 a004 	ldr.w	sl, [r0, #4]
 80047d4:	f850 b910 	ldr.w	fp, [r0], #-16
 80047d8:	fb0e fc0c 	mul.w	ip, lr, ip
 80047dc:	fb0a fc0c 	mul.w	ip, sl, ip
 80047e0:	fb0b fc0c 	mul.w	ip, fp, ip
 80047e4:	1e5b      	subs	r3, r3, #1
 80047e6:	fb0c f202 	mul.w	r2, ip, r2
 80047ea:	d1ed      	bne.n	80047c8 <forward_prelu+0xdc>
 80047ec:	9b02      	ldr	r3, [sp, #8]
 80047ee:	4620      	mov	r0, r4
 80047f0:	f7ff fe3e 	bl	8004470 <nl_func_prelu_array_f32>
 80047f4:	9801      	ldr	r0, [sp, #4]
 80047f6:	4447      	add	r7, r8
 80047f8:	4287      	cmp	r7, r0
 80047fa:	44c1      	add	r9, r8
 80047fc:	d3c0      	bcc.n	8004780 <forward_prelu+0x94>
 80047fe:	6828      	ldr	r0, [r5, #0]
 8004800:	68c1      	ldr	r1, [r0, #12]
 8004802:	6081      	str	r1, [r0, #8]
 8004804:	6830      	ldr	r0, [r6, #0]
 8004806:	68c1      	ldr	r1, [r0, #12]
 8004808:	6081      	str	r1, [r0, #8]
 800480a:	b003      	add	sp, #12
 800480c:	e8bd 8ff0 	ldmia.w	sp!, {r4, r5, r6, r7, r8, r9, sl, fp, pc}

08004810 <forward_clip>:
 8004810:	b570      	push	{r4, r5, r6, lr}
 8004812:	4604      	mov	r4, r0
 8004814:	6962      	ldr	r2, [r4, #20]
 8004816:	8811      	ldrh	r1, [r2, #0]
 8004818:	2900      	cmp	r1, #0
 800481a:	bf1a      	itte	ne
 800481c:	6850      	ldrne	r0, [r2, #4]
 800481e:	1d00      	addne	r0, r0, #4
 8004820:	2004      	moveq	r0, #4
 8004822:	6800      	ldr	r0, [r0, #0]
 8004824:	2800      	cmp	r0, #0
 8004826:	bf14      	ite	ne
 8004828:	6805      	ldrne	r5, [r0, #0]
 800482a:	2500      	moveq	r5, #0
 800482c:	2902      	cmp	r1, #2
 800482e:	bfa6      	itte	ge
 8004830:	6850      	ldrge	r0, [r2, #4]
 8004832:	3010      	addge	r0, #16
 8004834:	2004      	movlt	r0, #4
 8004836:	6800      	ldr	r0, [r0, #0]
 8004838:	2800      	cmp	r0, #0
 800483a:	bf19      	ittee	ne
 800483c:	6800      	ldrne	r0, [r0, #0]
 800483e:	f100 0618 	addne.w	r6, r0, #24
 8004842:	2100      	moveq	r1, #0
 8004844:	f101 0618 	addeq.w	r6, r1, #24
 8004848:	f105 0008 	add.w	r0, r5, #8
 800484c:	f7fd fe6c 	bl	8002528 <ai_shape_get_size>
 8004850:	4602      	mov	r2, r0
 8004852:	69a0      	ldr	r0, [r4, #24]
 8004854:	6883      	ldr	r3, [r0, #8]
 8004856:	69a9      	ldr	r1, [r5, #24]
 8004858:	6830      	ldr	r0, [r6, #0]
 800485a:	e8bd 4070 	ldmia.w	sp!, {r4, r5, r6, lr}
 800485e:	e473      	b.n	8004148 <nl_func_clip_array_f32>

08004860 <forward_hard_sigmoid>:
 8004860:	b4f0      	push	{r4, r5, r6, r7}
 8004862:	6942      	ldr	r2, [r0, #20]
 8004864:	8811      	ldrh	r1, [r2, #0]
 8004866:	2900      	cmp	r1, #0
 8004868:	bf1a      	itte	ne
 800486a:	6850      	ldrne	r0, [r2, #4]
 800486c:	1d00      	addne	r0, r0, #4
 800486e:	2004      	moveq	r0, #4
 8004870:	f04f 0501 	mov.w	r5, #1
 8004874:	6800      	ldr	r0, [r0, #0]
 8004876:	2800      	cmp	r0, #0
 8004878:	bf14      	ite	ne
 800487a:	6803      	ldrne	r3, [r0, #0]
 800487c:	2300      	moveq	r3, #0
 800487e:	2902      	cmp	r1, #2
 8004880:	bfa6      	itte	ge
 8004882:	6850      	ldrge	r0, [r2, #4]
 8004884:	3010      	addge	r0, #16
 8004886:	2004      	movlt	r0, #4
 8004888:	6800      	ldr	r0, [r0, #0]
 800488a:	2800      	cmp	r0, #0
 800488c:	bf19      	ittee	ne
 800488e:	6800      	ldrne	r0, [r0, #0]
 8004890:	f100 0418 	addne.w	r4, r0, #24
 8004894:	2100      	moveq	r1, #0
 8004896:	f101 0418 	addeq.w	r4, r1, #24
 800489a:	f103 0108 	add.w	r1, r3, #8
 800489e:	680a      	ldr	r2, [r1, #0]
 80048a0:	0a12      	lsrs	r2, r2, #8
 80048a2:	d01e      	beq.n	80048e2 <forward_hard_sigmoid+0x82>
 80048a4:	684e      	ldr	r6, [r1, #4]
 80048a6:	eb06 0182 	add.w	r1, r6, r2, lsl #2
 80048aa:	4610      	mov	r0, r2
 80048ac:	1f0f      	subs	r7, r1, #4
 80048ae:	f010 0103 	ands.w	r1, r0, #3
 80048b2:	d006      	beq.n	80048c2 <forward_hard_sigmoid+0x62>
 80048b4:	1e52      	subs	r2, r2, #1
 80048b6:	f857 c904 	ldr.w	ip, [r7], #-4
 80048ba:	1e49      	subs	r1, r1, #1
 80048bc:	fb0c f505 	mul.w	r5, ip, r5
 80048c0:	d1f8      	bne.n	80048b4 <forward_hard_sigmoid+0x54>
 80048c2:	0880      	lsrs	r0, r0, #2
 80048c4:	d00d      	beq.n	80048e2 <forward_hard_sigmoid+0x82>
 80048c6:	eb06 0182 	add.w	r1, r6, r2, lsl #2
 80048ca:	3910      	subs	r1, #16
 80048cc:	68ca      	ldr	r2, [r1, #12]
 80048ce:	688e      	ldr	r6, [r1, #8]
 80048d0:	684f      	ldr	r7, [r1, #4]
 80048d2:	4372      	muls	r2, r6
 80048d4:	f851 6910 	ldr.w	r6, [r1], #-16
 80048d8:	437a      	muls	r2, r7
 80048da:	4372      	muls	r2, r6
 80048dc:	4355      	muls	r5, r2
 80048de:	1e40      	subs	r0, r0, #1
 80048e0:	d1f4      	bne.n	80048cc <forward_hard_sigmoid+0x6c>
 80048e2:	6998      	ldr	r0, [r3, #24]
 80048e4:	6822      	ldr	r2, [r4, #0]
 80048e6:	6880      	ldr	r0, [r0, #8]
 80048e8:	6893      	ldr	r3, [r2, #8]
 80048ea:	eb00 0185 	add.w	r1, r0, r5, lsl #2
 80048ee:	eb03 0485 	add.w	r4, r3, r5, lsl #2
 80048f2:	1f09      	subs	r1, r1, #4
 80048f4:	1f22      	subs	r2, r4, #4
 80048f6:	4281      	cmp	r1, r0
 80048f8:	f0c0 8022 	bcc.w	8004940 <forward_hard_sigmoid+0xe0>
 80048fc:	eeb7 0a00 	vmov.f32	s0, #112	; 0x3f800000  1.0
 8004900:	eddf 0a11 	vldr	s1, [pc, #68]	; 8004948 <.text_81>
 8004904:	edd1 1a00 	vldr	s3, [r1]
 8004908:	ed9f 2a10 	vldr	s4, [pc, #64]	; 800494c <.text_82>
 800490c:	eeb6 1a00 	vmov.f32	s2, #96	; 0x3f000000  0.5
 8004910:	ee01 1a82 	vmla.f32	s2, s3, s4
 8004914:	eeb4 1a60 	vcmp.f32	s2, s1
 8004918:	eef1 fa10 	vmrs	APSR_nzcv, fpscr
 800491c:	da08      	bge.n	8004930 <forward_hard_sigmoid+0xd0>
 800491e:	eeb5 1a40 	vcmp.f32	s2, #0.0
 8004922:	eef1 fa10 	vmrs	APSR_nzcv, fpscr
 8004926:	d505      	bpl.n	8004934 <forward_hard_sigmoid+0xd4>
 8004928:	ed9f 1a06 	vldr	s2, [pc, #24]	; 8004944 <.text_80>
 800492c:	e002      	b.n	8004934 <forward_hard_sigmoid+0xd4>
 800492e:	bf00      	nop
 8004930:	eeb0 1a40 	vmov.f32	s2, s0
 8004934:	ed82 1a00 	vstr	s2, [r2]
 8004938:	1f09      	subs	r1, r1, #4
 800493a:	1f12      	subs	r2, r2, #4
 800493c:	4281      	cmp	r1, r0
 800493e:	d2e1      	bcs.n	8004904 <forward_hard_sigmoid+0xa4>
 8004940:	bcf0      	pop	{r4, r5, r6, r7}
 8004942:	4770      	bx	lr

08004944 <.text_80>:
 8004944:	00000000 	.word	0x00000000

08004948 <.text_81>:
 8004948:	3f800001 	.word	0x3f800001

0800494c <.text_82>:
 800494c:	3e4ccccd 	.word	0x3e4ccccd

08004950 <forward_sm>:
 8004950:	b5f0      	push	{r4, r5, r6, r7, lr}
 8004952:	b083      	sub	sp, #12
 8004954:	6942      	ldr	r2, [r0, #20]
 8004956:	8811      	ldrh	r1, [r2, #0]
 8004958:	2900      	cmp	r1, #0
 800495a:	bf1a      	itte	ne
 800495c:	6850      	ldrne	r0, [r2, #4]
 800495e:	1d00      	addne	r0, r0, #4
 8004960:	2004      	moveq	r0, #4
 8004962:	6800      	ldr	r0, [r0, #0]
 8004964:	2800      	cmp	r0, #0
 8004966:	bf14      	ite	ne
 8004968:	6804      	ldrne	r4, [r0, #0]
 800496a:	2400      	moveq	r4, #0
 800496c:	2902      	cmp	r1, #2
 800496e:	bfa6      	itte	ge
 8004970:	6850      	ldrge	r0, [r2, #4]
 8004972:	3010      	addge	r0, #16
 8004974:	2004      	movlt	r0, #4
 8004976:	6800      	ldr	r0, [r0, #0]
 8004978:	2800      	cmp	r0, #0
 800497a:	bf14      	ite	ne
 800497c:	6805      	ldrne	r5, [r0, #0]
 800497e:	2500      	moveq	r5, #0
 8004980:	68e0      	ldr	r0, [r4, #12]
 8004982:	68e9      	ldr	r1, [r5, #12]
 8004984:	6846      	ldr	r6, [r0, #4]
 8004986:	684f      	ldr	r7, [r1, #4]
 8004988:	f104 0008 	add.w	r0, r4, #8
 800498c:	f7fd fdcc 	bl	8002528 <ai_shape_get_size>
 8004990:	4602      	mov	r2, r0
 8004992:	9701      	str	r7, [sp, #4]
 8004994:	9600      	str	r6, [sp, #0]
 8004996:	69a1      	ldr	r1, [r4, #24]
 8004998:	69a8      	ldr	r0, [r5, #24]
 800499a:	4633      	mov	r3, r6
 800499c:	f7ff fb76 	bl	800408c <nl_func_sm_array_f32>
 80049a0:	b003      	add	sp, #12
 80049a2:	bdf0      	pop	{r4, r5, r6, r7, pc}

080049a4 <forward_hardmax>:
 80049a4:	b430      	push	{r4, r5}
 80049a6:	6943      	ldr	r3, [r0, #20]
 80049a8:	881a      	ldrh	r2, [r3, #0]
 80049aa:	6980      	ldr	r0, [r0, #24]
 80049ac:	2a00      	cmp	r2, #0
 80049ae:	bf1a      	itte	ne
 80049b0:	6859      	ldrne	r1, [r3, #4]
 80049b2:	1d09      	addne	r1, r1, #4
 80049b4:	2104      	moveq	r1, #4
 80049b6:	6809      	ldr	r1, [r1, #0]
 80049b8:	2900      	cmp	r1, #0
 80049ba:	bf14      	ite	ne
 80049bc:	680c      	ldrne	r4, [r1, #0]
 80049be:	2400      	moveq	r4, #0
 80049c0:	2a02      	cmp	r2, #2
 80049c2:	bfa6      	itte	ge
 80049c4:	6859      	ldrge	r1, [r3, #4]
 80049c6:	3110      	addge	r1, #16
 80049c8:	2104      	movlt	r1, #4
 80049ca:	6809      	ldr	r1, [r1, #0]
 80049cc:	6883      	ldr	r3, [r0, #8]
 80049ce:	2900      	cmp	r1, #0
 80049d0:	bf19      	ittee	ne
 80049d2:	6809      	ldrne	r1, [r1, #0]
 80049d4:	f101 0518 	addne.w	r5, r1, #24
 80049d8:	2200      	moveq	r2, #0
 80049da:	f102 0518 	addeq.w	r5, r2, #24
 80049de:	69a1      	ldr	r1, [r4, #24]
 80049e0:	6828      	ldr	r0, [r5, #0]
 80049e2:	f104 0208 	add.w	r2, r4, #8
 80049e6:	bc30      	pop	{r4, r5}
 80049e8:	f7ff bbd4 	b.w	8004194 <nl_func_hardmax_array_f32>

080049ec <pool_func_mp_array_f32>:
 80049ec:	e92d 4ff0 	stmdb	sp!, {r4, r5, r6, r7, r8, r9, sl, fp, lr}
 80049f0:	4688      	mov	r8, r1
 80049f2:	b08b      	sub	sp, #44	; 0x2c
 80049f4:	f8d0 b008 	ldr.w	fp, [r0, #8]
 80049f8:	991b      	ldr	r1, [sp, #108]	; 0x6c
 80049fa:	f9bd e064 	ldrsh.w	lr, [sp, #100]	; 0x64
 80049fe:	9f17      	ldr	r7, [sp, #92]	; 0x5c
 8004a00:	9c15      	ldr	r4, [sp, #84]	; 0x54
 8004a02:	1e48      	subs	r0, r1, #1
 8004a04:	fb10 fe0e 	smulbb	lr, r0, lr
 8004a08:	4615      	mov	r5, r2
 8004a0a:	ebae 0e07 	sub.w	lr, lr, r7
 8004a0e:	9a1c      	ldr	r2, [sp, #112]	; 0x70
 8004a10:	f8bd 0058 	ldrh.w	r0, [sp, #88]	; 0x58
 8004a14:	6892      	ldr	r2, [r2, #8]
 8004a16:	44a6      	add	lr, r4
 8004a18:	f1ae 0601 	sub.w	r6, lr, #1
 8004a1c:	469c      	mov	ip, r3
 8004a1e:	1b76      	subs	r6, r6, r5
 8004a20:	9b18      	ldr	r3, [sp, #96]	; 0x60
 8004a22:	4338      	orrs	r0, r7
 8004a24:	f040 80dd 	bne.w	8004be2 <pool_func_mp_array_f32+0x1f6>
 8004a28:	f9bd 0068 	ldrsh.w	r0, [sp, #104]	; 0x68
 8004a2c:	f1a0 0901 	sub.w	r9, r0, #1
 8004a30:	f9bd 0058 	ldrsh.w	r0, [sp, #88]	; 0x58
 8004a34:	fb19 f903 	smulbb	r9, r9, r3
 8004a38:	eba9 0900 	sub.w	r9, r9, r0
 8004a3c:	f9bd 0050 	ldrsh.w	r0, [sp, #80]	; 0x50
 8004a40:	4448      	add	r0, r9
 8004a42:	1e40      	subs	r0, r0, #1
 8004a44:	eba0 0008 	sub.w	r0, r0, r8
 8004a48:	b200      	sxth	r0, r0
 8004a4a:	2800      	cmp	r0, #0
 8004a4c:	bf44      	itt	mi
 8004a4e:	b236      	sxthmi	r6, r6
 8004a50:	2e00      	cmpmi	r6, #0
 8004a52:	f140 80c6 	bpl.w	8004be2 <pool_func_mp_array_f32+0x1f6>
 8004a56:	2000      	movs	r0, #0
 8004a58:	000d      	movs	r5, r1
 8004a5a:	9008      	str	r0, [sp, #32]
 8004a5c:	f000 8178 	beq.w	8004d50 <pool_func_mp_array_f32+0x364>
 8004a60:	b224      	sxth	r4, r4
 8004a62:	f8ad 4006 	strh.w	r4, [sp, #6]
 8004a66:	9002      	str	r0, [sp, #8]
 8004a68:	9007      	str	r0, [sp, #28]
 8004a6a:	9106      	str	r1, [sp, #24]
 8004a6c:	ea4f 040c 	mov.w	r4, ip
 8004a70:	ed9f 0ab9 	vldr	s0, [pc, #740]	; 8004d58 <.text_3>
 8004a74:	f8bd 0068 	ldrh.w	r0, [sp, #104]	; 0x68
 8004a78:	f9bd 7006 	ldrsh.w	r7, [sp, #6]
 8004a7c:	2800      	cmp	r0, #0
 8004a7e:	f000 8096 	beq.w	8004bae <pool_func_mp_array_f32+0x1c2>
 8004a82:	9907      	ldr	r1, [sp, #28]
 8004a84:	9808      	ldr	r0, [sp, #32]
 8004a86:	f9bd 6050 	ldrsh.w	r6, [sp, #80]	; 0x50
 8004a8a:	f8bd 5068 	ldrh.w	r5, [sp, #104]	; 0x68
 8004a8e:	9103      	str	r1, [sp, #12]
 8004a90:	f04f 0a00 	mov.w	sl, #0
 8004a94:	f8bd 1064 	ldrh.w	r1, [sp, #100]	; 0x64
 8004a98:	f8ad c002 	strh.w	ip, [sp, #2]
 8004a9c:	4348      	muls	r0, r1
 8004a9e:	b200      	sxth	r0, r0
 8004aa0:	900a      	str	r0, [sp, #40]	; 0x28
 8004aa2:	f8ad 3060 	strh.w	r3, [sp, #96]	; 0x60
 8004aa6:	9204      	str	r2, [sp, #16]
 8004aa8:	f8ad 6000 	strh.w	r6, [sp]
 8004aac:	f8cd 5014 	str.w	r5, [sp, #20]
 8004ab0:	f8ad 8004 	strh.w	r8, [sp, #4]
 8004ab4:	f8bd 0002 	ldrh.w	r0, [sp, #2]
 8004ab8:	f9bd e000 	ldrsh.w	lr, [sp]
 8004abc:	2100      	movs	r1, #0
 8004abe:	2800      	cmp	r0, #0
 8004ac0:	d05d      	beq.n	8004b7e <pool_func_mp_array_f32+0x192>
 8004ac2:	9a03      	ldr	r2, [sp, #12]
 8004ac4:	9804      	ldr	r0, [sp, #16]
 8004ac6:	4362      	muls	r2, r4
 8004ac8:	ab02      	add	r3, sp, #8
 8004aca:	eb00 0c82 	add.w	ip, r0, r2, lsl #2
 8004ace:	5e58      	ldrsh	r0, [r3, r1]
 8004ad0:	9009      	str	r0, [sp, #36]	; 0x24
 8004ad2:	fa0f f58a 	sxth.w	r5, sl
 8004ad6:	f8bd 8004 	ldrh.w	r8, [sp, #4]
 8004ada:	9809      	ldr	r0, [sp, #36]	; 0x24
 8004adc:	42b8      	cmp	r0, r7
 8004ade:	eef0 0a40 	vmov.f32	s1, s0
 8004ae2:	da45      	bge.n	8004b70 <pool_func_mp_array_f32+0x184>
 8004ae4:	9a0a      	ldr	r2, [sp, #40]	; 0x28
 8004ae6:	fb08 f900 	mul.w	r9, r8, r0
 8004aea:	1aba      	subs	r2, r7, r2
 8004aec:	4658      	mov	r0, fp
 8004aee:	4575      	cmp	r5, lr
 8004af0:	462e      	mov	r6, r5
 8004af2:	da39      	bge.n	8004b68 <pool_func_mp_array_f32+0x17c>
 8004af4:	ebae 0305 	sub.w	r3, lr, r5
 8004af8:	ea5f 7bc3 	movs.w	fp, r3, lsl #31
 8004afc:	d50f      	bpl.n	8004b1e <pool_func_mp_array_f32+0x132>
 8004afe:	eb09 0b06 	add.w	fp, r9, r6
 8004b02:	fb0b 1b04 	mla	fp, fp, r4, r1
 8004b06:	eb00 0b8b 	add.w	fp, r0, fp, lsl #2
 8004b0a:	ed9b 1a00 	vldr	s2, [fp]
 8004b0e:	eeb4 1a60 	vcmp.f32	s2, s1
 8004b12:	eef1 fa10 	vmrs	APSR_nzcv, fpscr
 8004b16:	bf58      	it	pl
 8004b18:	eef0 0a41 	vmovpl.f32	s1, s2
 8004b1c:	1c76      	adds	r6, r6, #1
 8004b1e:	085b      	lsrs	r3, r3, #1
 8004b20:	f000 8022 	beq.w	8004b68 <pool_func_mp_array_f32+0x17c>
 8004b24:	eb09 0b06 	add.w	fp, r9, r6
 8004b28:	fb0b 1b04 	mla	fp, fp, r4, r1
 8004b2c:	eb00 0b8b 	add.w	fp, r0, fp, lsl #2
 8004b30:	ed9b 1a00 	vldr	s2, [fp]
 8004b34:	eeb4 1a60 	vcmp.f32	s2, s1
 8004b38:	eef1 fa10 	vmrs	APSR_nzcv, fpscr
 8004b3c:	bf58      	it	pl
 8004b3e:	eef0 0a41 	vmovpl.f32	s1, s2
 8004b42:	1c76      	adds	r6, r6, #1
 8004b44:	eb09 0b06 	add.w	fp, r9, r6
 8004b48:	fb0b 1b04 	mla	fp, fp, r4, r1
 8004b4c:	eb00 0b8b 	add.w	fp, r0, fp, lsl #2
 8004b50:	ed9b 1a00 	vldr	s2, [fp]
 8004b54:	eeb4 1a60 	vcmp.f32	s2, s1
 8004b58:	eef1 fa10 	vmrs	APSR_nzcv, fpscr
 8004b5c:	bf58      	it	pl
 8004b5e:	eef0 0a41 	vmovpl.f32	s1, s2
 8004b62:	1c76      	adds	r6, r6, #1
 8004b64:	1e5b      	subs	r3, r3, #1
 8004b66:	d1dd      	bne.n	8004b24 <pool_func_mp_array_f32+0x138>
 8004b68:	1e52      	subs	r2, r2, #1
 8004b6a:	44c1      	add	r9, r8
 8004b6c:	d1bf      	bne.n	8004aee <pool_func_mp_array_f32+0x102>
 8004b6e:	4683      	mov	fp, r0
 8004b70:	1c49      	adds	r1, r1, #1
 8004b72:	edcc 0a00 	vstr	s1, [ip]
 8004b76:	42a1      	cmp	r1, r4
 8004b78:	f10c 0c04 	add.w	ip, ip, #4
 8004b7c:	dbad      	blt.n	8004ada <pool_func_mp_array_f32+0xee>
 8004b7e:	9803      	ldr	r0, [sp, #12]
 8004b80:	f8bd 1000 	ldrh.w	r1, [sp]
 8004b84:	1c40      	adds	r0, r0, #1
 8004b86:	9003      	str	r0, [sp, #12]
 8004b88:	f8bd 0060 	ldrh.w	r0, [sp, #96]	; 0x60
 8004b8c:	4482      	add	sl, r0
 8004b8e:	f9bd 0060 	ldrsh.w	r0, [sp, #96]	; 0x60
 8004b92:	1841      	adds	r1, r0, r1
 8004b94:	f8ad 1000 	strh.w	r1, [sp]
 8004b98:	9905      	ldr	r1, [sp, #20]
 8004b9a:	1e49      	subs	r1, r1, #1
 8004b9c:	9105      	str	r1, [sp, #20]
 8004b9e:	d189      	bne.n	8004ab4 <pool_func_mp_array_f32+0xc8>
 8004ba0:	f8bd c002 	ldrh.w	ip, [sp, #2]
 8004ba4:	f8bd 3060 	ldrh.w	r3, [sp, #96]	; 0x60
 8004ba8:	9a04      	ldr	r2, [sp, #16]
 8004baa:	f8bd 8004 	ldrh.w	r8, [sp, #4]
 8004bae:	9908      	ldr	r1, [sp, #32]
 8004bb0:	f8bd 5068 	ldrh.w	r5, [sp, #104]	; 0x68
 8004bb4:	f8bd 7006 	ldrh.w	r7, [sp, #6]
 8004bb8:	1c49      	adds	r1, r1, #1
 8004bba:	9108      	str	r1, [sp, #32]
 8004bbc:	9907      	ldr	r1, [sp, #28]
 8004bbe:	194d      	adds	r5, r1, r5
 8004bc0:	9507      	str	r5, [sp, #28]
 8004bc2:	9902      	ldr	r1, [sp, #8]
 8004bc4:	f8bd 5064 	ldrh.w	r5, [sp, #100]	; 0x64
 8004bc8:	194d      	adds	r5, r1, r5
 8004bca:	9502      	str	r5, [sp, #8]
 8004bcc:	f9bd 1064 	ldrsh.w	r1, [sp, #100]	; 0x64
 8004bd0:	9d06      	ldr	r5, [sp, #24]
 8004bd2:	19cf      	adds	r7, r1, r7
 8004bd4:	1e6d      	subs	r5, r5, #1
 8004bd6:	f8ad 7006 	strh.w	r7, [sp, #6]
 8004bda:	9506      	str	r5, [sp, #24]
 8004bdc:	f000 80b8 	beq.w	8004d50 <pool_func_mp_array_f32+0x364>
 8004be0:	e748      	b.n	8004a74 <pool_func_mp_array_f32+0x88>
 8004be2:	0008      	movs	r0, r1
 8004be4:	f000 80b4 	beq.w	8004d50 <pool_func_mp_array_f32+0x364>
 8004be8:	427f      	negs	r7, r7
 8004bea:	19e4      	adds	r4, r4, r7
 8004bec:	f8ad 7000 	strh.w	r7, [sp]
 8004bf0:	f8ad 400a 	strh.w	r4, [sp, #10]
 8004bf4:	2000      	movs	r0, #0
 8004bf6:	9008      	str	r0, [sp, #32]
 8004bf8:	f8cd 101c 	str.w	r1, [sp, #28]
 8004bfc:	ed9f 0a56 	vldr	s0, [pc, #344]	; 8004d58 <.text_3>
 8004c00:	f8bd 0068 	ldrh.w	r0, [sp, #104]	; 0x68
 8004c04:	f9bd a00a 	ldrsh.w	sl, [sp, #10]
 8004c08:	2800      	cmp	r0, #0
 8004c0a:	f000 8089 	beq.w	8004d20 <pool_func_mp_array_f32+0x334>
 8004c0e:	f9bd e058 	ldrsh.w	lr, [sp, #88]	; 0x58
 8004c12:	f9bd 7050 	ldrsh.w	r7, [sp, #80]	; 0x50
 8004c16:	9908      	ldr	r1, [sp, #32]
 8004c18:	f8bd 4068 	ldrh.w	r4, [sp, #104]	; 0x68
 8004c1c:	9103      	str	r1, [sp, #12]
 8004c1e:	f1ce 0e00 	rsb	lr, lr, #0
 8004c22:	4477      	add	r7, lr
 8004c24:	f8ad c002 	strh.w	ip, [sp, #2]
 8004c28:	f8ad 3060 	strh.w	r3, [sp, #96]	; 0x60
 8004c2c:	9204      	str	r2, [sp, #16]
 8004c2e:	f8ad e006 	strh.w	lr, [sp, #6]
 8004c32:	f8ad 7008 	strh.w	r7, [sp, #8]
 8004c36:	9406      	str	r4, [sp, #24]
 8004c38:	f8ad 8004 	strh.w	r8, [sp, #4]
 8004c3c:	f8bd 1002 	ldrh.w	r1, [sp, #2]
 8004c40:	f9bd 0008 	ldrsh.w	r0, [sp, #8]
 8004c44:	2600      	movs	r6, #0
 8004c46:	2900      	cmp	r1, #0
 8004c48:	d04e      	beq.n	8004ce8 <pool_func_mp_array_f32+0x2fc>
 8004c4a:	f8bd 2002 	ldrh.w	r2, [sp, #2]
 8004c4e:	9b03      	ldr	r3, [sp, #12]
 8004c50:	9904      	ldr	r1, [sp, #16]
 8004c52:	f9bd 4006 	ldrsh.w	r4, [sp, #6]
 8004c56:	435a      	muls	r2, r3
 8004c58:	eb01 0182 	add.w	r1, r1, r2, lsl #2
 8004c5c:	f8bd 2002 	ldrh.w	r2, [sp, #2]
 8004c60:	f8bd 3004 	ldrh.w	r3, [sp, #4]
 8004c64:	f8cd 1014 	str.w	r1, [sp, #20]
 8004c68:	f9bd 1000 	ldrsh.w	r1, [sp]
 8004c6c:	4551      	cmp	r1, sl
 8004c6e:	eef0 0a40 	vmov.f32	s1, s0
 8004c72:	da2a      	bge.n	8004cca <pool_func_mp_array_f32+0x2de>
 8004c74:	fb03 f901 	mul.w	r9, r3, r1
 8004c78:	f8ad 5002 	strh.w	r5, [sp, #2]
 8004c7c:	4284      	cmp	r4, r0
 8004c7e:	4625      	mov	r5, r4
 8004c80:	da1d      	bge.n	8004cbe <pool_func_mp_array_f32+0x2d2>
 8004c82:	f8bd 7002 	ldrh.w	r7, [sp, #2]
 8004c86:	46de      	mov	lr, fp
 8004c88:	2900      	cmp	r1, #0
 8004c8a:	bf58      	it	pl
 8004c8c:	2d00      	cmppl	r5, #0
 8004c8e:	d412      	bmi.n	8004cb6 <pool_func_mp_array_f32+0x2ca>
 8004c90:	42b9      	cmp	r1, r7
 8004c92:	bfb8      	it	lt
 8004c94:	429d      	cmplt	r5, r3
 8004c96:	da0e      	bge.n	8004cb6 <pool_func_mp_array_f32+0x2ca>
 8004c98:	eb09 0b05 	add.w	fp, r9, r5
 8004c9c:	fb0b 6b02 	mla	fp, fp, r2, r6
 8004ca0:	eb0e 0b8b 	add.w	fp, lr, fp, lsl #2
 8004ca4:	ed9b 1a00 	vldr	s2, [fp]
 8004ca8:	eeb4 1a60 	vcmp.f32	s2, s1
 8004cac:	eef1 fa10 	vmrs	APSR_nzcv, fpscr
 8004cb0:	bf58      	it	pl
 8004cb2:	eef0 0a41 	vmovpl.f32	s1, s2
 8004cb6:	1c6d      	adds	r5, r5, #1
 8004cb8:	4285      	cmp	r5, r0
 8004cba:	dbe5      	blt.n	8004c88 <pool_func_mp_array_f32+0x29c>
 8004cbc:	46f3      	mov	fp, lr
 8004cbe:	1c49      	adds	r1, r1, #1
 8004cc0:	4551      	cmp	r1, sl
 8004cc2:	4499      	add	r9, r3
 8004cc4:	dbda      	blt.n	8004c7c <pool_func_mp_array_f32+0x290>
 8004cc6:	f8bd 5002 	ldrh.w	r5, [sp, #2]
 8004cca:	1c76      	adds	r6, r6, #1
 8004ccc:	9905      	ldr	r1, [sp, #20]
 8004cce:	edc1 0a00 	vstr	s1, [r1]
 8004cd2:	9905      	ldr	r1, [sp, #20]
 8004cd4:	1d0f      	adds	r7, r1, #4
 8004cd6:	4296      	cmp	r6, r2
 8004cd8:	9705      	str	r7, [sp, #20]
 8004cda:	dbc5      	blt.n	8004c68 <pool_func_mp_array_f32+0x27c>
 8004cdc:	f8ad 2002 	strh.w	r2, [sp, #2]
 8004ce0:	f8ad 4006 	strh.w	r4, [sp, #6]
 8004ce4:	f8ad 3004 	strh.w	r3, [sp, #4]
 8004ce8:	9803      	ldr	r0, [sp, #12]
 8004cea:	f9bd 1060 	ldrsh.w	r1, [sp, #96]	; 0x60
 8004cee:	1c40      	adds	r0, r0, #1
 8004cf0:	9003      	str	r0, [sp, #12]
 8004cf2:	f8bd 0008 	ldrh.w	r0, [sp, #8]
 8004cf6:	1808      	adds	r0, r1, r0
 8004cf8:	f8ad 0008 	strh.w	r0, [sp, #8]
 8004cfc:	f9bd 1060 	ldrsh.w	r1, [sp, #96]	; 0x60
 8004d00:	f8bd 0006 	ldrh.w	r0, [sp, #6]
 8004d04:	1808      	adds	r0, r1, r0
 8004d06:	f8ad 0006 	strh.w	r0, [sp, #6]
 8004d0a:	9806      	ldr	r0, [sp, #24]
 8004d0c:	1e40      	subs	r0, r0, #1
 8004d0e:	9006      	str	r0, [sp, #24]
 8004d10:	d194      	bne.n	8004c3c <pool_func_mp_array_f32+0x250>
 8004d12:	f8bd c002 	ldrh.w	ip, [sp, #2]
 8004d16:	f8bd 3060 	ldrh.w	r3, [sp, #96]	; 0x60
 8004d1a:	9a04      	ldr	r2, [sp, #16]
 8004d1c:	f8bd 8004 	ldrh.w	r8, [sp, #4]
 8004d20:	9908      	ldr	r1, [sp, #32]
 8004d22:	f8bd 4068 	ldrh.w	r4, [sp, #104]	; 0x68
 8004d26:	f8bd 700a 	ldrh.w	r7, [sp, #10]
 8004d2a:	190c      	adds	r4, r1, r4
 8004d2c:	9408      	str	r4, [sp, #32]
 8004d2e:	f8bd 4000 	ldrh.w	r4, [sp]
 8004d32:	f9bd 1064 	ldrsh.w	r1, [sp, #100]	; 0x64
 8004d36:	19cf      	adds	r7, r1, r7
 8004d38:	f9bd 1064 	ldrsh.w	r1, [sp, #100]	; 0x64
 8004d3c:	f8ad 700a 	strh.w	r7, [sp, #10]
 8004d40:	190c      	adds	r4, r1, r4
 8004d42:	f8ad 4000 	strh.w	r4, [sp]
 8004d46:	9c07      	ldr	r4, [sp, #28]
 8004d48:	1e64      	subs	r4, r4, #1
 8004d4a:	9407      	str	r4, [sp, #28]
 8004d4c:	f47f af58 	bne.w	8004c00 <pool_func_mp_array_f32+0x214>
 8004d50:	b00b      	add	sp, #44	; 0x2c
 8004d52:	e8bd 8ff0 	ldmia.w	sp!, {r4, r5, r6, r7, r8, r9, sl, fp, pc}
	...

08004d58 <.text_3>:
 8004d58:	cf000000 	.word	0xcf000000

08004d5c <pool_func_ap_array_f32>:
 8004d5c:	e92d 4ff0 	stmdb	sp!, {r4, r5, r6, r7, r8, r9, sl, fp, lr}
 8004d60:	468b      	mov	fp, r1
 8004d62:	b08c      	sub	sp, #48	; 0x30
 8004d64:	4699      	mov	r9, r3
 8004d66:	991c      	ldr	r1, [sp, #112]	; 0x70
 8004d68:	f9bd c068 	ldrsh.w	ip, [sp, #104]	; 0x68
 8004d6c:	9b18      	ldr	r3, [sp, #96]	; 0x60
 8004d6e:	4692      	mov	sl, r2
 8004d70:	1e4f      	subs	r7, r1, #1
 8004d72:	9a16      	ldr	r2, [sp, #88]	; 0x58
 8004d74:	9d1d      	ldr	r5, [sp, #116]	; 0x74
 8004d76:	f8dd 8064 	ldr.w	r8, [sp, #100]	; 0x64
 8004d7a:	6880      	ldr	r0, [r0, #8]
 8004d7c:	68ad      	ldr	r5, [r5, #8]
 8004d7e:	fb17 fc0c 	smulbb	ip, r7, ip
 8004d82:	ebac 0c03 	sub.w	ip, ip, r3
 8004d86:	f8bd 705c 	ldrh.w	r7, [sp, #92]	; 0x5c
 8004d8a:	4494      	add	ip, r2
 8004d8c:	f1ac 0401 	sub.w	r4, ip, #1
 8004d90:	431f      	orrs	r7, r3
 8004d92:	eba4 060a 	sub.w	r6, r4, sl
 8004d96:	f040 80dc 	bne.w	8004f52 <pool_func_ap_array_f32+0x1f6>
 8004d9a:	f9bd 706c 	ldrsh.w	r7, [sp, #108]	; 0x6c
 8004d9e:	1e7c      	subs	r4, r7, #1
 8004da0:	f9bd 705c 	ldrsh.w	r7, [sp, #92]	; 0x5c
 8004da4:	fb14 f408 	smulbb	r4, r4, r8
 8004da8:	1be4      	subs	r4, r4, r7
 8004daa:	f9bd 7054 	ldrsh.w	r7, [sp, #84]	; 0x54
 8004dae:	193c      	adds	r4, r7, r4
 8004db0:	1e64      	subs	r4, r4, #1
 8004db2:	eba4 040b 	sub.w	r4, r4, fp
 8004db6:	b224      	sxth	r4, r4
 8004db8:	2c00      	cmp	r4, #0
 8004dba:	bf44      	itt	mi
 8004dbc:	b234      	sxthmi	r4, r6
 8004dbe:	2c00      	cmpmi	r4, #0
 8004dc0:	f140 80c7 	bpl.w	8004f52 <pool_func_ap_array_f32+0x1f6>
 8004dc4:	2400      	movs	r4, #0
 8004dc6:	000b      	movs	r3, r1
 8004dc8:	9409      	str	r4, [sp, #36]	; 0x24
 8004dca:	f000 81af 	beq.w	800512c <pool_func_ap_array_f32+0x3d0>
 8004dce:	b212      	sxth	r2, r2
 8004dd0:	f8ad 2004 	strh.w	r2, [sp, #4]
 8004dd4:	9408      	str	r4, [sp, #32]
 8004dd6:	9407      	str	r4, [sp, #28]
 8004dd8:	f8cd 1018 	str.w	r1, [sp, #24]
 8004ddc:	f8bd 106c 	ldrh.w	r1, [sp, #108]	; 0x6c
 8004de0:	f9bd e004 	ldrsh.w	lr, [sp, #4]
 8004de4:	2900      	cmp	r1, #0
 8004de6:	f000 809a 	beq.w	8004f1e <pool_func_ap_array_f32+0x1c2>
 8004dea:	9907      	ldr	r1, [sp, #28]
 8004dec:	9a09      	ldr	r2, [sp, #36]	; 0x24
 8004dee:	f9bd 4054 	ldrsh.w	r4, [sp, #84]	; 0x54
 8004df2:	f8bd 306c 	ldrh.w	r3, [sp, #108]	; 0x6c
 8004df6:	9102      	str	r1, [sp, #8]
 8004df8:	2700      	movs	r7, #0
 8004dfa:	f8bd 1068 	ldrh.w	r1, [sp, #104]	; 0x68
 8004dfe:	434a      	muls	r2, r1
 8004e00:	b212      	sxth	r2, r2
 8004e02:	ae08      	add	r6, sp, #32
 8004e04:	920b      	str	r2, [sp, #44]	; 0x2c
 8004e06:	46ca      	mov	sl, r9
 8004e08:	5ff1      	ldrsh	r1, [r6, r7]
 8004e0a:	910a      	str	r1, [sp, #40]	; 0x28
 8004e0c:	f8ad 9002 	strh.w	r9, [sp, #2]
 8004e10:	f8ad 8064 	strh.w	r8, [sp, #100]	; 0x64
 8004e14:	9505      	str	r5, [sp, #20]
 8004e16:	f8ad 4000 	strh.w	r4, [sp]
 8004e1a:	9303      	str	r3, [sp, #12]
 8004e1c:	f8bd 1002 	ldrh.w	r1, [sp, #2]
 8004e20:	f9bd c000 	ldrsh.w	ip, [sp]
 8004e24:	2200      	movs	r2, #0
 8004e26:	2900      	cmp	r1, #0
 8004e28:	d063      	beq.n	8004ef2 <pool_func_ap_array_f32+0x196>
 8004e2a:	9d02      	ldr	r5, [sp, #8]
 8004e2c:	9905      	ldr	r1, [sp, #20]
 8004e2e:	f8cd e010 	str.w	lr, [sp, #16]
 8004e32:	fb05 f50a 	mul.w	r5, r5, sl
 8004e36:	eb01 0585 	add.w	r5, r1, r5, lsl #2
 8004e3a:	f8ad b006 	strh.w	fp, [sp, #6]
 8004e3e:	990a      	ldr	r1, [sp, #40]	; 0x28
 8004e40:	9b04      	ldr	r3, [sp, #16]
 8004e42:	4299      	cmp	r1, r3
 8004e44:	ed9f 0abb 	vldr	s0, [pc, #748]	; 8005134 <.text_5>
 8004e48:	eddf 0aba 	vldr	s1, [pc, #744]	; 8005134 <.text_5>
 8004e4c:	da43      	bge.n	8004ed6 <pool_func_ap_array_f32+0x17a>
 8004e4e:	9c0b      	ldr	r4, [sp, #44]	; 0x2c
 8004e50:	f8bd b006 	ldrh.w	fp, [sp, #6]
 8004e54:	eba3 0804 	sub.w	r8, r3, r4
 8004e58:	fb01 f10b 	mul.w	r1, r1, fp
 8004e5c:	4603      	mov	r3, r0
 8004e5e:	ee10 ea90 	vmov	lr, s1
 8004e62:	b23c      	sxth	r4, r7
 8004e64:	4564      	cmp	r4, ip
 8004e66:	46b9      	mov	r9, r7
 8004e68:	da2e      	bge.n	8004ec8 <pool_func_ap_array_f32+0x16c>
 8004e6a:	ebac 0004 	sub.w	r0, ip, r4
 8004e6e:	44e6      	add	lr, ip
 8004e70:	07c6      	lsls	r6, r0, #31
 8004e72:	ebae 0e04 	sub.w	lr, lr, r4
 8004e76:	d50a      	bpl.n	8004e8e <pool_func_ap_array_f32+0x132>
 8004e78:	190c      	adds	r4, r1, r4
 8004e7a:	fb04 240a 	mla	r4, r4, sl, r2
 8004e7e:	eb03 0484 	add.w	r4, r3, r4, lsl #2
 8004e82:	f109 0901 	add.w	r9, r9, #1
 8004e86:	edd4 0a00 	vldr	s1, [r4]
 8004e8a:	ee30 0a20 	vadd.f32	s0, s0, s1
 8004e8e:	0840      	lsrs	r0, r0, #1
 8004e90:	f000 801a 	beq.w	8004ec8 <pool_func_ap_array_f32+0x16c>
 8004e94:	fa01 f489 	sxtah	r4, r1, r9
 8004e98:	f109 0901 	add.w	r9, r9, #1
 8004e9c:	fb04 240a 	mla	r4, r4, sl, r2
 8004ea0:	fa01 f689 	sxtah	r6, r1, r9
 8004ea4:	eb03 0484 	add.w	r4, r3, r4, lsl #2
 8004ea8:	fb06 260a 	mla	r6, r6, sl, r2
 8004eac:	edd4 0a00 	vldr	s1, [r4]
 8004eb0:	eb03 0486 	add.w	r4, r3, r6, lsl #2
 8004eb4:	ee30 0a20 	vadd.f32	s0, s0, s1
 8004eb8:	ed94 1a00 	vldr	s2, [r4]
 8004ebc:	1e40      	subs	r0, r0, #1
 8004ebe:	ee30 0a01 	vadd.f32	s0, s0, s2
 8004ec2:	f109 0901 	add.w	r9, r9, #1
 8004ec6:	d1e5      	bne.n	8004e94 <pool_func_ap_array_f32+0x138>
 8004ec8:	f1b8 0801 	subs.w	r8, r8, #1
 8004ecc:	4459      	add	r1, fp
 8004ece:	d1c8      	bne.n	8004e62 <pool_func_ap_array_f32+0x106>
 8004ed0:	4618      	mov	r0, r3
 8004ed2:	ee00 ea90 	vmov	s1, lr
 8004ed6:	eef8 0ae0 	vcvt.f32.s32	s1, s1
 8004eda:	ee80 0a20 	vdiv.f32	s0, s0, s1
 8004ede:	ed85 0a00 	vstr	s0, [r5]
 8004ee2:	1c52      	adds	r2, r2, #1
 8004ee4:	1d2d      	adds	r5, r5, #4
 8004ee6:	4552      	cmp	r2, sl
 8004ee8:	dba9      	blt.n	8004e3e <pool_func_ap_array_f32+0xe2>
 8004eea:	f8dd e010 	ldr.w	lr, [sp, #16]
 8004eee:	f8bd b006 	ldrh.w	fp, [sp, #6]
 8004ef2:	9902      	ldr	r1, [sp, #8]
 8004ef4:	f9bd 2064 	ldrsh.w	r2, [sp, #100]	; 0x64
 8004ef8:	1c49      	adds	r1, r1, #1
 8004efa:	9102      	str	r1, [sp, #8]
 8004efc:	f8bd 1000 	ldrh.w	r1, [sp]
 8004f00:	1851      	adds	r1, r2, r1
 8004f02:	f8ad 1000 	strh.w	r1, [sp]
 8004f06:	f9bd 1064 	ldrsh.w	r1, [sp, #100]	; 0x64
 8004f0a:	9a03      	ldr	r2, [sp, #12]
 8004f0c:	19cf      	adds	r7, r1, r7
 8004f0e:	1e52      	subs	r2, r2, #1
 8004f10:	9203      	str	r2, [sp, #12]
 8004f12:	d183      	bne.n	8004e1c <pool_func_ap_array_f32+0xc0>
 8004f14:	f8bd 9002 	ldrh.w	r9, [sp, #2]
 8004f18:	f8bd 8064 	ldrh.w	r8, [sp, #100]	; 0x64
 8004f1c:	9d05      	ldr	r5, [sp, #20]
 8004f1e:	9909      	ldr	r1, [sp, #36]	; 0x24
 8004f20:	f8bd 206c 	ldrh.w	r2, [sp, #108]	; 0x6c
 8004f24:	f8bd 3004 	ldrh.w	r3, [sp, #4]
 8004f28:	1c49      	adds	r1, r1, #1
 8004f2a:	9109      	str	r1, [sp, #36]	; 0x24
 8004f2c:	9907      	ldr	r1, [sp, #28]
 8004f2e:	188a      	adds	r2, r1, r2
 8004f30:	9207      	str	r2, [sp, #28]
 8004f32:	9908      	ldr	r1, [sp, #32]
 8004f34:	f8bd 2068 	ldrh.w	r2, [sp, #104]	; 0x68
 8004f38:	188a      	adds	r2, r1, r2
 8004f3a:	9208      	str	r2, [sp, #32]
 8004f3c:	f9bd 1068 	ldrsh.w	r1, [sp, #104]	; 0x68
 8004f40:	9a06      	ldr	r2, [sp, #24]
 8004f42:	18cb      	adds	r3, r1, r3
 8004f44:	1e52      	subs	r2, r2, #1
 8004f46:	f8ad 3004 	strh.w	r3, [sp, #4]
 8004f4a:	9206      	str	r2, [sp, #24]
 8004f4c:	f000 80ee 	beq.w	800512c <pool_func_ap_array_f32+0x3d0>
 8004f50:	e744      	b.n	8004ddc <pool_func_ap_array_f32+0x80>
 8004f52:	000f      	movs	r7, r1
 8004f54:	f000 80ea 	beq.w	800512c <pool_func_ap_array_f32+0x3d0>
 8004f58:	425b      	negs	r3, r3
 8004f5a:	18d2      	adds	r2, r2, r3
 8004f5c:	2700      	movs	r7, #0
 8004f5e:	f8ad 3000 	strh.w	r3, [sp]
 8004f62:	f8ad 200a 	strh.w	r2, [sp, #10]
 8004f66:	9709      	str	r7, [sp, #36]	; 0x24
 8004f68:	f8cd 1020 	str.w	r1, [sp, #32]
 8004f6c:	f8bd 106c 	ldrh.w	r1, [sp, #108]	; 0x6c
 8004f70:	f9bd 300a 	ldrsh.w	r3, [sp, #10]
 8004f74:	2900      	cmp	r1, #0
 8004f76:	f000 80c1 	beq.w	80050fc <pool_func_ap_array_f32+0x3a0>
 8004f7a:	f9bd 605c 	ldrsh.w	r6, [sp, #92]	; 0x5c
 8004f7e:	f9bd 4054 	ldrsh.w	r4, [sp, #84]	; 0x54
 8004f82:	9a09      	ldr	r2, [sp, #36]	; 0x24
 8004f84:	f8bd 106c 	ldrh.w	r1, [sp, #108]	; 0x6c
 8004f88:	9204      	str	r2, [sp, #16]
 8004f8a:	4276      	negs	r6, r6
 8004f8c:	19a4      	adds	r4, r4, r6
 8004f8e:	f8ad 9002 	strh.w	r9, [sp, #2]
 8004f92:	f8ad 8064 	strh.w	r8, [sp, #100]	; 0x64
 8004f96:	9505      	str	r5, [sp, #20]
 8004f98:	f8ad 6004 	strh.w	r6, [sp, #4]
 8004f9c:	f8ad 4008 	strh.w	r4, [sp, #8]
 8004fa0:	f8cd 101c 	str.w	r1, [sp, #28]
 8004fa4:	f8ad b006 	strh.w	fp, [sp, #6]
 8004fa8:	f8bd 2002 	ldrh.w	r2, [sp, #2]
 8004fac:	f9bd 8008 	ldrsh.w	r8, [sp, #8]
 8004fb0:	2100      	movs	r1, #0
 8004fb2:	2a00      	cmp	r2, #0
 8004fb4:	f000 8085 	beq.w	80050c2 <pool_func_ap_array_f32+0x366>
 8004fb8:	f8bd 5002 	ldrh.w	r5, [sp, #2]
 8004fbc:	9c04      	ldr	r4, [sp, #16]
 8004fbe:	9a05      	ldr	r2, [sp, #20]
 8004fc0:	f8bd 9006 	ldrh.w	r9, [sp, #6]
 8004fc4:	f8ad a00c 	strh.w	sl, [sp, #12]
 8004fc8:	4365      	muls	r5, r4
 8004fca:	eb02 0585 	add.w	r5, r2, r5, lsl #2
 8004fce:	9506      	str	r5, [sp, #24]
 8004fd0:	f9bd 5000 	ldrsh.w	r5, [sp]
 8004fd4:	f8bd a002 	ldrh.w	sl, [sp, #2]
 8004fd8:	429d      	cmp	r5, r3
 8004fda:	ed9f 0a56 	vldr	s0, [pc, #344]	; 8005134 <.text_5>
 8004fde:	eddf 0a55 	vldr	s1, [pc, #340]	; 8005134 <.text_5>
 8004fe2:	da5d      	bge.n	80050a0 <pool_func_ap_array_f32+0x344>
 8004fe4:	930a      	str	r3, [sp, #40]	; 0x28
 8004fe6:	fb09 fe05 	mul.w	lr, r9, r5
 8004fea:	462b      	mov	r3, r5
 8004fec:	f9bd 5004 	ldrsh.w	r5, [sp, #4]
 8004ff0:	f8bd b00c 	ldrh.w	fp, [sp, #12]
 8004ff4:	ee10 2a90 	vmov	r2, s1
 8004ff8:	4545      	cmp	r5, r8
 8004ffa:	462f      	mov	r7, r5
 8004ffc:	da44      	bge.n	8005088 <pool_func_ap_array_f32+0x32c>
 8004ffe:	eba8 0405 	sub.w	r4, r8, r5
 8005002:	07e6      	lsls	r6, r4, #31
 8005004:	d513      	bpl.n	800502e <pool_func_ap_array_f32+0x2d2>
 8005006:	2b00      	cmp	r3, #0
 8005008:	bf58      	it	pl
 800500a:	2f00      	cmppl	r7, #0
 800500c:	d40e      	bmi.n	800502c <pool_func_ap_array_f32+0x2d0>
 800500e:	455b      	cmp	r3, fp
 8005010:	bfb8      	it	lt
 8005012:	454f      	cmplt	r7, r9
 8005014:	da0a      	bge.n	800502c <pool_func_ap_array_f32+0x2d0>
 8005016:	eb0e 0607 	add.w	r6, lr, r7
 800501a:	fb06 160a 	mla	r6, r6, sl, r1
 800501e:	eb00 0686 	add.w	r6, r0, r6, lsl #2
 8005022:	1c52      	adds	r2, r2, #1
 8005024:	edd6 0a00 	vldr	s1, [r6]
 8005028:	ee30 0a20 	vadd.f32	s0, s0, s1
 800502c:	1c7f      	adds	r7, r7, #1
 800502e:	0864      	lsrs	r4, r4, #1
 8005030:	d02a      	beq.n	8005088 <pool_func_ap_array_f32+0x32c>
 8005032:	2b00      	cmp	r3, #0
 8005034:	d405      	bmi.n	8005042 <pool_func_ap_array_f32+0x2e6>
 8005036:	2f00      	cmp	r7, #0
 8005038:	bf48      	it	mi
 800503a:	1c7e      	addmi	r6, r7, #1
 800503c:	d410      	bmi.n	8005060 <pool_func_ap_array_f32+0x304>
 800503e:	455b      	cmp	r3, fp
 8005040:	db01      	blt.n	8005046 <pool_func_ap_array_f32+0x2ea>
 8005042:	1c7e      	adds	r6, r7, #1
 8005044:	e01d      	b.n	8005082 <pool_func_ap_array_f32+0x326>
 8005046:	1c7e      	adds	r6, r7, #1
 8005048:	454f      	cmp	r7, r9
 800504a:	da09      	bge.n	8005060 <pool_func_ap_array_f32+0x304>
 800504c:	4477      	add	r7, lr
 800504e:	fb07 170a 	mla	r7, r7, sl, r1
 8005052:	eb00 0787 	add.w	r7, r0, r7, lsl #2
 8005056:	1c52      	adds	r2, r2, #1
 8005058:	edd7 0a00 	vldr	s1, [r7]
 800505c:	ee30 0a20 	vadd.f32	s0, s0, s1
 8005060:	2e00      	cmp	r6, #0
 8005062:	d40e      	bmi.n	8005082 <pool_func_ap_array_f32+0x326>
 8005064:	455b      	cmp	r3, fp
 8005066:	bfb8      	it	lt
 8005068:	454e      	cmplt	r6, r9
 800506a:	da0a      	bge.n	8005082 <pool_func_ap_array_f32+0x326>
 800506c:	eb0e 0706 	add.w	r7, lr, r6
 8005070:	fb07 170a 	mla	r7, r7, sl, r1
 8005074:	eb00 0787 	add.w	r7, r0, r7, lsl #2
 8005078:	1c52      	adds	r2, r2, #1
 800507a:	edd7 0a00 	vldr	s1, [r7]
 800507e:	ee30 0a20 	vadd.f32	s0, s0, s1
 8005082:	1c77      	adds	r7, r6, #1
 8005084:	1e64      	subs	r4, r4, #1
 8005086:	d1d4      	bne.n	8005032 <pool_func_ap_array_f32+0x2d6>
 8005088:	9f0a      	ldr	r7, [sp, #40]	; 0x28
 800508a:	1c5b      	adds	r3, r3, #1
 800508c:	42bb      	cmp	r3, r7
 800508e:	44ce      	add	lr, r9
 8005090:	dbb2      	blt.n	8004ff8 <pool_func_ap_array_f32+0x29c>
 8005092:	463b      	mov	r3, r7
 8005094:	ee00 2a90 	vmov	s1, r2
 8005098:	f8ad 5004 	strh.w	r5, [sp, #4]
 800509c:	f8ad b00c 	strh.w	fp, [sp, #12]
 80050a0:	eef8 0ae0 	vcvt.f32.s32	s1, s1
 80050a4:	9d06      	ldr	r5, [sp, #24]
 80050a6:	ee80 0a20 	vdiv.f32	s0, s0, s1
 80050aa:	ed85 0a00 	vstr	s0, [r5]
 80050ae:	1c49      	adds	r1, r1, #1
 80050b0:	9a06      	ldr	r2, [sp, #24]
 80050b2:	1d15      	adds	r5, r2, #4
 80050b4:	4551      	cmp	r1, sl
 80050b6:	9506      	str	r5, [sp, #24]
 80050b8:	db8a      	blt.n	8004fd0 <pool_func_ap_array_f32+0x274>
 80050ba:	f8ad 9006 	strh.w	r9, [sp, #6]
 80050be:	f8bd a00c 	ldrh.w	sl, [sp, #12]
 80050c2:	9904      	ldr	r1, [sp, #16]
 80050c4:	f9bd 2064 	ldrsh.w	r2, [sp, #100]	; 0x64
 80050c8:	1c49      	adds	r1, r1, #1
 80050ca:	9104      	str	r1, [sp, #16]
 80050cc:	f8bd 1008 	ldrh.w	r1, [sp, #8]
 80050d0:	1851      	adds	r1, r2, r1
 80050d2:	f8ad 1008 	strh.w	r1, [sp, #8]
 80050d6:	f9bd 2064 	ldrsh.w	r2, [sp, #100]	; 0x64
 80050da:	f8bd 1004 	ldrh.w	r1, [sp, #4]
 80050de:	1851      	adds	r1, r2, r1
 80050e0:	f8ad 1004 	strh.w	r1, [sp, #4]
 80050e4:	9907      	ldr	r1, [sp, #28]
 80050e6:	1e49      	subs	r1, r1, #1
 80050e8:	9107      	str	r1, [sp, #28]
 80050ea:	f47f af5d 	bne.w	8004fa8 <pool_func_ap_array_f32+0x24c>
 80050ee:	f8bd 9002 	ldrh.w	r9, [sp, #2]
 80050f2:	f8bd 8064 	ldrh.w	r8, [sp, #100]	; 0x64
 80050f6:	9d05      	ldr	r5, [sp, #20]
 80050f8:	f8bd b006 	ldrh.w	fp, [sp, #6]
 80050fc:	9909      	ldr	r1, [sp, #36]	; 0x24
 80050fe:	f8bd 206c 	ldrh.w	r2, [sp, #108]	; 0x6c
 8005102:	f8bd 300a 	ldrh.w	r3, [sp, #10]
 8005106:	188a      	adds	r2, r1, r2
 8005108:	9209      	str	r2, [sp, #36]	; 0x24
 800510a:	f8bd 2000 	ldrh.w	r2, [sp]
 800510e:	f9bd 1068 	ldrsh.w	r1, [sp, #104]	; 0x68
 8005112:	18cb      	adds	r3, r1, r3
 8005114:	f9bd 1068 	ldrsh.w	r1, [sp, #104]	; 0x68
 8005118:	f8ad 300a 	strh.w	r3, [sp, #10]
 800511c:	188a      	adds	r2, r1, r2
 800511e:	f8ad 2000 	strh.w	r2, [sp]
 8005122:	9a08      	ldr	r2, [sp, #32]
 8005124:	1e52      	subs	r2, r2, #1
 8005126:	9208      	str	r2, [sp, #32]
 8005128:	f47f af20 	bne.w	8004f6c <pool_func_ap_array_f32+0x210>
 800512c:	b00c      	add	sp, #48	; 0x30
 800512e:	e8bd 8ff0 	ldmia.w	sp!, {r4, r5, r6, r7, r8, r9, sl, fp, pc}
	...

08005134 <.text_5>:
 8005134:	00000000 	.word	0x00000000

08005138 <pool_func_mp_kernel_array_f32>:
 8005138:	b470      	push	{r4, r5, r6}
 800513a:	eb01 0482 	add.w	r4, r1, r2, lsl #2
 800513e:	42a1      	cmp	r1, r4
 8005140:	d257      	bcs.n	80051f2 <pool_func_mp_kernel_array_f32+0xba>
 8005142:	2b00      	cmp	r3, #0
 8005144:	d051      	beq.n	80051ea <pool_func_mp_kernel_array_f32+0xb2>
 8005146:	f013 0203 	ands.w	r2, r3, #3
 800514a:	460d      	mov	r5, r1
 800514c:	4606      	mov	r6, r0
 800514e:	d011      	beq.n	8005174 <pool_func_mp_kernel_array_f32+0x3c>
 8005150:	ed96 0a00 	vldr	s0, [r6]
 8005154:	edd5 0a00 	vldr	s1, [r5]
 8005158:	eef4 0a40 	vcmp.f32	s1, s0
 800515c:	eef1 fa10 	vmrs	APSR_nzcv, fpscr
 8005160:	bf58      	it	pl
 8005162:	eeb0 0a60 	vmovpl.f32	s0, s1
 8005166:	ed86 0a00 	vstr	s0, [r6]
 800516a:	1e52      	subs	r2, r2, #1
 800516c:	1d36      	adds	r6, r6, #4
 800516e:	1d2d      	adds	r5, r5, #4
 8005170:	2a00      	cmp	r2, #0
 8005172:	d1ed      	bne.n	8005150 <pool_func_mp_kernel_array_f32+0x18>
 8005174:	089a      	lsrs	r2, r3, #2
 8005176:	d038      	beq.n	80051ea <pool_func_mp_kernel_array_f32+0xb2>
 8005178:	edd5 0a00 	vldr	s1, [r5]
 800517c:	edd6 1a00 	vldr	s3, [r6]
 8005180:	eef4 0a61 	vcmp.f32	s1, s3
 8005184:	eef1 fa10 	vmrs	APSR_nzcv, fpscr
 8005188:	bf48      	it	mi
 800518a:	eef0 0a61 	vmovmi.f32	s1, s3
 800518e:	edc6 0a00 	vstr	s1, [r6]
 8005192:	edd5 0a01 	vldr	s1, [r5, #4]
 8005196:	edd6 1a01 	vldr	s3, [r6, #4]
 800519a:	ed96 0a02 	vldr	s0, [r6, #8]
 800519e:	eef4 0a61 	vcmp.f32	s1, s3
 80051a2:	eef1 fa10 	vmrs	APSR_nzcv, fpscr
 80051a6:	bf48      	it	mi
 80051a8:	eef0 0a61 	vmovmi.f32	s1, s3
 80051ac:	edc6 0a01 	vstr	s1, [r6, #4]
 80051b0:	ed95 1a02 	vldr	s2, [r5, #8]
 80051b4:	edd6 1a03 	vldr	s3, [r6, #12]
 80051b8:	eeb4 1a40 	vcmp.f32	s2, s0
 80051bc:	eef1 fa10 	vmrs	APSR_nzcv, fpscr
 80051c0:	bf48      	it	mi
 80051c2:	eeb0 1a40 	vmovmi.f32	s2, s0
 80051c6:	ed86 1a02 	vstr	s2, [r6, #8]
 80051ca:	edd5 0a03 	vldr	s1, [r5, #12]
 80051ce:	eef4 0a61 	vcmp.f32	s1, s3
 80051d2:	eef1 fa10 	vmrs	APSR_nzcv, fpscr
 80051d6:	bf58      	it	pl
 80051d8:	eef0 1a60 	vmovpl.f32	s3, s1
 80051dc:	edc6 1a03 	vstr	s3, [r6, #12]
 80051e0:	1e52      	subs	r2, r2, #1
 80051e2:	3610      	adds	r6, #16
 80051e4:	3510      	adds	r5, #16
 80051e6:	2a00      	cmp	r2, #0
 80051e8:	d1c6      	bne.n	8005178 <pool_func_mp_kernel_array_f32+0x40>
 80051ea:	eb01 0183 	add.w	r1, r1, r3, lsl #2
 80051ee:	42a1      	cmp	r1, r4
 80051f0:	d3a7      	bcc.n	8005142 <pool_func_mp_kernel_array_f32+0xa>
 80051f2:	bc70      	pop	{r4, r5, r6}
 80051f4:	4770      	bx	lr
	...

080051f8 <pool_func_ap_kernel_array_f32>:
 80051f8:	b4f0      	push	{r4, r5, r6, r7}
 80051fa:	eb01 0582 	add.w	r5, r1, r2, lsl #2
 80051fe:	9c05      	ldr	r4, [sp, #20]
 8005200:	42a9      	cmp	r1, r5
 8005202:	d251      	bcs.n	80052a8 <pool_func_ap_kernel_array_f32+0xb0>
 8005204:	2b00      	cmp	r3, #0
 8005206:	d04a      	beq.n	800529e <pool_func_ap_kernel_array_f32+0xa6>
 8005208:	f013 0203 	ands.w	r2, r3, #3
 800520c:	460e      	mov	r6, r1
 800520e:	4607      	mov	r7, r0
 8005210:	f000 800f 	beq.w	8005232 <pool_func_ap_kernel_array_f32+0x3a>
 8005214:	ed96 0a00 	vldr	s0, [r6]
 8005218:	2c01      	cmp	r4, #1
 800521a:	bf1c      	itt	ne
 800521c:	edd7 0a00 	vldrne	s1, [r7]
 8005220:	ee30 0a80 	vaddne.f32	s0, s1, s0
 8005224:	ed87 0a00 	vstr	s0, [r7]
 8005228:	1e52      	subs	r2, r2, #1
 800522a:	1d3f      	adds	r7, r7, #4
 800522c:	1d36      	adds	r6, r6, #4
 800522e:	2a00      	cmp	r2, #0
 8005230:	d1f0      	bne.n	8005214 <pool_func_ap_kernel_array_f32+0x1c>
 8005232:	089a      	lsrs	r2, r3, #2
 8005234:	d033      	beq.n	800529e <pool_func_ap_kernel_array_f32+0xa6>
 8005236:	2c01      	cmp	r4, #1
 8005238:	edd6 1a00 	vldr	s3, [r6]
 800523c:	d10c      	bne.n	8005258 <pool_func_ap_kernel_array_f32+0x60>
 800523e:	edc7 1a00 	vstr	s3, [r7]
 8005242:	ed96 0a01 	vldr	s0, [r6, #4]
 8005246:	ed87 0a01 	vstr	s0, [r7, #4]
 800524a:	edd6 1a02 	vldr	s3, [r6, #8]
 800524e:	edc7 1a02 	vstr	s3, [r7, #8]
 8005252:	edd6 1a03 	vldr	s3, [r6, #12]
 8005256:	e01b      	b.n	8005290 <pool_func_ap_kernel_array_f32+0x98>
 8005258:	edd7 0a00 	vldr	s1, [r7]
 800525c:	ee30 0aa1 	vadd.f32	s0, s1, s3
 8005260:	ed87 0a00 	vstr	s0, [r7]
 8005264:	ed97 1a01 	vldr	s2, [r7, #4]
 8005268:	ed96 0a01 	vldr	s0, [r6, #4]
 800526c:	edd7 1a02 	vldr	s3, [r7, #8]
 8005270:	ee31 0a00 	vadd.f32	s0, s2, s0
 8005274:	ed87 0a01 	vstr	s0, [r7, #4]
 8005278:	edd6 0a02 	vldr	s1, [r6, #8]
 800527c:	ee31 0aa0 	vadd.f32	s0, s3, s1
 8005280:	ed87 0a02 	vstr	s0, [r7, #8]
 8005284:	ed97 0a03 	vldr	s0, [r7, #12]
 8005288:	ed96 1a03 	vldr	s2, [r6, #12]
 800528c:	ee70 1a01 	vadd.f32	s3, s0, s2
 8005290:	edc7 1a03 	vstr	s3, [r7, #12]
 8005294:	1e52      	subs	r2, r2, #1
 8005296:	3710      	adds	r7, #16
 8005298:	3610      	adds	r6, #16
 800529a:	2a00      	cmp	r2, #0
 800529c:	d1cb      	bne.n	8005236 <pool_func_ap_kernel_array_f32+0x3e>
 800529e:	2400      	movs	r4, #0
 80052a0:	eb01 0183 	add.w	r1, r1, r3, lsl #2
 80052a4:	42a9      	cmp	r1, r5
 80052a6:	d3ad      	bcc.n	8005204 <pool_func_ap_kernel_array_f32+0xc>
 80052a8:	9904      	ldr	r1, [sp, #16]
 80052aa:	b399      	cbz	r1, 8005314 <pool_func_ap_kernel_array_f32+0x11c>
 80052ac:	ee00 1a10 	vmov	s0, r1
 80052b0:	eeb8 0a40 	vcvt.f32.u32	s0, s0
 80052b4:	eef7 0a00 	vmov.f32	s1, #112	; 0x3f800000  1.0
 80052b8:	ee80 0a80 	vdiv.f32	s0, s1, s0
 80052bc:	b353      	cbz	r3, 8005314 <pool_func_ap_kernel_array_f32+0x11c>
 80052be:	f013 0103 	ands.w	r1, r3, #3
 80052c2:	d009      	beq.n	80052d8 <pool_func_ap_kernel_array_f32+0xe0>
 80052c4:	edd0 0a00 	vldr	s1, [r0]
 80052c8:	ee60 0a80 	vmul.f32	s1, s1, s0
 80052cc:	edc0 0a00 	vstr	s1, [r0]
 80052d0:	1e49      	subs	r1, r1, #1
 80052d2:	f100 0004 	add.w	r0, r0, #4
 80052d6:	d1f5      	bne.n	80052c4 <pool_func_ap_kernel_array_f32+0xcc>
 80052d8:	089b      	lsrs	r3, r3, #2
 80052da:	d01b      	beq.n	8005314 <pool_func_ap_kernel_array_f32+0x11c>
 80052dc:	edd0 0a00 	vldr	s1, [r0]
 80052e0:	ee60 0a80 	vmul.f32	s1, s1, s0
 80052e4:	edc0 0a00 	vstr	s1, [r0]
 80052e8:	1e5b      	subs	r3, r3, #1
 80052ea:	ed90 1a01 	vldr	s2, [r0, #4]
 80052ee:	edd0 0a02 	vldr	s1, [r0, #8]
 80052f2:	ee21 1a00 	vmul.f32	s2, s2, s0
 80052f6:	ed80 1a01 	vstr	s2, [r0, #4]
 80052fa:	ee60 0a80 	vmul.f32	s1, s1, s0
 80052fe:	ed90 1a03 	vldr	s2, [r0, #12]
 8005302:	edc0 0a02 	vstr	s1, [r0, #8]
 8005306:	ee21 1a00 	vmul.f32	s2, s2, s0
 800530a:	ed80 1a03 	vstr	s2, [r0, #12]
 800530e:	f100 0010 	add.w	r0, r0, #16
 8005312:	d1e3      	bne.n	80052dc <pool_func_ap_kernel_array_f32+0xe4>
 8005314:	bcf0      	pop	{r4, r5, r6, r7}
 8005316:	4770      	bx	lr

08005318 <forward_mp>:
 8005318:	e92d 4ff0 	stmdb	sp!, {r4, r5, r6, r7, r8, r9, sl, fp, lr}
 800531c:	4604      	mov	r4, r0
 800531e:	b08e      	sub	sp, #56	; 0x38
 8005320:	6962      	ldr	r2, [r4, #20]
 8005322:	8811      	ldrh	r1, [r2, #0]
 8005324:	2900      	cmp	r1, #0
 8005326:	bf1a      	itte	ne
 8005328:	6850      	ldrne	r0, [r2, #4]
 800532a:	1d00      	addne	r0, r0, #4
 800532c:	2004      	moveq	r0, #4
 800532e:	6800      	ldr	r0, [r0, #0]
 8005330:	2800      	cmp	r0, #0
 8005332:	bf14      	ite	ne
 8005334:	6805      	ldrne	r5, [r0, #0]
 8005336:	2500      	moveq	r5, #0
 8005338:	2901      	cmp	r1, #1
 800533a:	bfc6      	itte	gt
 800533c:	6850      	ldrgt	r0, [r2, #4]
 800533e:	3010      	addgt	r0, #16
 8005340:	2004      	movle	r0, #4
 8005342:	6800      	ldr	r0, [r0, #0]
 8005344:	68ea      	ldr	r2, [r5, #12]
 8005346:	2800      	cmp	r0, #0
 8005348:	bf14      	ite	ne
 800534a:	6807      	ldrne	r7, [r0, #0]
 800534c:	2700      	moveq	r7, #0
 800534e:	68f9      	ldr	r1, [r7, #12]
 8005350:	68d0      	ldr	r0, [r2, #12]
 8005352:	68cb      	ldr	r3, [r1, #12]
 8005354:	9009      	str	r0, [sp, #36]	; 0x24
 8005356:	6889      	ldr	r1, [r1, #8]
 8005358:	9108      	str	r1, [sp, #32]
 800535a:	f8d2 8008 	ldr.w	r8, [r2, #8]
 800535e:	6851      	ldr	r1, [r2, #4]
 8005360:	69a2      	ldr	r2, [r4, #24]
 8005362:	69e0      	ldr	r0, [r4, #28]
 8005364:	9007      	str	r0, [sp, #28]
 8005366:	6a66      	ldr	r6, [r4, #36]	; 0x24
 8005368:	6a20      	ldr	r0, [r4, #32]
 800536a:	960d      	str	r6, [sp, #52]	; 0x34
 800536c:	f8d4 c02c 	ldr.w	ip, [r4, #44]	; 0x2c
 8005370:	69ac      	ldr	r4, [r5, #24]
 8005372:	69bd      	ldr	r5, [r7, #24]
 8005374:	f8dc 7000 	ldr.w	r7, [ip]
 8005378:	f8dc 6004 	ldr.w	r6, [ip, #4]
 800537c:	68a4      	ldr	r4, [r4, #8]
 800537e:	f8d5 e008 	ldr.w	lr, [r5, #8]
 8005382:	427f      	negs	r7, r7
 8005384:	2b00      	cmp	r3, #0
 8005386:	9700      	str	r7, [sp, #0]
 8005388:	f000 80d9 	beq.w	800553e <forward_mp+0x226>
 800538c:	9301      	str	r3, [sp, #4]
 800538e:	4276      	negs	r6, r6
 8005390:	960c      	str	r6, [sp, #48]	; 0x30
 8005392:	fb01 f508 	mul.w	r5, r1, r8
 8005396:	950b      	str	r5, [sp, #44]	; 0x2c
 8005398:	9d00      	ldr	r5, [sp, #0]
 800539a:	9b00      	ldr	r3, [sp, #0]
 800539c:	9f00      	ldr	r7, [sp, #0]
 800539e:	426d      	negs	r5, r5
 80053a0:	9d09      	ldr	r5, [sp, #36]	; 0x24
 80053a2:	bfcc      	ite	gt
 80053a4:	2600      	movgt	r6, #0
 80053a6:	9e00      	ldrle	r6, [sp, #0]
 80053a8:	1aeb      	subs	r3, r5, r3
 80053aa:	9d07      	ldr	r5, [sp, #28]
 80053ac:	42ab      	cmp	r3, r5
 80053ae:	bf88      	it	hi
 80053b0:	462b      	movhi	r3, r5
 80053b2:	19df      	adds	r7, r3, r7
 80053b4:	9b08      	ldr	r3, [sp, #32]
 80053b6:	9d0c      	ldr	r5, [sp, #48]	; 0x30
 80053b8:	2b00      	cmp	r3, #0
 80053ba:	f000 80b7 	beq.w	800552c <forward_mp+0x214>
 80053be:	fb08 fa06 	mul.w	sl, r8, r6
 80053c2:	f8cd a028 	str.w	sl, [sp, #40]	; 0x28
 80053c6:	f8cd 800c 	str.w	r8, [sp, #12]
 80053ca:	9202      	str	r2, [sp, #8]
 80053cc:	9006      	str	r0, [sp, #24]
 80053ce:	9605      	str	r6, [sp, #20]
 80053d0:	9704      	str	r7, [sp, #16]
 80053d2:	4268      	negs	r0, r5
 80053d4:	9f03      	ldr	r7, [sp, #12]
 80053d6:	9a02      	ldr	r2, [sp, #8]
 80053d8:	f8dd 802c 	ldr.w	r8, [sp, #44]	; 0x2c
 80053dc:	bfcc      	ite	gt
 80053de:	2000      	movgt	r0, #0
 80053e0:	4628      	movle	r0, r5
 80053e2:	1b7f      	subs	r7, r7, r5
 80053e4:	4297      	cmp	r7, r2
 80053e6:	bf88      	it	hi
 80053e8:	4617      	movhi	r7, r2
 80053ea:	9a0a      	ldr	r2, [sp, #40]	; 0x28
 80053ec:	197f      	adds	r7, r7, r5
 80053ee:	1a3f      	subs	r7, r7, r0
 80053f0:	1880      	adds	r0, r0, r2
 80053f2:	4348      	muls	r0, r1
 80053f4:	434f      	muls	r7, r1
 80053f6:	eb04 0c80 	add.w	ip, r4, r0, lsl #2
 80053fa:	b311      	cbz	r1, 8005442 <forward_mp+0x12a>
 80053fc:	f011 0003 	ands.w	r0, r1, #3
 8005400:	4672      	mov	r2, lr
 8005402:	4666      	mov	r6, ip
 8005404:	f000 8006 	beq.w	8005414 <forward_mp+0xfc>
 8005408:	f856 9b04 	ldr.w	r9, [r6], #4
 800540c:	f842 9b04 	str.w	r9, [r2], #4
 8005410:	1e40      	subs	r0, r0, #1
 8005412:	d1f9      	bne.n	8005408 <forward_mp+0xf0>
 8005414:	0888      	lsrs	r0, r1, #2
 8005416:	d014      	beq.n	8005442 <forward_mp+0x12a>
 8005418:	ed96 0a00 	vldr	s0, [r6]
 800541c:	ed82 0a00 	vstr	s0, [r2]
 8005420:	1e40      	subs	r0, r0, #1
 8005422:	edd6 0a01 	vldr	s1, [r6, #4]
 8005426:	edc2 0a01 	vstr	s1, [r2, #4]
 800542a:	ed96 0a02 	vldr	s0, [r6, #8]
 800542e:	ed82 0a02 	vstr	s0, [r2, #8]
 8005432:	edd6 0a03 	vldr	s1, [r6, #12]
 8005436:	edc2 0a03 	vstr	s1, [r2, #12]
 800543a:	3210      	adds	r2, #16
 800543c:	3610      	adds	r6, #16
 800543e:	2800      	cmp	r0, #0
 8005440:	d1ea      	bne.n	8005418 <forward_mp+0x100>
 8005442:	9805      	ldr	r0, [sp, #20]
 8005444:	9a04      	ldr	r2, [sp, #16]
 8005446:	4290      	cmp	r0, r2
 8005448:	da66      	bge.n	8005518 <forward_mp+0x200>
 800544a:	4610      	mov	r0, r2
 800544c:	9a05      	ldr	r2, [sp, #20]
 800544e:	1a82      	subs	r2, r0, r2
 8005450:	46e2      	mov	sl, ip
 8005452:	eb0a 0b87 	add.w	fp, sl, r7, lsl #2
 8005456:	45da      	cmp	sl, fp
 8005458:	d25a      	bcs.n	8005510 <forward_mp+0x1f8>
 800545a:	2900      	cmp	r1, #0
 800545c:	d054      	beq.n	8005508 <forward_mp+0x1f0>
 800545e:	f011 0003 	ands.w	r0, r1, #3
 8005462:	4656      	mov	r6, sl
 8005464:	46f1      	mov	r9, lr
 8005466:	d012      	beq.n	800548e <forward_mp+0x176>
 8005468:	ed99 0a00 	vldr	s0, [r9]
 800546c:	edd6 0a00 	vldr	s1, [r6]
 8005470:	eef4 0a40 	vcmp.f32	s1, s0
 8005474:	eef1 fa10 	vmrs	APSR_nzcv, fpscr
 8005478:	bf58      	it	pl
 800547a:	eeb0 0a60 	vmovpl.f32	s0, s1
 800547e:	1e40      	subs	r0, r0, #1
 8005480:	1d36      	adds	r6, r6, #4
 8005482:	ed89 0a00 	vstr	s0, [r9]
 8005486:	2800      	cmp	r0, #0
 8005488:	f109 0904 	add.w	r9, r9, #4
 800548c:	d1ec      	bne.n	8005468 <forward_mp+0x150>
 800548e:	0888      	lsrs	r0, r1, #2
 8005490:	f000 803a 	beq.w	8005508 <forward_mp+0x1f0>
 8005494:	edd6 0a00 	vldr	s1, [r6]
 8005498:	edd9 1a00 	vldr	s3, [r9]
 800549c:	eef4 0a61 	vcmp.f32	s1, s3
 80054a0:	eef1 fa10 	vmrs	APSR_nzcv, fpscr
 80054a4:	bf48      	it	mi
 80054a6:	eef0 0a61 	vmovmi.f32	s1, s3
 80054aa:	edc9 0a00 	vstr	s1, [r9]
 80054ae:	edd6 0a01 	vldr	s1, [r6, #4]
 80054b2:	edd9 1a01 	vldr	s3, [r9, #4]
 80054b6:	ed99 0a02 	vldr	s0, [r9, #8]
 80054ba:	eef4 0a61 	vcmp.f32	s1, s3
 80054be:	eef1 fa10 	vmrs	APSR_nzcv, fpscr
 80054c2:	bf48      	it	mi
 80054c4:	eef0 0a61 	vmovmi.f32	s1, s3
 80054c8:	edc9 0a01 	vstr	s1, [r9, #4]
 80054cc:	ed96 1a02 	vldr	s2, [r6, #8]
 80054d0:	edd9 1a03 	vldr	s3, [r9, #12]
 80054d4:	eeb4 1a40 	vcmp.f32	s2, s0
 80054d8:	eef1 fa10 	vmrs	APSR_nzcv, fpscr
 80054dc:	bf48      	it	mi
 80054de:	eeb0 1a40 	vmovmi.f32	s2, s0
 80054e2:	ed89 1a02 	vstr	s2, [r9, #8]
 80054e6:	edd6 0a03 	vldr	s1, [r6, #12]
 80054ea:	eef4 0a61 	vcmp.f32	s1, s3
 80054ee:	eef1 fa10 	vmrs	APSR_nzcv, fpscr
 80054f2:	bf58      	it	pl
 80054f4:	eef0 1a60 	vmovpl.f32	s3, s1
 80054f8:	1e40      	subs	r0, r0, #1
 80054fa:	3610      	adds	r6, #16
 80054fc:	edc9 1a03 	vstr	s3, [r9, #12]
 8005500:	2800      	cmp	r0, #0
 8005502:	f109 0910 	add.w	r9, r9, #16
 8005506:	d1c5      	bne.n	8005494 <forward_mp+0x17c>
 8005508:	eb0a 0a81 	add.w	sl, sl, r1, lsl #2
 800550c:	45da      	cmp	sl, fp
 800550e:	d3a4      	bcc.n	800545a <forward_mp+0x142>
 8005510:	1e52      	subs	r2, r2, #1
 8005512:	eb0c 0c88 	add.w	ip, ip, r8, lsl #2
 8005516:	d19b      	bne.n	8005450 <forward_mp+0x138>
 8005518:	9806      	ldr	r0, [sp, #24]
 800551a:	1945      	adds	r5, r0, r5
 800551c:	1e5b      	subs	r3, r3, #1
 800551e:	eb0e 0e81 	add.w	lr, lr, r1, lsl #2
 8005522:	f47f af56 	bne.w	80053d2 <forward_mp+0xba>
 8005526:	f8dd 800c 	ldr.w	r8, [sp, #12]
 800552a:	9a02      	ldr	r2, [sp, #8]
 800552c:	9d00      	ldr	r5, [sp, #0]
 800552e:	9b0d      	ldr	r3, [sp, #52]	; 0x34
 8005530:	195d      	adds	r5, r3, r5
 8005532:	9500      	str	r5, [sp, #0]
 8005534:	9d01      	ldr	r5, [sp, #4]
 8005536:	1e6d      	subs	r5, r5, #1
 8005538:	9501      	str	r5, [sp, #4]
 800553a:	f47f af2d 	bne.w	8005398 <forward_mp+0x80>
 800553e:	b00e      	add	sp, #56	; 0x38
 8005540:	e8bd 8ff0 	ldmia.w	sp!, {r4, r5, r6, r7, r8, r9, sl, fp, pc}

08005544 <forward_ap>:
 8005544:	e92d 4ff0 	stmdb	sp!, {r4, r5, r6, r7, r8, r9, sl, fp, lr}
 8005548:	4607      	mov	r7, r0
 800554a:	b097      	sub	sp, #92	; 0x5c
 800554c:	697a      	ldr	r2, [r7, #20]
 800554e:	8811      	ldrh	r1, [r2, #0]
 8005550:	2900      	cmp	r1, #0
 8005552:	bf1a      	itte	ne
 8005554:	6850      	ldrne	r0, [r2, #4]
 8005556:	1d00      	addne	r0, r0, #4
 8005558:	2004      	moveq	r0, #4
 800555a:	6800      	ldr	r0, [r0, #0]
 800555c:	2800      	cmp	r0, #0
 800555e:	bf14      	ite	ne
 8005560:	6804      	ldrne	r4, [r0, #0]
 8005562:	2400      	moveq	r4, #0
 8005564:	2901      	cmp	r1, #1
 8005566:	bfc6      	itte	gt
 8005568:	6850      	ldrgt	r0, [r2, #4]
 800556a:	3010      	addgt	r0, #16
 800556c:	2004      	movle	r0, #4
 800556e:	6800      	ldr	r0, [r0, #0]
 8005570:	68e3      	ldr	r3, [r4, #12]
 8005572:	68dd      	ldr	r5, [r3, #12]
 8005574:	2800      	cmp	r0, #0
 8005576:	bf14      	ite	ne
 8005578:	6806      	ldrne	r6, [r0, #0]
 800557a:	2600      	moveq	r6, #0
 800557c:	68f2      	ldr	r2, [r6, #12]
 800557e:	68d0      	ldr	r0, [r2, #12]
 8005580:	950d      	str	r5, [sp, #52]	; 0x34
 8005582:	6892      	ldr	r2, [r2, #8]
 8005584:	920c      	str	r2, [sp, #48]	; 0x30
 8005586:	f8d3 c008 	ldr.w	ip, [r3, #8]
 800558a:	6859      	ldr	r1, [r3, #4]
 800558c:	69bb      	ldr	r3, [r7, #24]
 800558e:	69fd      	ldr	r5, [r7, #28]
 8005590:	9505      	str	r5, [sp, #20]
 8005592:	f8d7 8020 	ldr.w	r8, [r7, #32]
 8005596:	6a7d      	ldr	r5, [r7, #36]	; 0x24
 8005598:	9516      	str	r5, [sp, #88]	; 0x58
 800559a:	69a4      	ldr	r4, [r4, #24]
 800559c:	6afa      	ldr	r2, [r7, #44]	; 0x2c
 800559e:	68a5      	ldr	r5, [r4, #8]
 80055a0:	f8d2 9004 	ldr.w	r9, [r2, #4]
 80055a4:	69b4      	ldr	r4, [r6, #24]
 80055a6:	6812      	ldr	r2, [r2, #0]
 80055a8:	f8d4 e008 	ldr.w	lr, [r4, #8]
 80055ac:	4252      	negs	r2, r2
 80055ae:	2800      	cmp	r0, #0
 80055b0:	9201      	str	r2, [sp, #4]
 80055b2:	f000 811c 	beq.w	80057ee <forward_ap+0x2aa>
 80055b6:	9c05      	ldr	r4, [sp, #20]
 80055b8:	f1c9 0900 	rsb	r9, r9, #0
 80055bc:	435c      	muls	r4, r3
 80055be:	fb01 f20c 	mul.w	r2, r1, ip
 80055c2:	9004      	str	r0, [sp, #16]
 80055c4:	f8cd 9054 	str.w	r9, [sp, #84]	; 0x54
 80055c8:	9414      	str	r4, [sp, #80]	; 0x50
 80055ca:	9213      	str	r2, [sp, #76]	; 0x4c
 80055cc:	9a01      	ldr	r2, [sp, #4]
 80055ce:	9801      	ldr	r0, [sp, #4]
 80055d0:	9c01      	ldr	r4, [sp, #4]
 80055d2:	4252      	negs	r2, r2
 80055d4:	9a0d      	ldr	r2, [sp, #52]	; 0x34
 80055d6:	bfcc      	ite	gt
 80055d8:	2600      	movgt	r6, #0
 80055da:	9e01      	ldrle	r6, [sp, #4]
 80055dc:	1a10      	subs	r0, r2, r0
 80055de:	9a05      	ldr	r2, [sp, #20]
 80055e0:	4290      	cmp	r0, r2
 80055e2:	bf88      	it	hi
 80055e4:	4610      	movhi	r0, r2
 80055e6:	1904      	adds	r4, r0, r4
 80055e8:	9815      	ldr	r0, [sp, #84]	; 0x54
 80055ea:	9000      	str	r0, [sp, #0]
 80055ec:	980c      	ldr	r0, [sp, #48]	; 0x30
 80055ee:	2800      	cmp	r0, #0
 80055f0:	f000 80f4 	beq.w	80057dc <forward_ap+0x298>
 80055f4:	fb0c f006 	mul.w	r0, ip, r6
 80055f8:	9a0c      	ldr	r2, [sp, #48]	; 0x30
 80055fa:	9012      	str	r0, [sp, #72]	; 0x48
 80055fc:	9202      	str	r2, [sp, #8]
 80055fe:	1b30      	subs	r0, r6, r4
 8005600:	9011      	str	r0, [sp, #68]	; 0x44
 8005602:	970e      	str	r7, [sp, #56]	; 0x38
 8005604:	f8cd c01c 	str.w	ip, [sp, #28]
 8005608:	9306      	str	r3, [sp, #24]
 800560a:	f8cd 802c 	str.w	r8, [sp, #44]	; 0x2c
 800560e:	950a      	str	r5, [sp, #40]	; 0x28
 8005610:	9609      	str	r6, [sp, #36]	; 0x24
 8005612:	9408      	str	r4, [sp, #32]
 8005614:	9800      	ldr	r0, [sp, #0]
 8005616:	9a07      	ldr	r2, [sp, #28]
 8005618:	f8dd a000 	ldr.w	sl, [sp]
 800561c:	4240      	negs	r0, r0
 800561e:	9800      	ldr	r0, [sp, #0]
 8005620:	bfcc      	ite	gt
 8005622:	f04f 0900 	movgt.w	r9, #0
 8005626:	f8dd 9000 	ldrle.w	r9, [sp]
 800562a:	1a10      	subs	r0, r2, r0
 800562c:	9a06      	ldr	r2, [sp, #24]
 800562e:	4290      	cmp	r0, r2
 8005630:	bf88      	it	hi
 8005632:	4610      	movhi	r0, r2
 8005634:	9a13      	ldr	r2, [sp, #76]	; 0x4c
 8005636:	9203      	str	r2, [sp, #12]
 8005638:	4482      	add	sl, r0
 800563a:	9811      	ldr	r0, [sp, #68]	; 0x44
 800563c:	9a12      	ldr	r2, [sp, #72]	; 0x48
 800563e:	eba9 030a 	sub.w	r3, r9, sl
 8005642:	4343      	muls	r3, r0
 8005644:	980a      	ldr	r0, [sp, #40]	; 0x28
 8005646:	444a      	add	r2, r9
 8005648:	434a      	muls	r2, r1
 800564a:	eb00 0582 	add.w	r5, r0, r2, lsl #2
 800564e:	9a0e      	ldr	r2, [sp, #56]	; 0x38
 8005650:	f892 0030 	ldrb.w	r0, [r2, #48]	; 0x30
 8005654:	9a08      	ldr	r2, [sp, #32]
 8005656:	ebaa 0409 	sub.w	r4, sl, r9
 800565a:	434c      	muls	r4, r1
 800565c:	2800      	cmp	r0, #0
 800565e:	bf14      	ite	ne
 8005660:	9e14      	ldrne	r6, [sp, #80]	; 0x50
 8005662:	461e      	moveq	r6, r3
 8005664:	9809      	ldr	r0, [sp, #36]	; 0x24
 8005666:	2701      	movs	r7, #1
 8005668:	4290      	cmp	r0, r2
 800566a:	f04f 0800 	mov.w	r8, #0
 800566e:	f280 80a4 	bge.w	80057ba <forward_ap+0x276>
 8005672:	1a12      	subs	r2, r2, r0
 8005674:	ebaa 0009 	sub.w	r0, sl, r9
 8005678:	900f      	str	r0, [sp, #60]	; 0x3c
 800567a:	9310      	str	r3, [sp, #64]	; 0x40
 800567c:	980f      	ldr	r0, [sp, #60]	; 0x3c
 800567e:	9b10      	ldr	r3, [sp, #64]	; 0x40
 8005680:	4480      	add	r8, r0
 8005682:	4543      	cmp	r3, r8
 8005684:	46a9      	mov	r9, r5
 8005686:	bf0c      	ite	eq
 8005688:	4633      	moveq	r3, r6
 800568a:	2300      	movne	r3, #0
 800568c:	eb09 0c84 	add.w	ip, r9, r4, lsl #2
 8005690:	45e1      	cmp	r9, ip
 8005692:	d254      	bcs.n	800573e <forward_ap+0x1fa>
 8005694:	2900      	cmp	r1, #0
 8005696:	d04d      	beq.n	8005734 <forward_ap+0x1f0>
 8005698:	f011 0003 	ands.w	r0, r1, #3
 800569c:	46ca      	mov	sl, r9
 800569e:	46f3      	mov	fp, lr
 80056a0:	f000 8010 	beq.w	80056c4 <forward_ap+0x180>
 80056a4:	ed9a 0a00 	vldr	s0, [sl]
 80056a8:	2f01      	cmp	r7, #1
 80056aa:	bf1c      	itt	ne
 80056ac:	eddb 0a00 	vldrne	s1, [fp]
 80056b0:	ee30 0a80 	vaddne.f32	s0, s1, s0
 80056b4:	ed8b 0a00 	vstr	s0, [fp]
 80056b8:	1e40      	subs	r0, r0, #1
 80056ba:	f10b 0b04 	add.w	fp, fp, #4
 80056be:	f10a 0a04 	add.w	sl, sl, #4
 80056c2:	d1ef      	bne.n	80056a4 <forward_ap+0x160>
 80056c4:	0888      	lsrs	r0, r1, #2
 80056c6:	d035      	beq.n	8005734 <forward_ap+0x1f0>
 80056c8:	2f01      	cmp	r7, #1
 80056ca:	edda 1a00 	vldr	s3, [sl]
 80056ce:	d10d      	bne.n	80056ec <forward_ap+0x1a8>
 80056d0:	edcb 1a00 	vstr	s3, [fp]
 80056d4:	ed9a 0a01 	vldr	s0, [sl, #4]
 80056d8:	ed8b 0a01 	vstr	s0, [fp, #4]
 80056dc:	edda 1a02 	vldr	s3, [sl, #8]
 80056e0:	edcb 1a02 	vstr	s3, [fp, #8]
 80056e4:	edda 1a03 	vldr	s3, [sl, #12]
 80056e8:	e01c      	b.n	8005724 <forward_ap+0x1e0>
 80056ea:	bf00      	nop
 80056ec:	eddb 0a00 	vldr	s1, [fp]
 80056f0:	ee30 0aa1 	vadd.f32	s0, s1, s3
 80056f4:	ed8b 0a00 	vstr	s0, [fp]
 80056f8:	ed9b 1a01 	vldr	s2, [fp, #4]
 80056fc:	ed9a 0a01 	vldr	s0, [sl, #4]
 8005700:	eddb 1a02 	vldr	s3, [fp, #8]
 8005704:	ee31 0a00 	vadd.f32	s0, s2, s0
 8005708:	ed8b 0a01 	vstr	s0, [fp, #4]
 800570c:	edda 0a02 	vldr	s1, [sl, #8]
 8005710:	ee31 0aa0 	vadd.f32	s0, s3, s1
 8005714:	ed8b 0a02 	vstr	s0, [fp, #8]
 8005718:	ed9b 0a03 	vldr	s0, [fp, #12]
 800571c:	ed9a 1a03 	vldr	s2, [sl, #12]
 8005720:	ee70 1a01 	vadd.f32	s3, s0, s2
 8005724:	edcb 1a03 	vstr	s3, [fp, #12]
 8005728:	1e40      	subs	r0, r0, #1
 800572a:	f10b 0b10 	add.w	fp, fp, #16
 800572e:	f10a 0a10 	add.w	sl, sl, #16
 8005732:	d1c9      	bne.n	80056c8 <forward_ap+0x184>
 8005734:	2700      	movs	r7, #0
 8005736:	eb09 0981 	add.w	r9, r9, r1, lsl #2
 800573a:	45e1      	cmp	r9, ip
 800573c:	d3aa      	bcc.n	8005694 <forward_ap+0x150>
 800573e:	b3ab      	cbz	r3, 80057ac <forward_ap+0x268>
 8005740:	ee00 3a10 	vmov	s0, r3
 8005744:	eeb8 0a40 	vcvt.f32.u32	s0, s0
 8005748:	eef7 0a00 	vmov.f32	s1, #112	; 0x3f800000  1.0
 800574c:	ee80 0a80 	vdiv.f32	s0, s1, s0
 8005750:	b361      	cbz	r1, 80057ac <forward_ap+0x268>
 8005752:	f011 0003 	ands.w	r0, r1, #3
 8005756:	4673      	mov	r3, lr
 8005758:	f000 800a 	beq.w	8005770 <forward_ap+0x22c>
 800575c:	edd3 0a00 	vldr	s1, [r3]
 8005760:	ee60 0a80 	vmul.f32	s1, s1, s0
 8005764:	edc3 0a00 	vstr	s1, [r3]
 8005768:	1e40      	subs	r0, r0, #1
 800576a:	f103 0304 	add.w	r3, r3, #4
 800576e:	d1f5      	bne.n	800575c <forward_ap+0x218>
 8005770:	0888      	lsrs	r0, r1, #2
 8005772:	d01b      	beq.n	80057ac <forward_ap+0x268>
 8005774:	edd3 0a00 	vldr	s1, [r3]
 8005778:	ee60 0a80 	vmul.f32	s1, s1, s0
 800577c:	edc3 0a00 	vstr	s1, [r3]
 8005780:	1e40      	subs	r0, r0, #1
 8005782:	ed93 1a01 	vldr	s2, [r3, #4]
 8005786:	edd3 0a02 	vldr	s1, [r3, #8]
 800578a:	ee21 1a00 	vmul.f32	s2, s2, s0
 800578e:	ed83 1a01 	vstr	s2, [r3, #4]
 8005792:	ee60 0a80 	vmul.f32	s1, s1, s0
 8005796:	ed93 1a03 	vldr	s2, [r3, #12]
 800579a:	edc3 0a02 	vstr	s1, [r3, #8]
 800579e:	ee21 1a00 	vmul.f32	s2, s2, s0
 80057a2:	ed83 1a03 	vstr	s2, [r3, #12]
 80057a6:	f103 0310 	add.w	r3, r3, #16
 80057aa:	d1e3      	bne.n	8005774 <forward_ap+0x230>
 80057ac:	9803      	ldr	r0, [sp, #12]
 80057ae:	2700      	movs	r7, #0
 80057b0:	1e52      	subs	r2, r2, #1
 80057b2:	eb05 0580 	add.w	r5, r5, r0, lsl #2
 80057b6:	f47f af61 	bne.w	800567c <forward_ap+0x138>
 80057ba:	9800      	ldr	r0, [sp, #0]
 80057bc:	9a0b      	ldr	r2, [sp, #44]	; 0x2c
 80057be:	1810      	adds	r0, r2, r0
 80057c0:	9000      	str	r0, [sp, #0]
 80057c2:	eb0e 0e81 	add.w	lr, lr, r1, lsl #2
 80057c6:	9802      	ldr	r0, [sp, #8]
 80057c8:	1e40      	subs	r0, r0, #1
 80057ca:	9002      	str	r0, [sp, #8]
 80057cc:	f47f af22 	bne.w	8005614 <forward_ap+0xd0>
 80057d0:	9f0e      	ldr	r7, [sp, #56]	; 0x38
 80057d2:	f8dd c01c 	ldr.w	ip, [sp, #28]
 80057d6:	9b06      	ldr	r3, [sp, #24]
 80057d8:	9d0a      	ldr	r5, [sp, #40]	; 0x28
 80057da:	4690      	mov	r8, r2
 80057dc:	9c01      	ldr	r4, [sp, #4]
 80057de:	9a16      	ldr	r2, [sp, #88]	; 0x58
 80057e0:	1914      	adds	r4, r2, r4
 80057e2:	9401      	str	r4, [sp, #4]
 80057e4:	9c04      	ldr	r4, [sp, #16]
 80057e6:	1e64      	subs	r4, r4, #1
 80057e8:	9404      	str	r4, [sp, #16]
 80057ea:	f47f aeef 	bne.w	80055cc <forward_ap+0x88>
 80057ee:	b017      	add	sp, #92	; 0x5c
 80057f0:	e8bd 8ff0 	ldmia.w	sp!, {r4, r5, r6, r7, r8, r9, sl, fp, pc}

080057f4 <ai_array_fmt_name>:
 80057f4:	f020 407e 	bic.w	r0, r0, #4261412864	; 0xfe000000
 80057f8:	f1b0 0140 	subs.w	r1, r0, #64	; 0x40
 80057fc:	d062      	beq.n	80058c4 <ai_array_fmt_name+0xd0>
 80057fe:	f44f 2280 	mov.w	r2, #262144	; 0x40000
 8005802:	1a89      	subs	r1, r1, r2
 8005804:	f000 8094 	beq.w	8005930 <ai_array_fmt_name+0x13c>
 8005808:	f44f 7200 	mov.w	r2, #512	; 0x200
 800580c:	1a89      	subs	r1, r1, r2
 800580e:	d071      	beq.n	80058f4 <ai_array_fmt_name+0x100>
 8005810:	1a89      	subs	r1, r1, r2
 8005812:	d063      	beq.n	80058dc <ai_array_fmt_name+0xe8>
 8005814:	1fc9      	subs	r1, r1, #7
 8005816:	f000 808e 	beq.w	8005936 <ai_array_fmt_name+0x142>
 800581a:	f240 32f9 	movw	r2, #1017	; 0x3f9
 800581e:	1a89      	subs	r1, r1, r2
 8005820:	d05f      	beq.n	80058e2 <ai_array_fmt_name+0xee>
 8005822:	390f      	subs	r1, #15
 8005824:	f000 808a 	beq.w	800593c <ai_array_fmt_name+0x148>
 8005828:	f240 72f1 	movw	r2, #2033	; 0x7f1
 800582c:	1a89      	subs	r1, r1, r2
 800582e:	d05b      	beq.n	80058e8 <ai_array_fmt_name+0xf4>
 8005830:	391f      	subs	r1, #31
 8005832:	f000 8086 	beq.w	8005942 <ai_array_fmt_name+0x14e>
 8005836:	f640 72e1 	movw	r2, #4065	; 0xfe1
 800583a:	1a89      	subs	r1, r1, r2
 800583c:	d057      	beq.n	80058ee <ai_array_fmt_name+0xfa>
 800583e:	f8df 25d4 	ldr.w	r2, [pc, #1492]	; 8005e14 <.text_15>
 8005842:	1a89      	subs	r1, r1, r2
 8005844:	f000 808f 	beq.w	8005966 <ai_array_fmt_name+0x172>
 8005848:	f44f 12c0 	mov.w	r2, #1572864	; 0x180000
 800584c:	1a89      	subs	r1, r1, r2
 800584e:	f000 8087 	beq.w	8005960 <ai_array_fmt_name+0x16c>
 8005852:	f8df 25c4 	ldr.w	r2, [pc, #1476]	; 8005e18 <.text_16>
 8005856:	1a89      	subs	r1, r1, r2
 8005858:	d05e      	beq.n	8005918 <ai_array_fmt_name+0x124>
 800585a:	f44f 7200 	mov.w	r2, #512	; 0x200
 800585e:	1a89      	subs	r1, r1, r2
 8005860:	d057      	beq.n	8005912 <ai_array_fmt_name+0x11e>
 8005862:	1a89      	subs	r1, r1, r2
 8005864:	d049      	beq.n	80058fa <ai_array_fmt_name+0x106>
 8005866:	1fc9      	subs	r1, r1, #7
 8005868:	d059      	beq.n	800591e <ai_array_fmt_name+0x12a>
 800586a:	f240 32f9 	movw	r2, #1017	; 0x3f9
 800586e:	1a89      	subs	r1, r1, r2
 8005870:	d046      	beq.n	8005900 <ai_array_fmt_name+0x10c>
 8005872:	390f      	subs	r1, #15
 8005874:	d056      	beq.n	8005924 <ai_array_fmt_name+0x130>
 8005876:	f240 72f1 	movw	r2, #2033	; 0x7f1
 800587a:	1a89      	subs	r1, r1, r2
 800587c:	d043      	beq.n	8005906 <ai_array_fmt_name+0x112>
 800587e:	391f      	subs	r1, #31
 8005880:	d053      	beq.n	800592a <ai_array_fmt_name+0x136>
 8005882:	f640 72e1 	movw	r2, #4065	; 0xfe1
 8005886:	1a89      	subs	r1, r1, r2
 8005888:	d040      	beq.n	800590c <ai_array_fmt_name+0x118>
 800588a:	f8df 2588 	ldr.w	r2, [pc, #1416]	; 8005e14 <.text_15>
 800588e:	1a89      	subs	r1, r1, r2
 8005890:	d063      	beq.n	800595a <ai_array_fmt_name+0x166>
 8005892:	f44f 12c0 	mov.w	r2, #1572864	; 0x180000
 8005896:	1a89      	subs	r1, r1, r2
 8005898:	d05c      	beq.n	8005954 <ai_array_fmt_name+0x160>
 800589a:	f8df 2580 	ldr.w	r2, [pc, #1408]	; 8005e1c <.text_17>
 800589e:	1a89      	subs	r1, r1, r2
 80058a0:	d019      	beq.n	80058d6 <ai_array_fmt_name+0xe2>
 80058a2:	f44f 6200 	mov.w	r2, #2048	; 0x800
 80058a6:	1a89      	subs	r1, r1, r2
 80058a8:	d00f      	beq.n	80058ca <ai_array_fmt_name+0xd6>
 80058aa:	f44f 5280 	mov.w	r2, #4096	; 0x1000
 80058ae:	1a89      	subs	r1, r1, r2
 80058b0:	d00e      	beq.n	80058d0 <ai_array_fmt_name+0xdc>
 80058b2:	f8df 256c 	ldr.w	r2, [pc, #1388]	; 8005e20 <.text_18>
 80058b6:	1a89      	subs	r1, r1, r2
 80058b8:	d049      	beq.n	800594e <ai_array_fmt_name+0x15a>
 80058ba:	f44f 12c0 	mov.w	r2, #1572864	; 0x180000
 80058be:	1a89      	subs	r1, r1, r2
 80058c0:	d042      	beq.n	8005948 <ai_array_fmt_name+0x154>
 80058c2:	e053      	b.n	800596c <ai_array_fmt_name+0x178>
 80058c4:	f20f 6074 	addw	r0, pc, #1652	; 0x674
 80058c8:	4770      	bx	lr
 80058ca:	f20f 607c 	addw	r0, pc, #1660	; 0x67c
 80058ce:	4770      	bx	lr
 80058d0:	f20f 6080 	addw	r0, pc, #1664	; 0x680
 80058d4:	4770      	bx	lr
 80058d6:	f20f 6088 	addw	r0, pc, #1672	; 0x688
 80058da:	4770      	bx	lr
 80058dc:	f20f 608c 	addw	r0, pc, #1676	; 0x68c
 80058e0:	4770      	bx	lr
 80058e2:	f20f 6090 	addw	r0, pc, #1680	; 0x690
 80058e6:	4770      	bx	lr
 80058e8:	f20f 6090 	addw	r0, pc, #1680	; 0x690
 80058ec:	4770      	bx	lr
 80058ee:	f20f 6094 	addw	r0, pc, #1684	; 0x694
 80058f2:	4770      	bx	lr
 80058f4:	f20f 6094 	addw	r0, pc, #1684	; 0x694
 80058f8:	4770      	bx	lr
 80058fa:	f20f 6098 	addw	r0, pc, #1688	; 0x698
 80058fe:	4770      	bx	lr
 8005900:	f20f 6098 	addw	r0, pc, #1688	; 0x698
 8005904:	4770      	bx	lr
 8005906:	f20f 609c 	addw	r0, pc, #1692	; 0x69c
 800590a:	4770      	bx	lr
 800590c:	f20f 609c 	addw	r0, pc, #1692	; 0x69c
 8005910:	4770      	bx	lr
 8005912:	f20f 60a0 	addw	r0, pc, #1696	; 0x6a0
 8005916:	4770      	bx	lr
 8005918:	f20f 60a0 	addw	r0, pc, #1696	; 0x6a0
 800591c:	4770      	bx	lr
 800591e:	f20f 60a4 	addw	r0, pc, #1700	; 0x6a4
 8005922:	4770      	bx	lr
 8005924:	f20f 60a4 	addw	r0, pc, #1700	; 0x6a4
 8005928:	4770      	bx	lr
 800592a:	f20f 60a8 	addw	r0, pc, #1704	; 0x6a8
 800592e:	4770      	bx	lr
 8005930:	f20f 60a8 	addw	r0, pc, #1704	; 0x6a8
 8005934:	4770      	bx	lr
 8005936:	f20f 60ac 	addw	r0, pc, #1708	; 0x6ac
 800593a:	4770      	bx	lr
 800593c:	f20f 60ac 	addw	r0, pc, #1708	; 0x6ac
 8005940:	4770      	bx	lr
 8005942:	f20f 60b4 	addw	r0, pc, #1716	; 0x6b4
 8005946:	4770      	bx	lr
 8005948:	f20f 60b8 	addw	r0, pc, #1720	; 0x6b8
 800594c:	4770      	bx	lr
 800594e:	f20f 60c4 	addw	r0, pc, #1732	; 0x6c4
 8005952:	4770      	bx	lr
 8005954:	f20f 60cc 	addw	r0, pc, #1740	; 0x6cc
 8005958:	4770      	bx	lr
 800595a:	f20f 60d8 	addw	r0, pc, #1752	; 0x6d8
 800595e:	4770      	bx	lr
 8005960:	f20f 60e0 	addw	r0, pc, #1760	; 0x6e0
 8005964:	4770      	bx	lr
 8005966:	f20f 60ec 	addw	r0, pc, #1772	; 0x6ec
 800596a:	4770      	bx	lr
 800596c:	f36f 000d 	bfc	r0, #0, #14
 8005970:	f040 0040 	orr.w	r0, r0, #64	; 0x40
 8005974:	2840      	cmp	r0, #64	; 0x40
 8005976:	d009      	beq.n	800598c <ai_array_fmt_name+0x198>
 8005978:	f8df 14a8 	ldr.w	r1, [pc, #1192]	; 8005e24 <.text_19>
 800597c:	4288      	cmp	r0, r1
 800597e:	d00b      	beq.n	8005998 <ai_array_fmt_name+0x1a4>
 8005980:	f8df 14a4 	ldr.w	r1, [pc, #1188]	; 8005e28 <.text_20>
 8005984:	4288      	cmp	r0, r1
 8005986:	d004      	beq.n	8005992 <ai_array_fmt_name+0x19e>
 8005988:	a07a      	add	r0, pc, #488	; (adr r0, 8005b74 <.text_8>)
 800598a:	4770      	bx	lr
 800598c:	f20f 60d4 	addw	r0, pc, #1748	; 0x6d4
 8005990:	4770      	bx	lr
 8005992:	f20f 60e8 	addw	r0, pc, #1768	; 0x6e8
 8005996:	4770      	bx	lr
 8005998:	f20f 60f4 	addw	r0, pc, #1780	; 0x6f4
 800599c:	4770      	bx	lr

0800599e <ai_array_fmt_exported>:
 800599e:	f020 407e 	bic.w	r0, r0, #4261412864	; 0xfe000000
 80059a2:	f1b0 0140 	subs.w	r1, r0, #64	; 0x40
 80059a6:	d068      	beq.n	8005a7a <ai_array_fmt_exported+0xdc>
 80059a8:	f44f 2280 	mov.w	r2, #262144	; 0x40000
 80059ac:	1a89      	subs	r1, r1, r2
 80059ae:	d064      	beq.n	8005a7a <ai_array_fmt_exported+0xdc>
 80059b0:	f44f 7200 	mov.w	r2, #512	; 0x200
 80059b4:	1a89      	subs	r1, r1, r2
 80059b6:	d062      	beq.n	8005a7e <ai_array_fmt_exported+0xe0>
 80059b8:	1a89      	subs	r1, r1, r2
 80059ba:	d05e      	beq.n	8005a7a <ai_array_fmt_exported+0xdc>
 80059bc:	1fc9      	subs	r1, r1, #7
 80059be:	d05c      	beq.n	8005a7a <ai_array_fmt_exported+0xdc>
 80059c0:	f240 32f9 	movw	r2, #1017	; 0x3f9
 80059c4:	1a89      	subs	r1, r1, r2
 80059c6:	d058      	beq.n	8005a7a <ai_array_fmt_exported+0xdc>
 80059c8:	390f      	subs	r1, #15
 80059ca:	d056      	beq.n	8005a7a <ai_array_fmt_exported+0xdc>
 80059cc:	f240 72f1 	movw	r2, #2033	; 0x7f1
 80059d0:	1a89      	subs	r1, r1, r2
 80059d2:	d054      	beq.n	8005a7e <ai_array_fmt_exported+0xe0>
 80059d4:	391f      	subs	r1, #31
 80059d6:	d052      	beq.n	8005a7e <ai_array_fmt_exported+0xe0>
 80059d8:	f640 72e1 	movw	r2, #4065	; 0xfe1
 80059dc:	1a89      	subs	r1, r1, r2
 80059de:	d04e      	beq.n	8005a7e <ai_array_fmt_exported+0xe0>
 80059e0:	f8df 2430 	ldr.w	r2, [pc, #1072]	; 8005e14 <.text_15>
 80059e4:	1a89      	subs	r1, r1, r2
 80059e6:	d04a      	beq.n	8005a7e <ai_array_fmt_exported+0xe0>
 80059e8:	f44f 12c0 	mov.w	r2, #1572864	; 0x180000
 80059ec:	1a89      	subs	r1, r1, r2
 80059ee:	d046      	beq.n	8005a7e <ai_array_fmt_exported+0xe0>
 80059f0:	f8df 2424 	ldr.w	r2, [pc, #1060]	; 8005e18 <.text_16>
 80059f4:	1a89      	subs	r1, r1, r2
 80059f6:	d040      	beq.n	8005a7a <ai_array_fmt_exported+0xdc>
 80059f8:	f44f 7200 	mov.w	r2, #512	; 0x200
 80059fc:	1a89      	subs	r1, r1, r2
 80059fe:	d03e      	beq.n	8005a7e <ai_array_fmt_exported+0xe0>
 8005a00:	1a89      	subs	r1, r1, r2
 8005a02:	d03a      	beq.n	8005a7a <ai_array_fmt_exported+0xdc>
 8005a04:	1fc9      	subs	r1, r1, #7
 8005a06:	d038      	beq.n	8005a7a <ai_array_fmt_exported+0xdc>
 8005a08:	f240 32f9 	movw	r2, #1017	; 0x3f9
 8005a0c:	1a89      	subs	r1, r1, r2
 8005a0e:	d034      	beq.n	8005a7a <ai_array_fmt_exported+0xdc>
 8005a10:	390f      	subs	r1, #15
 8005a12:	d032      	beq.n	8005a7a <ai_array_fmt_exported+0xdc>
 8005a14:	f240 72f1 	movw	r2, #2033	; 0x7f1
 8005a18:	1a89      	subs	r1, r1, r2
 8005a1a:	d030      	beq.n	8005a7e <ai_array_fmt_exported+0xe0>
 8005a1c:	391f      	subs	r1, #31
 8005a1e:	d02e      	beq.n	8005a7e <ai_array_fmt_exported+0xe0>
 8005a20:	f640 72e1 	movw	r2, #4065	; 0xfe1
 8005a24:	1a89      	subs	r1, r1, r2
 8005a26:	d02a      	beq.n	8005a7e <ai_array_fmt_exported+0xe0>
 8005a28:	f8df 23e8 	ldr.w	r2, [pc, #1000]	; 8005e14 <.text_15>
 8005a2c:	1a89      	subs	r1, r1, r2
 8005a2e:	d026      	beq.n	8005a7e <ai_array_fmt_exported+0xe0>
 8005a30:	f44f 12c0 	mov.w	r2, #1572864	; 0x180000
 8005a34:	1a89      	subs	r1, r1, r2
 8005a36:	d022      	beq.n	8005a7e <ai_array_fmt_exported+0xe0>
 8005a38:	f8df 23e0 	ldr.w	r2, [pc, #992]	; 8005e1c <.text_17>
 8005a3c:	1a89      	subs	r1, r1, r2
 8005a3e:	d01e      	beq.n	8005a7e <ai_array_fmt_exported+0xe0>
 8005a40:	f44f 6200 	mov.w	r2, #2048	; 0x800
 8005a44:	1a89      	subs	r1, r1, r2
 8005a46:	d018      	beq.n	8005a7a <ai_array_fmt_exported+0xdc>
 8005a48:	f44f 5280 	mov.w	r2, #4096	; 0x1000
 8005a4c:	1a89      	subs	r1, r1, r2
 8005a4e:	d016      	beq.n	8005a7e <ai_array_fmt_exported+0xe0>
 8005a50:	f8df 23cc 	ldr.w	r2, [pc, #972]	; 8005e20 <.text_18>
 8005a54:	1a89      	subs	r1, r1, r2
 8005a56:	d012      	beq.n	8005a7e <ai_array_fmt_exported+0xe0>
 8005a58:	f44f 12c0 	mov.w	r2, #1572864	; 0x180000
 8005a5c:	1a89      	subs	r1, r1, r2
 8005a5e:	d00e      	beq.n	8005a7e <ai_array_fmt_exported+0xe0>
 8005a60:	f36f 000d 	bfc	r0, #0, #14
 8005a64:	f040 0040 	orr.w	r0, r0, #64	; 0x40
 8005a68:	2840      	cmp	r0, #64	; 0x40
 8005a6a:	bf1f      	itttt	ne
 8005a6c:	f8df 33b4 	ldrne.w	r3, [pc, #948]	; 8005e24 <.text_19>
 8005a70:	4298      	cmpne	r0, r3
 8005a72:	f8df 33b4 	ldrne.w	r3, [pc, #948]	; 8005e28 <.text_20>
 8005a76:	4298      	cmpne	r0, r3
 8005a78:	d101      	bne.n	8005a7e <ai_array_fmt_exported+0xe0>
 8005a7a:	2001      	movs	r0, #1
 8005a7c:	4770      	bx	lr
 8005a7e:	2000      	movs	r0, #0
 8005a80:	4770      	bx	lr

08005a82 <ai_array_fmt_valid>:
 8005a82:	f020 407e 	bic.w	r0, r0, #4261412864	; 0xfe000000
 8005a86:	f1b0 0140 	subs.w	r1, r0, #64	; 0x40
 8005a8a:	d069      	beq.n	8005b60 <ai_array_fmt_valid+0xde>
 8005a8c:	f44f 2280 	mov.w	r2, #262144	; 0x40000
 8005a90:	1a89      	subs	r1, r1, r2
 8005a92:	d065      	beq.n	8005b60 <ai_array_fmt_valid+0xde>
 8005a94:	f44f 7200 	mov.w	r2, #512	; 0x200
 8005a98:	1a89      	subs	r1, r1, r2
 8005a9a:	d061      	beq.n	8005b60 <ai_array_fmt_valid+0xde>
 8005a9c:	1a89      	subs	r1, r1, r2
 8005a9e:	d05f      	beq.n	8005b60 <ai_array_fmt_valid+0xde>
 8005aa0:	1fc9      	subs	r1, r1, #7
 8005aa2:	d05d      	beq.n	8005b60 <ai_array_fmt_valid+0xde>
 8005aa4:	f240 32f9 	movw	r2, #1017	; 0x3f9
 8005aa8:	1a89      	subs	r1, r1, r2
 8005aaa:	d059      	beq.n	8005b60 <ai_array_fmt_valid+0xde>
 8005aac:	390f      	subs	r1, #15
 8005aae:	d057      	beq.n	8005b60 <ai_array_fmt_valid+0xde>
 8005ab0:	f240 72f1 	movw	r2, #2033	; 0x7f1
 8005ab4:	1a89      	subs	r1, r1, r2
 8005ab6:	d053      	beq.n	8005b60 <ai_array_fmt_valid+0xde>
 8005ab8:	391f      	subs	r1, #31
 8005aba:	d051      	beq.n	8005b60 <ai_array_fmt_valid+0xde>
 8005abc:	f640 72e1 	movw	r2, #4065	; 0xfe1
 8005ac0:	1a89      	subs	r1, r1, r2
 8005ac2:	d04d      	beq.n	8005b60 <ai_array_fmt_valid+0xde>
 8005ac4:	f8df 234c 	ldr.w	r2, [pc, #844]	; 8005e14 <.text_15>
 8005ac8:	1a89      	subs	r1, r1, r2
 8005aca:	d049      	beq.n	8005b60 <ai_array_fmt_valid+0xde>
 8005acc:	f44f 12c0 	mov.w	r2, #1572864	; 0x180000
 8005ad0:	1a89      	subs	r1, r1, r2
 8005ad2:	d045      	beq.n	8005b60 <ai_array_fmt_valid+0xde>
 8005ad4:	f8df 2340 	ldr.w	r2, [pc, #832]	; 8005e18 <.text_16>
 8005ad8:	1a89      	subs	r1, r1, r2
 8005ada:	d041      	beq.n	8005b60 <ai_array_fmt_valid+0xde>
 8005adc:	f44f 7200 	mov.w	r2, #512	; 0x200
 8005ae0:	1a89      	subs	r1, r1, r2
 8005ae2:	d03d      	beq.n	8005b60 <ai_array_fmt_valid+0xde>
 8005ae4:	1a89      	subs	r1, r1, r2
 8005ae6:	d03b      	beq.n	8005b60 <ai_array_fmt_valid+0xde>
 8005ae8:	1fc9      	subs	r1, r1, #7
 8005aea:	d039      	beq.n	8005b60 <ai_array_fmt_valid+0xde>
 8005aec:	f240 32f9 	movw	r2, #1017	; 0x3f9
 8005af0:	1a89      	subs	r1, r1, r2
 8005af2:	d035      	beq.n	8005b60 <ai_array_fmt_valid+0xde>
 8005af4:	390f      	subs	r1, #15
 8005af6:	d033      	beq.n	8005b60 <ai_array_fmt_valid+0xde>
 8005af8:	f240 72f1 	movw	r2, #2033	; 0x7f1
 8005afc:	1a89      	subs	r1, r1, r2
 8005afe:	d02f      	beq.n	8005b60 <ai_array_fmt_valid+0xde>
 8005b00:	391f      	subs	r1, #31
 8005b02:	d02d      	beq.n	8005b60 <ai_array_fmt_valid+0xde>
 8005b04:	f640 72e1 	movw	r2, #4065	; 0xfe1
 8005b08:	1a89      	subs	r1, r1, r2
 8005b0a:	d029      	beq.n	8005b60 <ai_array_fmt_valid+0xde>
 8005b0c:	f8df 2304 	ldr.w	r2, [pc, #772]	; 8005e14 <.text_15>
 8005b10:	1a89      	subs	r1, r1, r2
 8005b12:	d025      	beq.n	8005b60 <ai_array_fmt_valid+0xde>
 8005b14:	f44f 12c0 	mov.w	r2, #1572864	; 0x180000
 8005b18:	1a89      	subs	r1, r1, r2
 8005b1a:	d021      	beq.n	8005b60 <ai_array_fmt_valid+0xde>
 8005b1c:	f8df 22fc 	ldr.w	r2, [pc, #764]	; 8005e1c <.text_17>
 8005b20:	1a89      	subs	r1, r1, r2
 8005b22:	d01d      	beq.n	8005b60 <ai_array_fmt_valid+0xde>
 8005b24:	f44f 6200 	mov.w	r2, #2048	; 0x800
 8005b28:	1a89      	subs	r1, r1, r2
 8005b2a:	d019      	beq.n	8005b60 <ai_array_fmt_valid+0xde>
 8005b2c:	f44f 5280 	mov.w	r2, #4096	; 0x1000
 8005b30:	1a89      	subs	r1, r1, r2
 8005b32:	d015      	beq.n	8005b60 <ai_array_fmt_valid+0xde>
 8005b34:	f8df 22e8 	ldr.w	r2, [pc, #744]	; 8005e20 <.text_18>
 8005b38:	1a89      	subs	r1, r1, r2
 8005b3a:	d011      	beq.n	8005b60 <ai_array_fmt_valid+0xde>
 8005b3c:	f44f 12c0 	mov.w	r2, #1572864	; 0x180000
 8005b40:	1a89      	subs	r1, r1, r2
 8005b42:	bf1e      	ittt	ne
 8005b44:	f36f 000d 	bfcne	r0, #0, #14
 8005b48:	f040 0040 	orrne.w	r0, r0, #64	; 0x40
 8005b4c:	2840      	cmpne	r0, #64	; 0x40
 8005b4e:	d007      	beq.n	8005b60 <ai_array_fmt_valid+0xde>
 8005b50:	f8df 32d0 	ldr.w	r3, [pc, #720]	; 8005e24 <.text_19>
 8005b54:	4298      	cmp	r0, r3
 8005b56:	bf1c      	itt	ne
 8005b58:	f8df 32cc 	ldrne.w	r3, [pc, #716]	; 8005e28 <.text_20>
 8005b5c:	4298      	cmpne	r0, r3
 8005b5e:	d101      	bne.n	8005b64 <ai_array_fmt_valid+0xe2>
 8005b60:	2001      	movs	r0, #1
 8005b62:	4770      	bx	lr
 8005b64:	2000      	movs	r0, #0
 8005b66:	4770      	bx	lr

08005b68 <ai_array_fmt_get_formats>:
 8005b68:	f8df 12c0 	ldr.w	r1, [pc, #704]	; 8005e2c <.text_21>
 8005b6c:	6001      	str	r1, [r0, #0]
 8005b6e:	201c      	movs	r0, #28
 8005b70:	4770      	bx	lr
	...

08005b74 <.text_8>:
 8005b74:	00000000 	.word	0x00000000

08005b78 <ai_buffer_fmt_name>:
 8005b78:	f020 407e 	bic.w	r0, r0, #4261412864	; 0xfe000000
 8005b7c:	f1b0 0140 	subs.w	r1, r0, #64	; 0x40
 8005b80:	d022      	beq.n	8005bc8 <ai_buffer_fmt_name+0x50>
 8005b82:	f44f 2280 	mov.w	r2, #262144	; 0x40000
 8005b86:	1a89      	subs	r1, r1, r2
 8005b88:	d039      	beq.n	8005bfe <ai_buffer_fmt_name+0x86>
 8005b8a:	f44f 6280 	mov.w	r2, #1024	; 0x400
 8005b8e:	1a89      	subs	r1, r1, r2
 8005b90:	d020      	beq.n	8005bd4 <ai_buffer_fmt_name+0x5c>
 8005b92:	1fc9      	subs	r1, r1, #7
 8005b94:	d036      	beq.n	8005c04 <ai_buffer_fmt_name+0x8c>
 8005b96:	f240 32f9 	movw	r2, #1017	; 0x3f9
 8005b9a:	1a89      	subs	r1, r1, r2
 8005b9c:	d01d      	beq.n	8005bda <ai_buffer_fmt_name+0x62>
 8005b9e:	390f      	subs	r1, #15
 8005ba0:	d033      	beq.n	8005c0a <ai_buffer_fmt_name+0x92>
 8005ba2:	4aa3      	ldr	r2, [pc, #652]	; (8005e30 <.text_22>)
 8005ba4:	1a89      	subs	r1, r1, r2
 8005ba6:	d021      	beq.n	8005bec <ai_buffer_fmt_name+0x74>
 8005ba8:	f44f 6280 	mov.w	r2, #1024	; 0x400
 8005bac:	1a89      	subs	r1, r1, r2
 8005bae:	d017      	beq.n	8005be0 <ai_buffer_fmt_name+0x68>
 8005bb0:	1fc9      	subs	r1, r1, #7
 8005bb2:	d01e      	beq.n	8005bf2 <ai_buffer_fmt_name+0x7a>
 8005bb4:	f240 32f9 	movw	r2, #1017	; 0x3f9
 8005bb8:	1a89      	subs	r1, r1, r2
 8005bba:	d014      	beq.n	8005be6 <ai_buffer_fmt_name+0x6e>
 8005bbc:	390f      	subs	r1, #15
 8005bbe:	d01b      	beq.n	8005bf8 <ai_buffer_fmt_name+0x80>
 8005bc0:	4a9c      	ldr	r2, [pc, #624]	; (8005e34 <.text_23>)
 8005bc2:	1a89      	subs	r1, r1, r2
 8005bc4:	d003      	beq.n	8005bce <ai_buffer_fmt_name+0x56>
 8005bc6:	e023      	b.n	8005c10 <ai_buffer_fmt_name+0x98>
 8005bc8:	f20f 3070 	addw	r0, pc, #880	; 0x370
 8005bcc:	4770      	bx	lr
 8005bce:	f20f 3078 	addw	r0, pc, #888	; 0x378
 8005bd2:	4770      	bx	lr
 8005bd4:	f20f 3094 	addw	r0, pc, #916	; 0x394
 8005bd8:	4770      	bx	lr
 8005bda:	f20f 3098 	addw	r0, pc, #920	; 0x398
 8005bde:	4770      	bx	lr
 8005be0:	f20f 30b0 	addw	r0, pc, #944	; 0x3b0
 8005be4:	4770      	bx	lr
 8005be6:	f20f 30b4 	addw	r0, pc, #948	; 0x3b4
 8005bea:	4770      	bx	lr
 8005bec:	f20f 30cc 	addw	r0, pc, #972	; 0x3cc
 8005bf0:	4770      	bx	lr
 8005bf2:	f20f 30d0 	addw	r0, pc, #976	; 0x3d0
 8005bf6:	4770      	bx	lr
 8005bf8:	f20f 30d0 	addw	r0, pc, #976	; 0x3d0
 8005bfc:	4770      	bx	lr
 8005bfe:	f20f 30dc 	addw	r0, pc, #988	; 0x3dc
 8005c02:	4770      	bx	lr
 8005c04:	f20f 30dc 	addw	r0, pc, #988	; 0x3dc
 8005c08:	4770      	bx	lr
 8005c0a:	f20f 30e0 	addw	r0, pc, #992	; 0x3e0
 8005c0e:	4770      	bx	lr
 8005c10:	0b80      	lsrs	r0, r0, #14
 8005c12:	0380      	lsls	r0, r0, #14
 8005c14:	f040 0040 	orr.w	r0, r0, #64	; 0x40
 8005c18:	2840      	cmp	r0, #64	; 0x40
 8005c1a:	d007      	beq.n	8005c2c <ai_buffer_fmt_name+0xb4>
 8005c1c:	4981      	ldr	r1, [pc, #516]	; (8005e24 <.text_19>)
 8005c1e:	4288      	cmp	r0, r1
 8005c20:	d00a      	beq.n	8005c38 <ai_buffer_fmt_name+0xc0>
 8005c22:	4981      	ldr	r1, [pc, #516]	; (8005e28 <.text_20>)
 8005c24:	4288      	cmp	r0, r1
 8005c26:	d004      	beq.n	8005c32 <ai_buffer_fmt_name+0xba>
 8005c28:	a079      	add	r0, pc, #484	; (adr r0, 8005e10 <.text_14>)
 8005c2a:	4770      	bx	lr
 8005c2c:	f20f 4074 	addw	r0, pc, #1140	; 0x474
 8005c30:	4770      	bx	lr
 8005c32:	f20f 4088 	addw	r0, pc, #1160	; 0x488
 8005c36:	4770      	bx	lr
 8005c38:	f20f 4094 	addw	r0, pc, #1172	; 0x494
 8005c3c:	4770      	bx	lr

08005c3e <ai_buffer_fmt_valid>:
 8005c3e:	f020 407e 	bic.w	r0, r0, #4261412864	; 0xfe000000
 8005c42:	f1b0 0140 	subs.w	r1, r0, #64	; 0x40
 8005c46:	d02d      	beq.n	8005ca4 <ai_buffer_fmt_valid+0x66>
 8005c48:	f44f 2280 	mov.w	r2, #262144	; 0x40000
 8005c4c:	1a89      	subs	r1, r1, r2
 8005c4e:	d029      	beq.n	8005ca4 <ai_buffer_fmt_valid+0x66>
 8005c50:	f44f 6280 	mov.w	r2, #1024	; 0x400
 8005c54:	1a89      	subs	r1, r1, r2
 8005c56:	d025      	beq.n	8005ca4 <ai_buffer_fmt_valid+0x66>
 8005c58:	1fc9      	subs	r1, r1, #7
 8005c5a:	d023      	beq.n	8005ca4 <ai_buffer_fmt_valid+0x66>
 8005c5c:	f240 32f9 	movw	r2, #1017	; 0x3f9
 8005c60:	1a89      	subs	r1, r1, r2
 8005c62:	d01f      	beq.n	8005ca4 <ai_buffer_fmt_valid+0x66>
 8005c64:	390f      	subs	r1, #15
 8005c66:	d01d      	beq.n	8005ca4 <ai_buffer_fmt_valid+0x66>
 8005c68:	4a71      	ldr	r2, [pc, #452]	; (8005e30 <.text_22>)
 8005c6a:	1a89      	subs	r1, r1, r2
 8005c6c:	d01a      	beq.n	8005ca4 <ai_buffer_fmt_valid+0x66>
 8005c6e:	f44f 6280 	mov.w	r2, #1024	; 0x400
 8005c72:	1a89      	subs	r1, r1, r2
 8005c74:	d016      	beq.n	8005ca4 <ai_buffer_fmt_valid+0x66>
 8005c76:	1fc9      	subs	r1, r1, #7
 8005c78:	d014      	beq.n	8005ca4 <ai_buffer_fmt_valid+0x66>
 8005c7a:	f240 32f9 	movw	r2, #1017	; 0x3f9
 8005c7e:	1a89      	subs	r1, r1, r2
 8005c80:	d010      	beq.n	8005ca4 <ai_buffer_fmt_valid+0x66>
 8005c82:	390f      	subs	r1, #15
 8005c84:	d00e      	beq.n	8005ca4 <ai_buffer_fmt_valid+0x66>
 8005c86:	4a6b      	ldr	r2, [pc, #428]	; (8005e34 <.text_23>)
 8005c88:	1a89      	subs	r1, r1, r2
 8005c8a:	bf1f      	itttt	ne
 8005c8c:	0b80      	lsrne	r0, r0, #14
 8005c8e:	0380      	lslne	r0, r0, #14
 8005c90:	f040 0040 	orrne.w	r0, r0, #64	; 0x40
 8005c94:	2840      	cmpne	r0, #64	; 0x40
 8005c96:	d005      	beq.n	8005ca4 <ai_buffer_fmt_valid+0x66>
 8005c98:	4b62      	ldr	r3, [pc, #392]	; (8005e24 <.text_19>)
 8005c9a:	4298      	cmp	r0, r3
 8005c9c:	bf1c      	itt	ne
 8005c9e:	4b62      	ldrne	r3, [pc, #392]	; (8005e28 <.text_20>)
 8005ca0:	4298      	cmpne	r0, r3
 8005ca2:	d101      	bne.n	8005ca8 <ai_buffer_fmt_valid+0x6a>
 8005ca4:	2001      	movs	r0, #1
 8005ca6:	4770      	bx	lr
 8005ca8:	2000      	movs	r0, #0
 8005caa:	4770      	bx	lr

08005cac <ai_buffer_fmt_get_formats>:
 8005cac:	4962      	ldr	r1, [pc, #392]	; (8005e38 <.text_24>)
 8005cae:	6001      	str	r1, [r0, #0]
 8005cb0:	200c      	movs	r0, #12
 8005cb2:	4770      	bx	lr

08005cb4 <ai_array_to_buffer_fmt>:
 8005cb4:	4601      	mov	r1, r0
 8005cb6:	2040      	movs	r0, #64	; 0x40
 8005cb8:	f3c1 4243 	ubfx	r2, r1, #17, #4
 8005cbc:	2a02      	cmp	r2, #2
 8005cbe:	d104      	bne.n	8005cca <ai_array_to_buffer_fmt+0x16>
 8005cc0:	485e      	ldr	r0, [pc, #376]	; (8005e3c <.text_25>)
 8005cc2:	4008      	ands	r0, r1
 8005cc4:	f440 2080 	orr.w	r0, r0, #262144	; 0x40000
 8005cc8:	e037      	b.n	8005d3a <ai_array_to_buffer_fmt+0x86>
 8005cca:	f021 427e 	bic.w	r2, r1, #4261412864	; 0xfe000000
 8005cce:	4b55      	ldr	r3, [pc, #340]	; (8005e24 <.text_19>)
 8005cd0:	1ad2      	subs	r2, r2, r3
 8005cd2:	d02d      	beq.n	8005d30 <ai_array_to_buffer_fmt+0x7c>
 8005cd4:	f44f 6380 	mov.w	r3, #1024	; 0x400
 8005cd8:	1ad2      	subs	r2, r2, r3
 8005cda:	d01b      	beq.n	8005d14 <ai_array_to_buffer_fmt+0x60>
 8005cdc:	1fd2      	subs	r2, r2, #7
 8005cde:	d029      	beq.n	8005d34 <ai_array_to_buffer_fmt+0x80>
 8005ce0:	f240 33f9 	movw	r3, #1017	; 0x3f9
 8005ce4:	1ad2      	subs	r2, r2, r3
 8005ce6:	d017      	beq.n	8005d18 <ai_array_to_buffer_fmt+0x64>
 8005ce8:	3a0f      	subs	r2, #15
 8005cea:	d025      	beq.n	8005d38 <ai_array_to_buffer_fmt+0x84>
 8005cec:	4b50      	ldr	r3, [pc, #320]	; (8005e30 <.text_22>)
 8005cee:	1ad2      	subs	r2, r2, r3
 8005cf0:	d018      	beq.n	8005d24 <ai_array_to_buffer_fmt+0x70>
 8005cf2:	f44f 6380 	mov.w	r3, #1024	; 0x400
 8005cf6:	1ad2      	subs	r2, r2, r3
 8005cf8:	d010      	beq.n	8005d1c <ai_array_to_buffer_fmt+0x68>
 8005cfa:	1fd2      	subs	r2, r2, #7
 8005cfc:	d014      	beq.n	8005d28 <ai_array_to_buffer_fmt+0x74>
 8005cfe:	f240 33f9 	movw	r3, #1017	; 0x3f9
 8005d02:	1ad2      	subs	r2, r2, r3
 8005d04:	d00c      	beq.n	8005d20 <ai_array_to_buffer_fmt+0x6c>
 8005d06:	3a0f      	subs	r2, #15
 8005d08:	d010      	beq.n	8005d2c <ai_array_to_buffer_fmt+0x78>
 8005d0a:	4b4a      	ldr	r3, [pc, #296]	; (8005e34 <.text_23>)
 8005d0c:	1ad2      	subs	r2, r2, r3
 8005d0e:	d114      	bne.n	8005d3a <ai_array_to_buffer_fmt+0x86>
 8005d10:	484b      	ldr	r0, [pc, #300]	; (8005e40 <.text_26>)
 8005d12:	e012      	b.n	8005d3a <ai_array_to_buffer_fmt+0x86>
 8005d14:	484b      	ldr	r0, [pc, #300]	; (8005e44 <.text_27>)
 8005d16:	e010      	b.n	8005d3a <ai_array_to_buffer_fmt+0x86>
 8005d18:	484b      	ldr	r0, [pc, #300]	; (8005e48 <.text_28>)
 8005d1a:	e00e      	b.n	8005d3a <ai_array_to_buffer_fmt+0x86>
 8005d1c:	484b      	ldr	r0, [pc, #300]	; (8005e4c <.text_29>)
 8005d1e:	e00c      	b.n	8005d3a <ai_array_to_buffer_fmt+0x86>
 8005d20:	484b      	ldr	r0, [pc, #300]	; (8005e50 <.text_30>)
 8005d22:	e00a      	b.n	8005d3a <ai_array_to_buffer_fmt+0x86>
 8005d24:	4840      	ldr	r0, [pc, #256]	; (8005e28 <.text_20>)
 8005d26:	e008      	b.n	8005d3a <ai_array_to_buffer_fmt+0x86>
 8005d28:	484a      	ldr	r0, [pc, #296]	; (8005e54 <.text_31>)
 8005d2a:	e006      	b.n	8005d3a <ai_array_to_buffer_fmt+0x86>
 8005d2c:	484a      	ldr	r0, [pc, #296]	; (8005e58 <.text_32>)
 8005d2e:	e004      	b.n	8005d3a <ai_array_to_buffer_fmt+0x86>
 8005d30:	4618      	mov	r0, r3
 8005d32:	e002      	b.n	8005d3a <ai_array_to_buffer_fmt+0x86>
 8005d34:	4849      	ldr	r0, [pc, #292]	; (8005e5c <.text_33>)
 8005d36:	e000      	b.n	8005d3a <ai_array_to_buffer_fmt+0x86>
 8005d38:	4849      	ldr	r0, [pc, #292]	; (8005e60 <.text_34>)
 8005d3a:	004a      	lsls	r2, r1, #1
 8005d3c:	bf4c      	ite	mi
 8005d3e:	f04f 4280 	movmi.w	r2, #1073741824	; 0x40000000
 8005d42:	2200      	movpl	r2, #0
 8005d44:	4310      	orrs	r0, r2
 8005d46:	008a      	lsls	r2, r1, #2
 8005d48:	bf4c      	ite	mi
 8005d4a:	f04f 5200 	movmi.w	r2, #536870912	; 0x20000000
 8005d4e:	2200      	movpl	r2, #0
 8005d50:	4310      	orrs	r0, r2
 8005d52:	0109      	lsls	r1, r1, #4
 8005d54:	bf4c      	ite	mi
 8005d56:	f04f 6100 	movmi.w	r1, #134217728	; 0x8000000
 8005d5a:	2100      	movpl	r1, #0
 8005d5c:	4308      	orrs	r0, r1
 8005d5e:	4770      	bx	lr

08005d60 <ai_buffer_to_array_fmt>:
 8005d60:	4602      	mov	r2, r0
 8005d62:	f022 407e 	bic.w	r0, r2, #4261412864	; 0xfe000000
 8005d66:	3840      	subs	r0, #64	; 0x40
 8005d68:	d022      	beq.n	8005db0 <ai_buffer_to_array_fmt+0x50>
 8005d6a:	f44f 2180 	mov.w	r1, #262144	; 0x40000
 8005d6e:	1a40      	subs	r0, r0, r1
 8005d70:	d030      	beq.n	8005dd4 <ai_buffer_to_array_fmt+0x74>
 8005d72:	f44f 6180 	mov.w	r1, #1024	; 0x400
 8005d76:	1a40      	subs	r0, r0, r1
 8005d78:	d01e      	beq.n	8005db8 <ai_buffer_to_array_fmt+0x58>
 8005d7a:	1fc0      	subs	r0, r0, #7
 8005d7c:	d02c      	beq.n	8005dd8 <ai_buffer_to_array_fmt+0x78>
 8005d7e:	f240 31f9 	movw	r1, #1017	; 0x3f9
 8005d82:	1a40      	subs	r0, r0, r1
 8005d84:	d01a      	beq.n	8005dbc <ai_buffer_to_array_fmt+0x5c>
 8005d86:	380f      	subs	r0, #15
 8005d88:	d028      	beq.n	8005ddc <ai_buffer_to_array_fmt+0x7c>
 8005d8a:	4929      	ldr	r1, [pc, #164]	; (8005e30 <.text_22>)
 8005d8c:	1a40      	subs	r0, r0, r1
 8005d8e:	d01b      	beq.n	8005dc8 <ai_buffer_to_array_fmt+0x68>
 8005d90:	f44f 6180 	mov.w	r1, #1024	; 0x400
 8005d94:	1a40      	subs	r0, r0, r1
 8005d96:	d013      	beq.n	8005dc0 <ai_buffer_to_array_fmt+0x60>
 8005d98:	1fc0      	subs	r0, r0, #7
 8005d9a:	d017      	beq.n	8005dcc <ai_buffer_to_array_fmt+0x6c>
 8005d9c:	f240 31f9 	movw	r1, #1017	; 0x3f9
 8005da0:	1a40      	subs	r0, r0, r1
 8005da2:	d00f      	beq.n	8005dc4 <ai_buffer_to_array_fmt+0x64>
 8005da4:	380f      	subs	r0, #15
 8005da6:	d013      	beq.n	8005dd0 <ai_buffer_to_array_fmt+0x70>
 8005da8:	4922      	ldr	r1, [pc, #136]	; (8005e34 <.text_23>)
 8005daa:	1a40      	subs	r0, r0, r1
 8005dac:	d002      	beq.n	8005db4 <ai_buffer_to_array_fmt+0x54>
 8005dae:	e017      	b.n	8005de0 <ai_buffer_to_array_fmt+0x80>
 8005db0:	2040      	movs	r0, #64	; 0x40
 8005db2:	e01f      	b.n	8005df4 <ai_buffer_to_array_fmt+0x94>
 8005db4:	4822      	ldr	r0, [pc, #136]	; (8005e40 <.text_26>)
 8005db6:	e01d      	b.n	8005df4 <ai_buffer_to_array_fmt+0x94>
 8005db8:	4822      	ldr	r0, [pc, #136]	; (8005e44 <.text_27>)
 8005dba:	e01b      	b.n	8005df4 <ai_buffer_to_array_fmt+0x94>
 8005dbc:	4822      	ldr	r0, [pc, #136]	; (8005e48 <.text_28>)
 8005dbe:	e019      	b.n	8005df4 <ai_buffer_to_array_fmt+0x94>
 8005dc0:	4822      	ldr	r0, [pc, #136]	; (8005e4c <.text_29>)
 8005dc2:	e017      	b.n	8005df4 <ai_buffer_to_array_fmt+0x94>
 8005dc4:	4822      	ldr	r0, [pc, #136]	; (8005e50 <.text_30>)
 8005dc6:	e015      	b.n	8005df4 <ai_buffer_to_array_fmt+0x94>
 8005dc8:	4817      	ldr	r0, [pc, #92]	; (8005e28 <.text_20>)
 8005dca:	e013      	b.n	8005df4 <ai_buffer_to_array_fmt+0x94>
 8005dcc:	4821      	ldr	r0, [pc, #132]	; (8005e54 <.text_31>)
 8005dce:	e011      	b.n	8005df4 <ai_buffer_to_array_fmt+0x94>
 8005dd0:	4821      	ldr	r0, [pc, #132]	; (8005e58 <.text_32>)
 8005dd2:	e00f      	b.n	8005df4 <ai_buffer_to_array_fmt+0x94>
 8005dd4:	4813      	ldr	r0, [pc, #76]	; (8005e24 <.text_19>)
 8005dd6:	e00d      	b.n	8005df4 <ai_buffer_to_array_fmt+0x94>
 8005dd8:	4820      	ldr	r0, [pc, #128]	; (8005e5c <.text_33>)
 8005dda:	e00b      	b.n	8005df4 <ai_buffer_to_array_fmt+0x94>
 8005ddc:	4820      	ldr	r0, [pc, #128]	; (8005e60 <.text_34>)
 8005dde:	e009      	b.n	8005df4 <ai_buffer_to_array_fmt+0x94>
 8005de0:	f3c2 51c0 	ubfx	r1, r2, #23, #1
 8005de4:	f3c2 000d 	ubfx	r0, r2, #0, #14
 8005de8:	2900      	cmp	r1, #0
 8005dea:	bf14      	ite	ne
 8005dec:	f440 0004 	orrne.w	r0, r0, #8650752	; 0x840000
 8005df0:	f440 2080 	orreq.w	r0, r0, #262144	; 0x40000
 8005df4:	0051      	lsls	r1, r2, #1
 8005df6:	bf48      	it	mi
 8005df8:	f040 4080 	orrmi.w	r0, r0, #1073741824	; 0x40000000
 8005dfc:	0091      	lsls	r1, r2, #2
 8005dfe:	bf48      	it	mi
 8005e00:	f040 5000 	orrmi.w	r0, r0, #536870912	; 0x20000000
 8005e04:	0111      	lsls	r1, r2, #4
 8005e06:	bf48      	it	mi
 8005e08:	f040 6000 	orrmi.w	r0, r0, #134217728	; 0x8000000
 8005e0c:	4770      	bx	lr
	...

08005e10 <.text_14>:
 8005e10:	00000000 	.word	0x00000000

08005e14 <.text_15>:
 8005e14:	002be80f 	.word	0x002be80f

08005e18 <.text_16>:
 8005e18:	003bf7f1 	.word	0x003bf7f1

08005e1c <.text_17>:
 8005e1c:	00b9fff1 	.word	0x00b9fff1

08005e20 <.text_18>:
 8005e20:	004df000 	.word	0x004df000

08005e24 <.text_19>:
 8005e24:	00040040 	.word	0x00040040

08005e28 <.text_20>:
 8005e28:	00840040 	.word	0x00840040

08005e2c <.text_21>:
 8005e2c:	0800be7c 	.word	0x0800be7c

08005e30 <.text_22>:
 8005e30:	007ff7f1 	.word	0x007ff7f1

08005e34 <.text_23>:
 8005e34:	00fe07f1 	.word	0x00fe07f1

08005e38 <.text_24>:
 8005e38:	0800beec 	.word	0x0800beec

08005e3c <.text_25>:
 8005e3c:	00803fff 	.word	0x00803fff

08005e40 <.text_26>:
 8005e40:	01821040 	.word	0x01821040

08005e44 <.text_27>:
 8005e44:	00040440 	.word	0x00040440

08005e48 <.text_28>:
 8005e48:	00040840 	.word	0x00040840

08005e4c <.text_29>:
 8005e4c:	00840440 	.word	0x00840440

08005e50 <.text_30>:
 8005e50:	00840840 	.word	0x00840840

08005e54 <.text_31>:
 8005e54:	00840447 	.word	0x00840447

08005e58 <.text_32>:
 8005e58:	0084084f 	.word	0x0084084f

08005e5c <.text_33>:
 8005e5c:	00040447 	.word	0x00040447

08005e60 <.text_34>:
 8005e60:	0004084f 	.word	0x0004084f

08005e64 <ai_array_get_byte_size>:
 8005e64:	b909      	cbnz	r1, 8005e6a <ai_array_get_byte_size+0x6>
 8005e66:	2000      	movs	r0, #0
 8005e68:	4770      	bx	lr
 8005e6a:	11c2      	asrs	r2, r0, #7
 8005e6c:	f002 027f 	and.w	r2, r2, #127	; 0x7f
 8005e70:	f3c0 3382 	ubfx	r3, r0, #14, #3
 8005e74:	189b      	adds	r3, r3, r2
 8005e76:	4359      	muls	r1, r3
 8005e78:	1dc9      	adds	r1, r1, #7
 8005e7a:	08c9      	lsrs	r1, r1, #3
 8005e7c:	1543      	asrs	r3, r0, #21
 8005e7e:	00c9      	lsls	r1, r1, #3
 8005e80:	f003 0303 	and.w	r3, r3, #3
 8005e84:	ea4f 4c60 	mov.w	ip, r0, asr #17
 8005e88:	40d9      	lsrs	r1, r3
 8005e8a:	f00c 0c0f 	and.w	ip, ip, #15
 8005e8e:	f1bc 0f04 	cmp.w	ip, #4
 8005e92:	d00a      	beq.n	8005eaa <ai_array_get_byte_size+0x46>
 8005e94:	f1bc 0f08 	cmp.w	ip, #8
 8005e98:	bf02      	ittt	eq
 8005e9a:	f3c0 3082 	ubfxeq	r0, r0, #14, #3
 8005e9e:	1882      	addeq	r2, r0, r2
 8005ea0:	eb01 2102 	addeq.w	r1, r1, r2, lsl #8
 8005ea4:	1dc9      	adds	r1, r1, #7
 8005ea6:	08c8      	lsrs	r0, r1, #3
 8005ea8:	4770      	bx	lr
 8005eaa:	f3c0 3082 	ubfx	r0, r0, #14, #3
 8005eae:	1882      	adds	r2, r0, r2
 8005eb0:	eb01 1102 	add.w	r1, r1, r2, lsl #4
 8005eb4:	1dc9      	adds	r1, r1, #7
 8005eb6:	08c8      	lsrs	r0, r1, #3
 8005eb8:	4770      	bx	lr

08005eba <ai_array_get_data_byte_size>:
 8005eba:	b909      	cbnz	r1, 8005ec0 <ai_array_get_data_byte_size+0x6>
 8005ebc:	2000      	movs	r0, #0
 8005ebe:	4770      	bx	lr
 8005ec0:	11c2      	asrs	r2, r0, #7
 8005ec2:	f002 027f 	and.w	r2, r2, #127	; 0x7f
 8005ec6:	f3c0 3382 	ubfx	r3, r0, #14, #3
 8005eca:	189a      	adds	r2, r3, r2
 8005ecc:	4351      	muls	r1, r2
 8005ece:	1dc9      	adds	r1, r1, #7
 8005ed0:	08c9      	lsrs	r1, r1, #3
 8005ed2:	1540      	asrs	r0, r0, #21
 8005ed4:	00c9      	lsls	r1, r1, #3
 8005ed6:	f000 0003 	and.w	r0, r0, #3
 8005eda:	40c1      	lsrs	r1, r0
 8005edc:	1dc9      	adds	r1, r1, #7
 8005ede:	08c8      	lsrs	r0, r1, #3
 8005ee0:	4770      	bx	lr

08005ee2 <ai_array_get_elems_from_size>:
 8005ee2:	b909      	cbnz	r1, 8005ee8 <ai_array_get_elems_from_size+0x6>
 8005ee4:	2000      	movs	r0, #0
 8005ee6:	4770      	bx	lr
 8005ee8:	1442      	asrs	r2, r0, #17
 8005eea:	00c9      	lsls	r1, r1, #3
 8005eec:	f002 020f 	and.w	r2, r2, #15
 8005ef0:	2a04      	cmp	r2, #4
 8005ef2:	d002      	beq.n	8005efa <ai_array_get_elems_from_size+0x18>
 8005ef4:	2a08      	cmp	r2, #8
 8005ef6:	d009      	beq.n	8005f0c <ai_array_get_elems_from_size+0x2a>
 8005ef8:	e010      	b.n	8005f1c <ai_array_get_elems_from_size+0x3a>
 8005efa:	11c3      	asrs	r3, r0, #7
 8005efc:	f003 037f 	and.w	r3, r3, #127	; 0x7f
 8005f00:	f3c0 3282 	ubfx	r2, r0, #14, #3
 8005f04:	18d2      	adds	r2, r2, r3
 8005f06:	eba1 1102 	sub.w	r1, r1, r2, lsl #4
 8005f0a:	e007      	b.n	8005f1c <ai_array_get_elems_from_size+0x3a>
 8005f0c:	11c2      	asrs	r2, r0, #7
 8005f0e:	f002 027f 	and.w	r2, r2, #127	; 0x7f
 8005f12:	f3c0 3382 	ubfx	r3, r0, #14, #3
 8005f16:	189a      	adds	r2, r3, r2
 8005f18:	eba1 2102 	sub.w	r1, r1, r2, lsl #8
 8005f1c:	1542      	asrs	r2, r0, #21
 8005f1e:	f002 0203 	and.w	r2, r2, #3
 8005f22:	4091      	lsls	r1, r2
 8005f24:	1dc9      	adds	r1, r1, #7
 8005f26:	11c2      	asrs	r2, r0, #7
 8005f28:	08c9      	lsrs	r1, r1, #3
 8005f2a:	f002 027f 	and.w	r2, r2, #127	; 0x7f
 8005f2e:	f3c0 3082 	ubfx	r0, r0, #14, #3
 8005f32:	00c9      	lsls	r1, r1, #3
 8005f34:	1880      	adds	r0, r0, r2
 8005f36:	fbb1 f0f0 	udiv	r0, r1, r0
 8005f3a:	4770      	bx	lr

08005f3c <.text_38>:
 8005f3c:	5f544d46 	.word	0x5f544d46
 8005f40:	454e4f4e 	.word	0x454e4f4e
 8005f44:	00          	.byte	0x00
 8005f45:	00          	.byte	0x00
	...

08005f48 <.text_39>:
 8005f48:	5f544d46 	.word	0x5f544d46
 8005f4c:	414f4c46 	.word	0x414f4c46
 8005f50:	0054      	.short	0x0054
	...

08005f54 <.text_40>:
 8005f54:	5f544d46 	.word	0x5f544d46
 8005f58:	414f4c46 	.word	0x414f4c46
 8005f5c:	00343654 	.word	0x00343654

08005f60 <.text_41>:
 8005f60:	5f544d46 	.word	0x5f544d46
 8005f64:	414f4c46 	.word	0x414f4c46
 8005f68:	00363154 	.word	0x00363154

08005f6c <.text_42>:
 8005f6c:	5f544d46 	.word	0x5f544d46
 8005f70:	00003855 	.word	0x00003855

08005f74 <.text_43>:
 8005f74:	5f544d46 	.word	0x5f544d46
 8005f78:	00363155 	.word	0x00363155

08005f7c <.text_44>:
 8005f7c:	5f544d46 	.word	0x5f544d46
 8005f80:	00323355 	.word	0x00323355

08005f84 <.text_45>:
 8005f84:	5f544d46 	.word	0x5f544d46
 8005f88:	00343655 	.word	0x00343655

08005f8c <.text_46>:
 8005f8c:	5f544d46 	.word	0x5f544d46
 8005f90:	00003455 	.word	0x00003455

08005f94 <.text_47>:
 8005f94:	5f544d46 	.word	0x5f544d46
 8005f98:	00003853 	.word	0x00003853

08005f9c <.text_48>:
 8005f9c:	5f544d46 	.word	0x5f544d46
 8005fa0:	00363153 	.word	0x00363153

08005fa4 <.text_49>:
 8005fa4:	5f544d46 	.word	0x5f544d46
 8005fa8:	00323353 	.word	0x00323353

08005fac <.text_50>:
 8005fac:	5f544d46 	.word	0x5f544d46
 8005fb0:	00343653 	.word	0x00343653

08005fb4 <.text_51>:
 8005fb4:	5f544d46 	.word	0x5f544d46
 8005fb8:	00003453 	.word	0x00003453

08005fbc <.text_52>:
 8005fbc:	5f544d46 	.word	0x5f544d46
 8005fc0:	0051      	.short	0x0051
	...

08005fc4 <.text_53>:
 8005fc4:	5f544d46 	.word	0x5f544d46
 8005fc8:	00003751 	.word	0x00003751

08005fcc <.text_54>:
 8005fcc:	5f544d46 	.word	0x5f544d46
 8005fd0:	00353151 	.word	0x00353151

08005fd4 <.text_55>:
 8005fd4:	5f544d46 	.word	0x5f544d46
 8005fd8:	00313351 	.word	0x00313351

08005fdc <.text_56>:
 8005fdc:	5f544d46 	.word	0x5f544d46
 8005fe0:	00005155 	.word	0x00005155

08005fe4 <.text_57>:
 8005fe4:	5f544d46 	.word	0x5f544d46
 8005fe8:	00375155 	.word	0x00375155

08005fec <.text_58>:
 8005fec:	5f544d46 	.word	0x5f544d46
 8005ff0:	35315155 	.word	0x35315155
 8005ff4:	00          	.byte	0x00
 8005ff5:	00          	.byte	0x00
	...

08005ff8 <.text_59>:
 8005ff8:	5f544d46 	.word	0x5f544d46
 8005ffc:	31335155 	.word	0x31335155
 8006000:	00          	.byte	0x00
 8006001:	00          	.byte	0x00
	...

08006004 <.text_60>:
 8006004:	5f544d46 	.word	0x5f544d46
 8006008:	3454554c 	.word	0x3454554c
 800600c:	4f4c465f 	.word	0x4f4c465f
 8006010:	00005441 	.word	0x00005441

08006014 <.text_61>:
 8006014:	5f544d46 	.word	0x5f544d46
 8006018:	3854554c 	.word	0x3854554c
 800601c:	4f4c465f 	.word	0x4f4c465f
 8006020:	00005441 	.word	0x00005441

08006024 <.text_62>:
 8006024:	5f544d46 	.word	0x5f544d46
 8006028:	3454554c 	.word	0x3454554c
 800602c:	3531515f 	.word	0x3531515f
 8006030:	00          	.byte	0x00
 8006031:	00          	.byte	0x00
	...

08006034 <.text_63>:
 8006034:	5f544d46 	.word	0x5f544d46
 8006038:	3854554c 	.word	0x3854554c
 800603c:	3531515f 	.word	0x3531515f
 8006040:	00          	.byte	0x00
 8006041:	00          	.byte	0x00
	...

08006044 <.text_64>:
 8006044:	5f544d46 	.word	0x5f544d46
 8006048:	3454554c 	.word	0x3454554c
 800604c:	3151555f 	.word	0x3151555f
 8006050:	0035      	.short	0x0035
	...

08006054 <.text_65>:
 8006054:	5f544d46 	.word	0x5f544d46
 8006058:	3854554c 	.word	0x3854554c
 800605c:	3151555f 	.word	0x3151555f
 8006060:	0035      	.short	0x0035
	...

08006064 <.text_66>:
 8006064:	415f4941 	.word	0x415f4941
 8006068:	59415252 	.word	0x59415252
 800606c:	524f465f 	.word	0x524f465f
 8006070:	5f54414d 	.word	0x5f54414d
 8006074:	454e4f4e 	.word	0x454e4f4e
 8006078:	00          	.byte	0x00
 8006079:	00          	.byte	0x00
	...

0800607c <.text_67>:
 800607c:	415f4941 	.word	0x415f4941
 8006080:	59415252 	.word	0x59415252
 8006084:	524f465f 	.word	0x524f465f
 8006088:	5f54414d 	.word	0x5f54414d
 800608c:	0051      	.short	0x0051
	...

08006090 <.text_68>:
 8006090:	415f4941 	.word	0x415f4941
 8006094:	59415252 	.word	0x59415252
 8006098:	524f465f 	.word	0x524f465f
 800609c:	5f54414d 	.word	0x5f54414d
 80060a0:	00005155 	.word	0x00005155

080060a4 <.text_69>:
 80060a4:	425f4941 	.word	0x425f4941
 80060a8:	45464655 	.word	0x45464655
 80060ac:	4f465f52 	.word	0x4f465f52
 80060b0:	54414d52 	.word	0x54414d52
 80060b4:	4e4f4e5f 	.word	0x4e4f4e5f
 80060b8:	0045      	.short	0x0045
	...

080060bc <.text_70>:
 80060bc:	425f4941 	.word	0x425f4941
 80060c0:	45464655 	.word	0x45464655
 80060c4:	4f465f52 	.word	0x4f465f52
 80060c8:	54414d52 	.word	0x54414d52
 80060cc:	0000515f 	.word	0x0000515f

080060d0 <.text_71>:
 80060d0:	425f4941 	.word	0x425f4941
 80060d4:	45464655 	.word	0x45464655
 80060d8:	4f465f52 	.word	0x4f465f52
 80060dc:	54414d52 	.word	0x54414d52
 80060e0:	0051555f 	.word	0x0051555f

080060e4 <ai_math_sqrt>:
 80060e4:	eef0 0a40 	vmov.f32	s1, s0
 80060e8:	eef5 0a40 	vcmp.f32	s1, #0.0
 80060ec:	eef1 fa10 	vmrs	APSR_nzcv, fpscr
 80060f0:	ed9f 0a29 	vldr	s0, [pc, #164]	; 8006198 <.text_12>
 80060f4:	db01      	blt.n	80060fa <ai_math_sqrt+0x16>
 80060f6:	eeb1 0ae0 	vsqrt.f32	s0, s1
 80060fa:	4770      	bx	lr

080060fc <ai_math_exp>:
 80060fc:	f003 bbd8 	b.w	80098b0 <expf>

08006100 <ai_math_pow>:
 8006100:	f003 bd22 	b.w	8009b48 <powf>

08006104 <ai_math_tanh>:
 8006104:	f003 b9ae 	b.w	8009464 <tanhf>

08006108 <ai_math_cosh>:
 8006108:	f003 bb72 	b.w	80097f0 <coshf>

0800610c <ai_math_relu>:
 800610c:	eeb5 0a40 	vcmp.f32	s0, #0.0
 8006110:	eef1 fa10 	vmrs	APSR_nzcv, fpscr
 8006114:	bf48      	it	mi
 8006116:	ed9f 0a20 	vldrmi	s0, [pc, #128]	; 8006198 <.text_12>
 800611a:	4770      	bx	lr

0800611c <ai_math_prelu>:
 800611c:	eeb5 0a40 	vcmp.f32	s0, #0.0
 8006120:	eef1 fa10 	vmrs	APSR_nzcv, fpscr
 8006124:	bf48      	it	mi
 8006126:	ee20 0a20 	vmulmi.f32	s0, s0, s1
 800612a:	4770      	bx	lr

0800612c <ai_math_sigmoid>:
 800612c:	b500      	push	{lr}
 800612e:	b081      	sub	sp, #4
 8006130:	eeb1 0a40 	vneg.f32	s0, s0
 8006134:	f003 fbbc 	bl	80098b0 <expf>
 8006138:	eef7 0a00 	vmov.f32	s1, #112	; 0x3f800000  1.0
 800613c:	ee30 0a20 	vadd.f32	s0, s0, s1
 8006140:	eeb7 1a00 	vmov.f32	s2, #112	; 0x3f800000  1.0
 8006144:	ee81 0a00 	vdiv.f32	s0, s2, s0
 8006148:	b001      	add	sp, #4
 800614a:	bd00      	pop	{pc}

0800614c <ai_math_hard_sigmoid>:
 800614c:	eef0 0a40 	vmov.f32	s1, s0
 8006150:	ed9f 1a12 	vldr	s2, [pc, #72]	; 800619c <.text_13>
 8006154:	eeb6 0a00 	vmov.f32	s0, #96	; 0x3f000000  0.5
 8006158:	ee00 0a81 	vmla.f32	s0, s1, s2
 800615c:	eddf 0a10 	vldr	s1, [pc, #64]	; 80061a0 <.text_14>
 8006160:	eeb4 0a60 	vcmp.f32	s0, s1
 8006164:	eef1 fa10 	vmrs	APSR_nzcv, fpscr
 8006168:	da07      	bge.n	800617a <ai_math_hard_sigmoid+0x2e>
 800616a:	eeb5 0a40 	vcmp.f32	s0, #0.0
 800616e:	eef1 fa10 	vmrs	APSR_nzcv, fpscr
 8006172:	d504      	bpl.n	800617e <ai_math_hard_sigmoid+0x32>
 8006174:	ed9f 0a08 	vldr	s0, [pc, #32]	; 8006198 <.text_12>
 8006178:	4770      	bx	lr
 800617a:	eeb7 0a00 	vmov.f32	s0, #112	; 0x3f800000  1.0
 800617e:	4770      	bx	lr

08006180 <ai_math_sign>:
 8006180:	eeb5 0a40 	vcmp.f32	s0, #0.0
 8006184:	eef1 fa10 	vmrs	APSR_nzcv, fpscr
 8006188:	bfcc      	ite	gt
 800618a:	ed9f 0a06 	vldrgt	s0, [pc, #24]	; 80061a4 <.text_15>
 800618e:	ed9f 0a06 	vldrle	s0, [pc, #24]	; 80061a8 <.text_16>
 8006192:	eeb8 0ac0 	vcvt.f32.s32	s0, s0
 8006196:	4770      	bx	lr

08006198 <.text_12>:
 8006198:	00000000 	.word	0x00000000

0800619c <.text_13>:
 800619c:	3e4ccccd 	.word	0x3e4ccccd

080061a0 <.text_14>:
 80061a0:	3f800001 	.word	0x3f800001

080061a4 <.text_15>:
 80061a4:	00000001 	.word	0x00000001

080061a8 <.text_16>:
 80061a8:	ffffffff 	.word	0xffffffff

080061ac <ai_div>:
 80061ac:	ee80 0a20 	vdiv.f32	s0, s0, s1
 80061b0:	4770      	bx	lr

080061b2 <ai_floor_div>:
 80061b2:	ee80 0a20 	vdiv.f32	s0, s0, s1
 80061b6:	f002 bf7b 	b.w	80090b0 <floorf>

080061ba <ai_floor_mod>:
 80061ba:	f003 bbf3 	b.w	80099a4 <fmodf>

080061be <ai_max>:
 80061be:	eef4 0a40 	vcmp.f32	s1, s0
 80061c2:	eef1 fa10 	vmrs	APSR_nzcv, fpscr
 80061c6:	bf58      	it	pl
 80061c8:	eeb0 0a60 	vmovpl.f32	s0, s1
 80061cc:	4770      	bx	lr

080061ce <ai_min>:
 80061ce:	eeb4 0a60 	vcmp.f32	s0, s1
 80061d2:	eef1 fa10 	vmrs	APSR_nzcv, fpscr
 80061d6:	bf58      	it	pl
 80061d8:	eeb0 0a60 	vmovpl.f32	s0, s1
 80061dc:	4770      	bx	lr

080061de <ai_mul>:
 80061de:	ee20 0a20 	vmul.f32	s0, s0, s1
 80061e2:	4770      	bx	lr

080061e4 <ai_sub>:
 80061e4:	ee30 0a60 	vsub.f32	s0, s0, s1
 80061e8:	4770      	bx	lr

080061ea <ai_sum>:
 80061ea:	ee30 0a20 	vadd.f32	s0, s0, s1
 80061ee:	4770      	bx	lr

080061f0 <arm_mat_init_f32>:
 80061f0:	8001      	strh	r1, [r0, #0]
 80061f2:	8042      	strh	r2, [r0, #2]
 80061f4:	6043      	str	r3, [r0, #4]
 80061f6:	4770      	bx	lr

080061f8 <__aeabi_memset>:
 80061f8:	b470      	push	{r4, r5, r6}
 80061fa:	0784      	lsls	r4, r0, #30
 80061fc:	d046      	beq.n	800628c <__aeabi_memset+0x94>
 80061fe:	1e4c      	subs	r4, r1, #1
 8006200:	2900      	cmp	r1, #0
 8006202:	d041      	beq.n	8006288 <__aeabi_memset+0x90>
 8006204:	b2d5      	uxtb	r5, r2
 8006206:	4603      	mov	r3, r0
 8006208:	e002      	b.n	8006210 <__aeabi_memset+0x18>
 800620a:	1e61      	subs	r1, r4, #1
 800620c:	b3e4      	cbz	r4, 8006288 <__aeabi_memset+0x90>
 800620e:	460c      	mov	r4, r1
 8006210:	f803 5b01 	strb.w	r5, [r3], #1
 8006214:	0799      	lsls	r1, r3, #30
 8006216:	d1f8      	bne.n	800620a <__aeabi_memset+0x12>
 8006218:	2c03      	cmp	r4, #3
 800621a:	d92e      	bls.n	800627a <__aeabi_memset+0x82>
 800621c:	b2d5      	uxtb	r5, r2
 800621e:	ea45 2505 	orr.w	r5, r5, r5, lsl #8
 8006222:	2c0f      	cmp	r4, #15
 8006224:	ea45 4505 	orr.w	r5, r5, r5, lsl #16
 8006228:	d919      	bls.n	800625e <__aeabi_memset+0x66>
 800622a:	4626      	mov	r6, r4
 800622c:	f103 0110 	add.w	r1, r3, #16
 8006230:	3e10      	subs	r6, #16
 8006232:	2e0f      	cmp	r6, #15
 8006234:	f841 5c10 	str.w	r5, [r1, #-16]
 8006238:	f841 5c0c 	str.w	r5, [r1, #-12]
 800623c:	f841 5c08 	str.w	r5, [r1, #-8]
 8006240:	f841 5c04 	str.w	r5, [r1, #-4]
 8006244:	f101 0110 	add.w	r1, r1, #16
 8006248:	d8f2      	bhi.n	8006230 <__aeabi_memset+0x38>
 800624a:	f1a4 0110 	sub.w	r1, r4, #16
 800624e:	f021 010f 	bic.w	r1, r1, #15
 8006252:	f004 040f 	and.w	r4, r4, #15
 8006256:	3110      	adds	r1, #16
 8006258:	2c03      	cmp	r4, #3
 800625a:	440b      	add	r3, r1
 800625c:	d90d      	bls.n	800627a <__aeabi_memset+0x82>
 800625e:	461e      	mov	r6, r3
 8006260:	4621      	mov	r1, r4
 8006262:	3904      	subs	r1, #4
 8006264:	2903      	cmp	r1, #3
 8006266:	f846 5b04 	str.w	r5, [r6], #4
 800626a:	d8fa      	bhi.n	8006262 <__aeabi_memset+0x6a>
 800626c:	1f21      	subs	r1, r4, #4
 800626e:	f021 0103 	bic.w	r1, r1, #3
 8006272:	3104      	adds	r1, #4
 8006274:	440b      	add	r3, r1
 8006276:	f004 0403 	and.w	r4, r4, #3
 800627a:	b12c      	cbz	r4, 8006288 <__aeabi_memset+0x90>
 800627c:	b2d2      	uxtb	r2, r2
 800627e:	441c      	add	r4, r3
 8006280:	f803 2b01 	strb.w	r2, [r3], #1
 8006284:	42a3      	cmp	r3, r4
 8006286:	d1fb      	bne.n	8006280 <__aeabi_memset+0x88>
 8006288:	bc70      	pop	{r4, r5, r6}
 800628a:	4770      	bx	lr
 800628c:	460c      	mov	r4, r1
 800628e:	4603      	mov	r3, r0
 8006290:	e7c2      	b.n	8006218 <__aeabi_memset+0x20>

08006292 <strlen>:
 8006292:	4603      	mov	r3, r0
 8006294:	f813 2b01 	ldrb.w	r2, [r3], #1
 8006298:	2a00      	cmp	r2, #0
 800629a:	d1fb      	bne.n	8006294 <strlen+0x2>
 800629c:	1a18      	subs	r0, r3, r0
 800629e:	3801      	subs	r0, #1
 80062a0:	4770      	bx	lr
	...

080062a4 <__aeabi_drsub>:
 80062a4:	f081 4100 	eor.w	r1, r1, #2147483648	; 0x80000000
 80062a8:	e002      	b.n	80062b0 <__adddf3>
 80062aa:	bf00      	nop

080062ac <__aeabi_dsub>:
 80062ac:	f083 4300 	eor.w	r3, r3, #2147483648	; 0x80000000

080062b0 <__adddf3>:
 80062b0:	b530      	push	{r4, r5, lr}
 80062b2:	ea4f 0441 	mov.w	r4, r1, lsl #1
 80062b6:	ea4f 0543 	mov.w	r5, r3, lsl #1
 80062ba:	ea94 0f05 	teq	r4, r5
 80062be:	bf08      	it	eq
 80062c0:	ea90 0f02 	teqeq	r0, r2
 80062c4:	bf1f      	itttt	ne
 80062c6:	ea54 0c00 	orrsne.w	ip, r4, r0
 80062ca:	ea55 0c02 	orrsne.w	ip, r5, r2
 80062ce:	ea7f 5c64 	mvnsne.w	ip, r4, asr #21
 80062d2:	ea7f 5c65 	mvnsne.w	ip, r5, asr #21
 80062d6:	f000 80e2 	beq.w	800649e <__adddf3+0x1ee>
 80062da:	ea4f 5454 	mov.w	r4, r4, lsr #21
 80062de:	ebd4 5555 	rsbs	r5, r4, r5, lsr #21
 80062e2:	bfb8      	it	lt
 80062e4:	426d      	neglt	r5, r5
 80062e6:	dd0c      	ble.n	8006302 <__adddf3+0x52>
 80062e8:	442c      	add	r4, r5
 80062ea:	ea80 0202 	eor.w	r2, r0, r2
 80062ee:	ea81 0303 	eor.w	r3, r1, r3
 80062f2:	ea82 0000 	eor.w	r0, r2, r0
 80062f6:	ea83 0101 	eor.w	r1, r3, r1
 80062fa:	ea80 0202 	eor.w	r2, r0, r2
 80062fe:	ea81 0303 	eor.w	r3, r1, r3
 8006302:	2d36      	cmp	r5, #54	; 0x36
 8006304:	bf88      	it	hi
 8006306:	bd30      	pophi	{r4, r5, pc}
 8006308:	f011 4f00 	tst.w	r1, #2147483648	; 0x80000000
 800630c:	ea4f 3101 	mov.w	r1, r1, lsl #12
 8006310:	f44f 1c80 	mov.w	ip, #1048576	; 0x100000
 8006314:	ea4c 3111 	orr.w	r1, ip, r1, lsr #12
 8006318:	d002      	beq.n	8006320 <__adddf3+0x70>
 800631a:	4240      	negs	r0, r0
 800631c:	eb61 0141 	sbc.w	r1, r1, r1, lsl #1
 8006320:	f013 4f00 	tst.w	r3, #2147483648	; 0x80000000
 8006324:	ea4f 3303 	mov.w	r3, r3, lsl #12
 8006328:	ea4c 3313 	orr.w	r3, ip, r3, lsr #12
 800632c:	d002      	beq.n	8006334 <__adddf3+0x84>
 800632e:	4252      	negs	r2, r2
 8006330:	eb63 0343 	sbc.w	r3, r3, r3, lsl #1
 8006334:	ea94 0f05 	teq	r4, r5
 8006338:	f000 80a7 	beq.w	800648a <__adddf3+0x1da>
 800633c:	f1a4 0401 	sub.w	r4, r4, #1
 8006340:	f1d5 0e20 	rsbs	lr, r5, #32
 8006344:	db0d      	blt.n	8006362 <__adddf3+0xb2>
 8006346:	fa02 fc0e 	lsl.w	ip, r2, lr
 800634a:	fa22 f205 	lsr.w	r2, r2, r5
 800634e:	1880      	adds	r0, r0, r2
 8006350:	f141 0100 	adc.w	r1, r1, #0
 8006354:	fa03 f20e 	lsl.w	r2, r3, lr
 8006358:	1880      	adds	r0, r0, r2
 800635a:	fa43 f305 	asr.w	r3, r3, r5
 800635e:	4159      	adcs	r1, r3
 8006360:	e00e      	b.n	8006380 <__adddf3+0xd0>
 8006362:	f1a5 0520 	sub.w	r5, r5, #32
 8006366:	f10e 0e20 	add.w	lr, lr, #32
 800636a:	2a01      	cmp	r2, #1
 800636c:	fa03 fc0e 	lsl.w	ip, r3, lr
 8006370:	bf28      	it	cs
 8006372:	f04c 0c02 	orrcs.w	ip, ip, #2
 8006376:	fa43 f305 	asr.w	r3, r3, r5
 800637a:	18c0      	adds	r0, r0, r3
 800637c:	eb51 71e3 	adcs.w	r1, r1, r3, asr #31
 8006380:	f001 4500 	and.w	r5, r1, #2147483648	; 0x80000000
 8006384:	d507      	bpl.n	8006396 <__adddf3+0xe6>
 8006386:	f04f 0e00 	mov.w	lr, #0
 800638a:	f1dc 0c00 	rsbs	ip, ip, #0
 800638e:	eb7e 0000 	sbcs.w	r0, lr, r0
 8006392:	eb6e 0101 	sbc.w	r1, lr, r1
 8006396:	f5b1 1f80 	cmp.w	r1, #1048576	; 0x100000
 800639a:	d31b      	bcc.n	80063d4 <__adddf3+0x124>
 800639c:	f5b1 1f00 	cmp.w	r1, #2097152	; 0x200000
 80063a0:	d30c      	bcc.n	80063bc <__adddf3+0x10c>
 80063a2:	0849      	lsrs	r1, r1, #1
 80063a4:	ea5f 0030 	movs.w	r0, r0, rrx
 80063a8:	ea4f 0c3c 	mov.w	ip, ip, rrx
 80063ac:	f104 0401 	add.w	r4, r4, #1
 80063b0:	ea4f 5244 	mov.w	r2, r4, lsl #21
 80063b4:	f512 0f80 	cmn.w	r2, #4194304	; 0x400000
 80063b8:	f080 809a 	bcs.w	80064f0 <__adddf3+0x240>
 80063bc:	f1bc 4f00 	cmp.w	ip, #2147483648	; 0x80000000
 80063c0:	bf08      	it	eq
 80063c2:	ea5f 0c50 	movseq.w	ip, r0, lsr #1
 80063c6:	f150 0000 	adcs.w	r0, r0, #0
 80063ca:	eb41 5104 	adc.w	r1, r1, r4, lsl #20
 80063ce:	ea41 0105 	orr.w	r1, r1, r5
 80063d2:	bd30      	pop	{r4, r5, pc}
 80063d4:	ea5f 0c4c 	movs.w	ip, ip, lsl #1
 80063d8:	4140      	adcs	r0, r0
 80063da:	eb41 0101 	adc.w	r1, r1, r1
 80063de:	f411 1f80 	tst.w	r1, #1048576	; 0x100000
 80063e2:	f1a4 0401 	sub.w	r4, r4, #1
 80063e6:	d1e9      	bne.n	80063bc <__adddf3+0x10c>
 80063e8:	f091 0f00 	teq	r1, #0
 80063ec:	bf04      	itt	eq
 80063ee:	4601      	moveq	r1, r0
 80063f0:	2000      	moveq	r0, #0
 80063f2:	fab1 f381 	clz	r3, r1
 80063f6:	bf08      	it	eq
 80063f8:	3320      	addeq	r3, #32
 80063fa:	f1a3 030b 	sub.w	r3, r3, #11
 80063fe:	f1b3 0220 	subs.w	r2, r3, #32
 8006402:	da0c      	bge.n	800641e <__adddf3+0x16e>
 8006404:	320c      	adds	r2, #12
 8006406:	dd08      	ble.n	800641a <__adddf3+0x16a>
 8006408:	f102 0c14 	add.w	ip, r2, #20
 800640c:	f1c2 020c 	rsb	r2, r2, #12
 8006410:	fa01 f00c 	lsl.w	r0, r1, ip
 8006414:	fa21 f102 	lsr.w	r1, r1, r2
 8006418:	e00c      	b.n	8006434 <__adddf3+0x184>
 800641a:	f102 0214 	add.w	r2, r2, #20
 800641e:	bfd8      	it	le
 8006420:	f1c2 0c20 	rsble	ip, r2, #32
 8006424:	fa01 f102 	lsl.w	r1, r1, r2
 8006428:	fa20 fc0c 	lsr.w	ip, r0, ip
 800642c:	bfdc      	itt	le
 800642e:	ea41 010c 	orrle.w	r1, r1, ip
 8006432:	4090      	lslle	r0, r2
 8006434:	1ae4      	subs	r4, r4, r3
 8006436:	bfa2      	ittt	ge
 8006438:	eb01 5104 	addge.w	r1, r1, r4, lsl #20
 800643c:	4329      	orrge	r1, r5
 800643e:	bd30      	popge	{r4, r5, pc}
 8006440:	ea6f 0404 	mvn.w	r4, r4
 8006444:	3c1f      	subs	r4, #31
 8006446:	da1c      	bge.n	8006482 <__adddf3+0x1d2>
 8006448:	340c      	adds	r4, #12
 800644a:	dc0e      	bgt.n	800646a <__adddf3+0x1ba>
 800644c:	f104 0414 	add.w	r4, r4, #20
 8006450:	f1c4 0220 	rsb	r2, r4, #32
 8006454:	fa20 f004 	lsr.w	r0, r0, r4
 8006458:	fa01 f302 	lsl.w	r3, r1, r2
 800645c:	ea40 0003 	orr.w	r0, r0, r3
 8006460:	fa21 f304 	lsr.w	r3, r1, r4
 8006464:	ea45 0103 	orr.w	r1, r5, r3
 8006468:	bd30      	pop	{r4, r5, pc}
 800646a:	f1c4 040c 	rsb	r4, r4, #12
 800646e:	f1c4 0220 	rsb	r2, r4, #32
 8006472:	fa20 f002 	lsr.w	r0, r0, r2
 8006476:	fa01 f304 	lsl.w	r3, r1, r4
 800647a:	ea40 0003 	orr.w	r0, r0, r3
 800647e:	4629      	mov	r1, r5
 8006480:	bd30      	pop	{r4, r5, pc}
 8006482:	fa21 f004 	lsr.w	r0, r1, r4
 8006486:	4629      	mov	r1, r5
 8006488:	bd30      	pop	{r4, r5, pc}
 800648a:	f094 0f00 	teq	r4, #0
 800648e:	f483 1380 	eor.w	r3, r3, #1048576	; 0x100000
 8006492:	bf06      	itte	eq
 8006494:	f481 1180 	eoreq.w	r1, r1, #1048576	; 0x100000
 8006498:	3401      	addeq	r4, #1
 800649a:	3d01      	subne	r5, #1
 800649c:	e74e      	b.n	800633c <__adddf3+0x8c>
 800649e:	ea7f 5c64 	mvns.w	ip, r4, asr #21
 80064a2:	bf18      	it	ne
 80064a4:	ea7f 5c65 	mvnsne.w	ip, r5, asr #21
 80064a8:	d029      	beq.n	80064fe <__adddf3+0x24e>
 80064aa:	ea94 0f05 	teq	r4, r5
 80064ae:	bf08      	it	eq
 80064b0:	ea90 0f02 	teqeq	r0, r2
 80064b4:	d005      	beq.n	80064c2 <__adddf3+0x212>
 80064b6:	ea54 0c00 	orrs.w	ip, r4, r0
 80064ba:	bf04      	itt	eq
 80064bc:	4619      	moveq	r1, r3
 80064be:	4610      	moveq	r0, r2
 80064c0:	bd30      	pop	{r4, r5, pc}
 80064c2:	ea91 0f03 	teq	r1, r3
 80064c6:	bf1e      	ittt	ne
 80064c8:	2100      	movne	r1, #0
 80064ca:	2000      	movne	r0, #0
 80064cc:	bd30      	popne	{r4, r5, pc}
 80064ce:	ea5f 5c54 	movs.w	ip, r4, lsr #21
 80064d2:	d105      	bne.n	80064e0 <__adddf3+0x230>
 80064d4:	0040      	lsls	r0, r0, #1
 80064d6:	4149      	adcs	r1, r1
 80064d8:	bf28      	it	cs
 80064da:	f041 4100 	orrcs.w	r1, r1, #2147483648	; 0x80000000
 80064de:	bd30      	pop	{r4, r5, pc}
 80064e0:	f514 0480 	adds.w	r4, r4, #4194304	; 0x400000
 80064e4:	bf3c      	itt	cc
 80064e6:	f501 1180 	addcc.w	r1, r1, #1048576	; 0x100000
 80064ea:	bd30      	popcc	{r4, r5, pc}
 80064ec:	f001 4500 	and.w	r5, r1, #2147483648	; 0x80000000
 80064f0:	f045 41fe 	orr.w	r1, r5, #2130706432	; 0x7f000000
 80064f4:	f441 0170 	orr.w	r1, r1, #15728640	; 0xf00000
 80064f8:	f04f 0000 	mov.w	r0, #0
 80064fc:	bd30      	pop	{r4, r5, pc}
 80064fe:	ea7f 5c64 	mvns.w	ip, r4, asr #21
 8006502:	bf1a      	itte	ne
 8006504:	4619      	movne	r1, r3
 8006506:	4610      	movne	r0, r2
 8006508:	ea7f 5c65 	mvnseq.w	ip, r5, asr #21
 800650c:	bf1c      	itt	ne
 800650e:	460b      	movne	r3, r1
 8006510:	4602      	movne	r2, r0
 8006512:	ea50 3401 	orrs.w	r4, r0, r1, lsl #12
 8006516:	bf06      	itte	eq
 8006518:	ea52 3503 	orrseq.w	r5, r2, r3, lsl #12
 800651c:	ea91 0f03 	teqeq	r1, r3
 8006520:	f441 2100 	orrne.w	r1, r1, #524288	; 0x80000
 8006524:	bd30      	pop	{r4, r5, pc}
 8006526:	bf00      	nop

08006528 <__aeabi_ui2d>:
 8006528:	f090 0f00 	teq	r0, #0
 800652c:	bf04      	itt	eq
 800652e:	2100      	moveq	r1, #0
 8006530:	4770      	bxeq	lr
 8006532:	b530      	push	{r4, r5, lr}
 8006534:	f44f 6480 	mov.w	r4, #1024	; 0x400
 8006538:	f104 0432 	add.w	r4, r4, #50	; 0x32
 800653c:	f04f 0500 	mov.w	r5, #0
 8006540:	f04f 0100 	mov.w	r1, #0
 8006544:	e750      	b.n	80063e8 <__adddf3+0x138>
 8006546:	bf00      	nop

08006548 <__aeabi_i2d>:
 8006548:	f090 0f00 	teq	r0, #0
 800654c:	bf04      	itt	eq
 800654e:	2100      	moveq	r1, #0
 8006550:	4770      	bxeq	lr
 8006552:	b530      	push	{r4, r5, lr}
 8006554:	f44f 6480 	mov.w	r4, #1024	; 0x400
 8006558:	f104 0432 	add.w	r4, r4, #50	; 0x32
 800655c:	f010 4500 	ands.w	r5, r0, #2147483648	; 0x80000000
 8006560:	bf48      	it	mi
 8006562:	4240      	negmi	r0, r0
 8006564:	f04f 0100 	mov.w	r1, #0
 8006568:	e73e      	b.n	80063e8 <__adddf3+0x138>
 800656a:	bf00      	nop

0800656c <__aeabi_f2d>:
 800656c:	0042      	lsls	r2, r0, #1
 800656e:	ea4f 01e2 	mov.w	r1, r2, asr #3
 8006572:	ea4f 0131 	mov.w	r1, r1, rrx
 8006576:	ea4f 7002 	mov.w	r0, r2, lsl #28
 800657a:	bf1f      	itttt	ne
 800657c:	f012 437f 	andsne.w	r3, r2, #4278190080	; 0xff000000
 8006580:	f093 4f7f 	teqne	r3, #4278190080	; 0xff000000
 8006584:	f081 5160 	eorne.w	r1, r1, #939524096	; 0x38000000
 8006588:	4770      	bxne	lr
 800658a:	f032 427f 	bics.w	r2, r2, #4278190080	; 0xff000000
 800658e:	bf08      	it	eq
 8006590:	4770      	bxeq	lr
 8006592:	f093 4f7f 	teq	r3, #4278190080	; 0xff000000
 8006596:	bf04      	itt	eq
 8006598:	f441 2100 	orreq.w	r1, r1, #524288	; 0x80000
 800659c:	4770      	bxeq	lr
 800659e:	b530      	push	{r4, r5, lr}
 80065a0:	f44f 7460 	mov.w	r4, #896	; 0x380
 80065a4:	f001 4500 	and.w	r5, r1, #2147483648	; 0x80000000
 80065a8:	f021 4100 	bic.w	r1, r1, #2147483648	; 0x80000000
 80065ac:	e71c      	b.n	80063e8 <__adddf3+0x138>
 80065ae:	bf00      	nop

080065b0 <__aeabi_ul2d>:
 80065b0:	ea50 0201 	orrs.w	r2, r0, r1
 80065b4:	bf08      	it	eq
 80065b6:	4770      	bxeq	lr
 80065b8:	b530      	push	{r4, r5, lr}
 80065ba:	f04f 0500 	mov.w	r5, #0
 80065be:	e00a      	b.n	80065d6 <__aeabi_l2d+0x16>

080065c0 <__aeabi_l2d>:
 80065c0:	ea50 0201 	orrs.w	r2, r0, r1
 80065c4:	bf08      	it	eq
 80065c6:	4770      	bxeq	lr
 80065c8:	b530      	push	{r4, r5, lr}
 80065ca:	f011 4500 	ands.w	r5, r1, #2147483648	; 0x80000000
 80065ce:	d502      	bpl.n	80065d6 <__aeabi_l2d+0x16>
 80065d0:	4240      	negs	r0, r0
 80065d2:	eb61 0141 	sbc.w	r1, r1, r1, lsl #1
 80065d6:	f44f 6480 	mov.w	r4, #1024	; 0x400
 80065da:	f104 0432 	add.w	r4, r4, #50	; 0x32
 80065de:	ea5f 5c91 	movs.w	ip, r1, lsr #22
 80065e2:	f43f aed8 	beq.w	8006396 <__adddf3+0xe6>
 80065e6:	f04f 0203 	mov.w	r2, #3
 80065ea:	ea5f 0cdc 	movs.w	ip, ip, lsr #3
 80065ee:	bf18      	it	ne
 80065f0:	3203      	addne	r2, #3
 80065f2:	ea5f 0cdc 	movs.w	ip, ip, lsr #3
 80065f6:	bf18      	it	ne
 80065f8:	3203      	addne	r2, #3
 80065fa:	eb02 02dc 	add.w	r2, r2, ip, lsr #3
 80065fe:	f1c2 0320 	rsb	r3, r2, #32
 8006602:	fa00 fc03 	lsl.w	ip, r0, r3
 8006606:	fa20 f002 	lsr.w	r0, r0, r2
 800660a:	fa01 fe03 	lsl.w	lr, r1, r3
 800660e:	ea40 000e 	orr.w	r0, r0, lr
 8006612:	fa21 f102 	lsr.w	r1, r1, r2
 8006616:	4414      	add	r4, r2
 8006618:	e6bd      	b.n	8006396 <__adddf3+0xe6>
 800661a:	bf00      	nop

0800661c <__aeabi_dmul>:
 800661c:	b570      	push	{r4, r5, r6, lr}
 800661e:	f04f 0cff 	mov.w	ip, #255	; 0xff
 8006622:	f44c 6ce0 	orr.w	ip, ip, #1792	; 0x700
 8006626:	ea1c 5411 	ands.w	r4, ip, r1, lsr #20
 800662a:	bf1d      	ittte	ne
 800662c:	ea1c 5513 	andsne.w	r5, ip, r3, lsr #20
 8006630:	ea94 0f0c 	teqne	r4, ip
 8006634:	ea95 0f0c 	teqne	r5, ip
 8006638:	f000 f8de 	bleq	80067f8 <__aeabi_dmul+0x1dc>
 800663c:	442c      	add	r4, r5
 800663e:	ea81 0603 	eor.w	r6, r1, r3
 8006642:	ea21 514c 	bic.w	r1, r1, ip, lsl #21
 8006646:	ea23 534c 	bic.w	r3, r3, ip, lsl #21
 800664a:	ea50 3501 	orrs.w	r5, r0, r1, lsl #12
 800664e:	bf18      	it	ne
 8006650:	ea52 3503 	orrsne.w	r5, r2, r3, lsl #12
 8006654:	f441 1180 	orr.w	r1, r1, #1048576	; 0x100000
 8006658:	f443 1380 	orr.w	r3, r3, #1048576	; 0x100000
 800665c:	d038      	beq.n	80066d0 <__aeabi_dmul+0xb4>
 800665e:	fba0 ce02 	umull	ip, lr, r0, r2
 8006662:	f04f 0500 	mov.w	r5, #0
 8006666:	fbe1 e502 	umlal	lr, r5, r1, r2
 800666a:	f006 4200 	and.w	r2, r6, #2147483648	; 0x80000000
 800666e:	fbe0 e503 	umlal	lr, r5, r0, r3
 8006672:	f04f 0600 	mov.w	r6, #0
 8006676:	fbe1 5603 	umlal	r5, r6, r1, r3
 800667a:	f09c 0f00 	teq	ip, #0
 800667e:	bf18      	it	ne
 8006680:	f04e 0e01 	orrne.w	lr, lr, #1
 8006684:	f1a4 04ff 	sub.w	r4, r4, #255	; 0xff
 8006688:	f5b6 7f00 	cmp.w	r6, #512	; 0x200
 800668c:	f564 7440 	sbc.w	r4, r4, #768	; 0x300
 8006690:	d204      	bcs.n	800669c <__aeabi_dmul+0x80>
 8006692:	ea5f 0e4e 	movs.w	lr, lr, lsl #1
 8006696:	416d      	adcs	r5, r5
 8006698:	eb46 0606 	adc.w	r6, r6, r6
 800669c:	ea42 21c6 	orr.w	r1, r2, r6, lsl #11
 80066a0:	ea41 5155 	orr.w	r1, r1, r5, lsr #21
 80066a4:	ea4f 20c5 	mov.w	r0, r5, lsl #11
 80066a8:	ea40 505e 	orr.w	r0, r0, lr, lsr #21
 80066ac:	ea4f 2ece 	mov.w	lr, lr, lsl #11
 80066b0:	f1b4 0cfd 	subs.w	ip, r4, #253	; 0xfd
 80066b4:	bf88      	it	hi
 80066b6:	f5bc 6fe0 	cmphi.w	ip, #1792	; 0x700
 80066ba:	d81e      	bhi.n	80066fa <__aeabi_dmul+0xde>
 80066bc:	f1be 4f00 	cmp.w	lr, #2147483648	; 0x80000000
 80066c0:	bf08      	it	eq
 80066c2:	ea5f 0e50 	movseq.w	lr, r0, lsr #1
 80066c6:	f150 0000 	adcs.w	r0, r0, #0
 80066ca:	eb41 5104 	adc.w	r1, r1, r4, lsl #20
 80066ce:	bd70      	pop	{r4, r5, r6, pc}
 80066d0:	f006 4600 	and.w	r6, r6, #2147483648	; 0x80000000
 80066d4:	ea46 0101 	orr.w	r1, r6, r1
 80066d8:	ea40 0002 	orr.w	r0, r0, r2
 80066dc:	ea81 0103 	eor.w	r1, r1, r3
 80066e0:	ebb4 045c 	subs.w	r4, r4, ip, lsr #1
 80066e4:	bfc2      	ittt	gt
 80066e6:	ebd4 050c 	rsbsgt	r5, r4, ip
 80066ea:	ea41 5104 	orrgt.w	r1, r1, r4, lsl #20
 80066ee:	bd70      	popgt	{r4, r5, r6, pc}
 80066f0:	f441 1180 	orr.w	r1, r1, #1048576	; 0x100000
 80066f4:	f04f 0e00 	mov.w	lr, #0
 80066f8:	3c01      	subs	r4, #1
 80066fa:	f300 80ab 	bgt.w	8006854 <__aeabi_dmul+0x238>
 80066fe:	f114 0f36 	cmn.w	r4, #54	; 0x36
 8006702:	bfde      	ittt	le
 8006704:	2000      	movle	r0, #0
 8006706:	f001 4100 	andle.w	r1, r1, #2147483648	; 0x80000000
 800670a:	bd70      	pople	{r4, r5, r6, pc}
 800670c:	f1c4 0400 	rsb	r4, r4, #0
 8006710:	3c20      	subs	r4, #32
 8006712:	da35      	bge.n	8006780 <__aeabi_dmul+0x164>
 8006714:	340c      	adds	r4, #12
 8006716:	dc1b      	bgt.n	8006750 <__aeabi_dmul+0x134>
 8006718:	f104 0414 	add.w	r4, r4, #20
 800671c:	f1c4 0520 	rsb	r5, r4, #32
 8006720:	fa00 f305 	lsl.w	r3, r0, r5
 8006724:	fa20 f004 	lsr.w	r0, r0, r4
 8006728:	fa01 f205 	lsl.w	r2, r1, r5
 800672c:	ea40 0002 	orr.w	r0, r0, r2
 8006730:	f001 4200 	and.w	r2, r1, #2147483648	; 0x80000000
 8006734:	f021 4100 	bic.w	r1, r1, #2147483648	; 0x80000000
 8006738:	eb10 70d3 	adds.w	r0, r0, r3, lsr #31
 800673c:	fa21 f604 	lsr.w	r6, r1, r4
 8006740:	eb42 0106 	adc.w	r1, r2, r6
 8006744:	ea5e 0e43 	orrs.w	lr, lr, r3, lsl #1
 8006748:	bf08      	it	eq
 800674a:	ea20 70d3 	biceq.w	r0, r0, r3, lsr #31
 800674e:	bd70      	pop	{r4, r5, r6, pc}
 8006750:	f1c4 040c 	rsb	r4, r4, #12
 8006754:	f1c4 0520 	rsb	r5, r4, #32
 8006758:	fa00 f304 	lsl.w	r3, r0, r4
 800675c:	fa20 f005 	lsr.w	r0, r0, r5
 8006760:	fa01 f204 	lsl.w	r2, r1, r4
 8006764:	ea40 0002 	orr.w	r0, r0, r2
 8006768:	f001 4100 	and.w	r1, r1, #2147483648	; 0x80000000
 800676c:	eb10 70d3 	adds.w	r0, r0, r3, lsr #31
 8006770:	f141 0100 	adc.w	r1, r1, #0
 8006774:	ea5e 0e43 	orrs.w	lr, lr, r3, lsl #1
 8006778:	bf08      	it	eq
 800677a:	ea20 70d3 	biceq.w	r0, r0, r3, lsr #31
 800677e:	bd70      	pop	{r4, r5, r6, pc}
 8006780:	f1c4 0520 	rsb	r5, r4, #32
 8006784:	fa00 f205 	lsl.w	r2, r0, r5
 8006788:	ea4e 0e02 	orr.w	lr, lr, r2
 800678c:	fa20 f304 	lsr.w	r3, r0, r4
 8006790:	fa01 f205 	lsl.w	r2, r1, r5
 8006794:	ea43 0302 	orr.w	r3, r3, r2
 8006798:	fa21 f004 	lsr.w	r0, r1, r4
 800679c:	f001 4100 	and.w	r1, r1, #2147483648	; 0x80000000
 80067a0:	fa21 f204 	lsr.w	r2, r1, r4
 80067a4:	ea20 0002 	bic.w	r0, r0, r2
 80067a8:	eb00 70d3 	add.w	r0, r0, r3, lsr #31
 80067ac:	ea5e 0e43 	orrs.w	lr, lr, r3, lsl #1
 80067b0:	bf08      	it	eq
 80067b2:	ea20 70d3 	biceq.w	r0, r0, r3, lsr #31
 80067b6:	bd70      	pop	{r4, r5, r6, pc}
 80067b8:	f094 0f00 	teq	r4, #0
 80067bc:	d10f      	bne.n	80067de <__aeabi_dmul+0x1c2>
 80067be:	f001 4600 	and.w	r6, r1, #2147483648	; 0x80000000
 80067c2:	0040      	lsls	r0, r0, #1
 80067c4:	eb41 0101 	adc.w	r1, r1, r1
 80067c8:	f411 1f80 	tst.w	r1, #1048576	; 0x100000
 80067cc:	bf08      	it	eq
 80067ce:	3c01      	subeq	r4, #1
 80067d0:	d0f7      	beq.n	80067c2 <__aeabi_dmul+0x1a6>
 80067d2:	ea41 0106 	orr.w	r1, r1, r6
 80067d6:	f095 0f00 	teq	r5, #0
 80067da:	bf18      	it	ne
 80067dc:	4770      	bxne	lr
 80067de:	f003 4600 	and.w	r6, r3, #2147483648	; 0x80000000
 80067e2:	0052      	lsls	r2, r2, #1
 80067e4:	eb43 0303 	adc.w	r3, r3, r3
 80067e8:	f413 1f80 	tst.w	r3, #1048576	; 0x100000
 80067ec:	bf08      	it	eq
 80067ee:	3d01      	subeq	r5, #1
 80067f0:	d0f7      	beq.n	80067e2 <__aeabi_dmul+0x1c6>
 80067f2:	ea43 0306 	orr.w	r3, r3, r6
 80067f6:	4770      	bx	lr
 80067f8:	ea94 0f0c 	teq	r4, ip
 80067fc:	ea0c 5513 	and.w	r5, ip, r3, lsr #20
 8006800:	bf18      	it	ne
 8006802:	ea95 0f0c 	teqne	r5, ip
 8006806:	d00c      	beq.n	8006822 <__aeabi_dmul+0x206>
 8006808:	ea50 0641 	orrs.w	r6, r0, r1, lsl #1
 800680c:	bf18      	it	ne
 800680e:	ea52 0643 	orrsne.w	r6, r2, r3, lsl #1
 8006812:	d1d1      	bne.n	80067b8 <__aeabi_dmul+0x19c>
 8006814:	ea81 0103 	eor.w	r1, r1, r3
 8006818:	f001 4100 	and.w	r1, r1, #2147483648	; 0x80000000
 800681c:	f04f 0000 	mov.w	r0, #0
 8006820:	bd70      	pop	{r4, r5, r6, pc}
 8006822:	ea50 0641 	orrs.w	r6, r0, r1, lsl #1
 8006826:	bf06      	itte	eq
 8006828:	4610      	moveq	r0, r2
 800682a:	4619      	moveq	r1, r3
 800682c:	ea52 0643 	orrsne.w	r6, r2, r3, lsl #1
 8006830:	d019      	beq.n	8006866 <__aeabi_dmul+0x24a>
 8006832:	ea94 0f0c 	teq	r4, ip
 8006836:	d102      	bne.n	800683e <__aeabi_dmul+0x222>
 8006838:	ea50 3601 	orrs.w	r6, r0, r1, lsl #12
 800683c:	d113      	bne.n	8006866 <__aeabi_dmul+0x24a>
 800683e:	ea95 0f0c 	teq	r5, ip
 8006842:	d105      	bne.n	8006850 <__aeabi_dmul+0x234>
 8006844:	ea52 3603 	orrs.w	r6, r2, r3, lsl #12
 8006848:	bf1c      	itt	ne
 800684a:	4610      	movne	r0, r2
 800684c:	4619      	movne	r1, r3
 800684e:	d10a      	bne.n	8006866 <__aeabi_dmul+0x24a>
 8006850:	ea81 0103 	eor.w	r1, r1, r3
 8006854:	f001 4100 	and.w	r1, r1, #2147483648	; 0x80000000
 8006858:	f041 41fe 	orr.w	r1, r1, #2130706432	; 0x7f000000
 800685c:	f441 0170 	orr.w	r1, r1, #15728640	; 0xf00000
 8006860:	f04f 0000 	mov.w	r0, #0
 8006864:	bd70      	pop	{r4, r5, r6, pc}
 8006866:	f041 41fe 	orr.w	r1, r1, #2130706432	; 0x7f000000
 800686a:	f441 0178 	orr.w	r1, r1, #16252928	; 0xf80000
 800686e:	bd70      	pop	{r4, r5, r6, pc}

08006870 <__aeabi_ddiv>:
 8006870:	b570      	push	{r4, r5, r6, lr}
 8006872:	f04f 0cff 	mov.w	ip, #255	; 0xff
 8006876:	f44c 6ce0 	orr.w	ip, ip, #1792	; 0x700
 800687a:	ea1c 5411 	ands.w	r4, ip, r1, lsr #20
 800687e:	bf1d      	ittte	ne
 8006880:	ea1c 5513 	andsne.w	r5, ip, r3, lsr #20
 8006884:	ea94 0f0c 	teqne	r4, ip
 8006888:	ea95 0f0c 	teqne	r5, ip
 800688c:	f000 f8a7 	bleq	80069de <__aeabi_ddiv+0x16e>
 8006890:	eba4 0405 	sub.w	r4, r4, r5
 8006894:	ea81 0e03 	eor.w	lr, r1, r3
 8006898:	ea52 3503 	orrs.w	r5, r2, r3, lsl #12
 800689c:	ea4f 3101 	mov.w	r1, r1, lsl #12
 80068a0:	f000 8088 	beq.w	80069b4 <__aeabi_ddiv+0x144>
 80068a4:	ea4f 3303 	mov.w	r3, r3, lsl #12
 80068a8:	f04f 5580 	mov.w	r5, #268435456	; 0x10000000
 80068ac:	ea45 1313 	orr.w	r3, r5, r3, lsr #4
 80068b0:	ea43 6312 	orr.w	r3, r3, r2, lsr #24
 80068b4:	ea4f 2202 	mov.w	r2, r2, lsl #8
 80068b8:	ea45 1511 	orr.w	r5, r5, r1, lsr #4
 80068bc:	ea45 6510 	orr.w	r5, r5, r0, lsr #24
 80068c0:	ea4f 2600 	mov.w	r6, r0, lsl #8
 80068c4:	f00e 4100 	and.w	r1, lr, #2147483648	; 0x80000000
 80068c8:	429d      	cmp	r5, r3
 80068ca:	bf08      	it	eq
 80068cc:	4296      	cmpeq	r6, r2
 80068ce:	f144 04fd 	adc.w	r4, r4, #253	; 0xfd
 80068d2:	f504 7440 	add.w	r4, r4, #768	; 0x300
 80068d6:	d202      	bcs.n	80068de <__aeabi_ddiv+0x6e>
 80068d8:	085b      	lsrs	r3, r3, #1
 80068da:	ea4f 0232 	mov.w	r2, r2, rrx
 80068de:	1ab6      	subs	r6, r6, r2
 80068e0:	eb65 0503 	sbc.w	r5, r5, r3
 80068e4:	085b      	lsrs	r3, r3, #1
 80068e6:	ea4f 0232 	mov.w	r2, r2, rrx
 80068ea:	f44f 1080 	mov.w	r0, #1048576	; 0x100000
 80068ee:	f44f 2c00 	mov.w	ip, #524288	; 0x80000
 80068f2:	ebb6 0e02 	subs.w	lr, r6, r2
 80068f6:	eb75 0e03 	sbcs.w	lr, r5, r3
 80068fa:	bf22      	ittt	cs
 80068fc:	1ab6      	subcs	r6, r6, r2
 80068fe:	4675      	movcs	r5, lr
 8006900:	ea40 000c 	orrcs.w	r0, r0, ip
 8006904:	085b      	lsrs	r3, r3, #1
 8006906:	ea4f 0232 	mov.w	r2, r2, rrx
 800690a:	ebb6 0e02 	subs.w	lr, r6, r2
 800690e:	eb75 0e03 	sbcs.w	lr, r5, r3
 8006912:	bf22      	ittt	cs
 8006914:	1ab6      	subcs	r6, r6, r2
 8006916:	4675      	movcs	r5, lr
 8006918:	ea40 005c 	orrcs.w	r0, r0, ip, lsr #1
 800691c:	085b      	lsrs	r3, r3, #1
 800691e:	ea4f 0232 	mov.w	r2, r2, rrx
 8006922:	ebb6 0e02 	subs.w	lr, r6, r2
 8006926:	eb75 0e03 	sbcs.w	lr, r5, r3
 800692a:	bf22      	ittt	cs
 800692c:	1ab6      	subcs	r6, r6, r2
 800692e:	4675      	movcs	r5, lr
 8006930:	ea40 009c 	orrcs.w	r0, r0, ip, lsr #2
 8006934:	085b      	lsrs	r3, r3, #1
 8006936:	ea4f 0232 	mov.w	r2, r2, rrx
 800693a:	ebb6 0e02 	subs.w	lr, r6, r2
 800693e:	eb75 0e03 	sbcs.w	lr, r5, r3
 8006942:	bf22      	ittt	cs
 8006944:	1ab6      	subcs	r6, r6, r2
 8006946:	4675      	movcs	r5, lr
 8006948:	ea40 00dc 	orrcs.w	r0, r0, ip, lsr #3
 800694c:	ea55 0e06 	orrs.w	lr, r5, r6
 8006950:	d018      	beq.n	8006984 <__aeabi_ddiv+0x114>
 8006952:	ea4f 1505 	mov.w	r5, r5, lsl #4
 8006956:	ea45 7516 	orr.w	r5, r5, r6, lsr #28
 800695a:	ea4f 1606 	mov.w	r6, r6, lsl #4
 800695e:	ea4f 03c3 	mov.w	r3, r3, lsl #3
 8006962:	ea43 7352 	orr.w	r3, r3, r2, lsr #29
 8006966:	ea4f 02c2 	mov.w	r2, r2, lsl #3
 800696a:	ea5f 1c1c 	movs.w	ip, ip, lsr #4
 800696e:	d1c0      	bne.n	80068f2 <__aeabi_ddiv+0x82>
 8006970:	f411 1f80 	tst.w	r1, #1048576	; 0x100000
 8006974:	d10b      	bne.n	800698e <__aeabi_ddiv+0x11e>
 8006976:	ea41 0100 	orr.w	r1, r1, r0
 800697a:	f04f 0000 	mov.w	r0, #0
 800697e:	f04f 4c00 	mov.w	ip, #2147483648	; 0x80000000
 8006982:	e7b6      	b.n	80068f2 <__aeabi_ddiv+0x82>
 8006984:	f411 1f80 	tst.w	r1, #1048576	; 0x100000
 8006988:	bf04      	itt	eq
 800698a:	4301      	orreq	r1, r0
 800698c:	2000      	moveq	r0, #0
 800698e:	f1b4 0cfd 	subs.w	ip, r4, #253	; 0xfd
 8006992:	bf88      	it	hi
 8006994:	f5bc 6fe0 	cmphi.w	ip, #1792	; 0x700
 8006998:	f63f aeaf 	bhi.w	80066fa <__aeabi_dmul+0xde>
 800699c:	ebb5 0c03 	subs.w	ip, r5, r3
 80069a0:	bf04      	itt	eq
 80069a2:	ebb6 0c02 	subseq.w	ip, r6, r2
 80069a6:	ea5f 0c50 	movseq.w	ip, r0, lsr #1
 80069aa:	f150 0000 	adcs.w	r0, r0, #0
 80069ae:	eb41 5104 	adc.w	r1, r1, r4, lsl #20
 80069b2:	bd70      	pop	{r4, r5, r6, pc}
 80069b4:	f00e 4e00 	and.w	lr, lr, #2147483648	; 0x80000000
 80069b8:	ea4e 3111 	orr.w	r1, lr, r1, lsr #12
 80069bc:	eb14 045c 	adds.w	r4, r4, ip, lsr #1
 80069c0:	bfc2      	ittt	gt
 80069c2:	ebd4 050c 	rsbsgt	r5, r4, ip
 80069c6:	ea41 5104 	orrgt.w	r1, r1, r4, lsl #20
 80069ca:	bd70      	popgt	{r4, r5, r6, pc}
 80069cc:	f441 1180 	orr.w	r1, r1, #1048576	; 0x100000
 80069d0:	f04f 0e00 	mov.w	lr, #0
 80069d4:	3c01      	subs	r4, #1
 80069d6:	e690      	b.n	80066fa <__aeabi_dmul+0xde>
 80069d8:	ea45 0e06 	orr.w	lr, r5, r6
 80069dc:	e68d      	b.n	80066fa <__aeabi_dmul+0xde>
 80069de:	ea0c 5513 	and.w	r5, ip, r3, lsr #20
 80069e2:	ea94 0f0c 	teq	r4, ip
 80069e6:	bf08      	it	eq
 80069e8:	ea95 0f0c 	teqeq	r5, ip
 80069ec:	f43f af3b 	beq.w	8006866 <__aeabi_dmul+0x24a>
 80069f0:	ea94 0f0c 	teq	r4, ip
 80069f4:	d10a      	bne.n	8006a0c <__aeabi_ddiv+0x19c>
 80069f6:	ea50 3401 	orrs.w	r4, r0, r1, lsl #12
 80069fa:	f47f af34 	bne.w	8006866 <__aeabi_dmul+0x24a>
 80069fe:	ea95 0f0c 	teq	r5, ip
 8006a02:	f47f af25 	bne.w	8006850 <__aeabi_dmul+0x234>
 8006a06:	4610      	mov	r0, r2
 8006a08:	4619      	mov	r1, r3
 8006a0a:	e72c      	b.n	8006866 <__aeabi_dmul+0x24a>
 8006a0c:	ea95 0f0c 	teq	r5, ip
 8006a10:	d106      	bne.n	8006a20 <__aeabi_ddiv+0x1b0>
 8006a12:	ea52 3503 	orrs.w	r5, r2, r3, lsl #12
 8006a16:	f43f aefd 	beq.w	8006814 <__aeabi_dmul+0x1f8>
 8006a1a:	4610      	mov	r0, r2
 8006a1c:	4619      	mov	r1, r3
 8006a1e:	e722      	b.n	8006866 <__aeabi_dmul+0x24a>
 8006a20:	ea50 0641 	orrs.w	r6, r0, r1, lsl #1
 8006a24:	bf18      	it	ne
 8006a26:	ea52 0643 	orrsne.w	r6, r2, r3, lsl #1
 8006a2a:	f47f aec5 	bne.w	80067b8 <__aeabi_dmul+0x19c>
 8006a2e:	ea50 0441 	orrs.w	r4, r0, r1, lsl #1
 8006a32:	f47f af0d 	bne.w	8006850 <__aeabi_dmul+0x234>
 8006a36:	ea52 0543 	orrs.w	r5, r2, r3, lsl #1
 8006a3a:	f47f aeeb 	bne.w	8006814 <__aeabi_dmul+0x1f8>
 8006a3e:	e712      	b.n	8006866 <__aeabi_dmul+0x24a>

08006a40 <__gedf2>:
 8006a40:	f04f 3cff 	mov.w	ip, #4294967295
 8006a44:	e006      	b.n	8006a54 <__cmpdf2+0x4>
 8006a46:	bf00      	nop

08006a48 <__ledf2>:
 8006a48:	f04f 0c01 	mov.w	ip, #1
 8006a4c:	e002      	b.n	8006a54 <__cmpdf2+0x4>
 8006a4e:	bf00      	nop

08006a50 <__cmpdf2>:
 8006a50:	f04f 0c01 	mov.w	ip, #1
 8006a54:	f84d cd04 	str.w	ip, [sp, #-4]!
 8006a58:	ea4f 0c41 	mov.w	ip, r1, lsl #1
 8006a5c:	ea7f 5c6c 	mvns.w	ip, ip, asr #21
 8006a60:	ea4f 0c43 	mov.w	ip, r3, lsl #1
 8006a64:	bf18      	it	ne
 8006a66:	ea7f 5c6c 	mvnsne.w	ip, ip, asr #21
 8006a6a:	d01b      	beq.n	8006aa4 <__cmpdf2+0x54>
 8006a6c:	b001      	add	sp, #4
 8006a6e:	ea50 0c41 	orrs.w	ip, r0, r1, lsl #1
 8006a72:	bf0c      	ite	eq
 8006a74:	ea52 0c43 	orrseq.w	ip, r2, r3, lsl #1
 8006a78:	ea91 0f03 	teqne	r1, r3
 8006a7c:	bf02      	ittt	eq
 8006a7e:	ea90 0f02 	teqeq	r0, r2
 8006a82:	2000      	moveq	r0, #0
 8006a84:	4770      	bxeq	lr
 8006a86:	f110 0f00 	cmn.w	r0, #0
 8006a8a:	ea91 0f03 	teq	r1, r3
 8006a8e:	bf58      	it	pl
 8006a90:	4299      	cmppl	r1, r3
 8006a92:	bf08      	it	eq
 8006a94:	4290      	cmpeq	r0, r2
 8006a96:	bf2c      	ite	cs
 8006a98:	17d8      	asrcs	r0, r3, #31
 8006a9a:	ea6f 70e3 	mvncc.w	r0, r3, asr #31
 8006a9e:	f040 0001 	orr.w	r0, r0, #1
 8006aa2:	4770      	bx	lr
 8006aa4:	ea4f 0c41 	mov.w	ip, r1, lsl #1
 8006aa8:	ea7f 5c6c 	mvns.w	ip, ip, asr #21
 8006aac:	d102      	bne.n	8006ab4 <__cmpdf2+0x64>
 8006aae:	ea50 3c01 	orrs.w	ip, r0, r1, lsl #12
 8006ab2:	d107      	bne.n	8006ac4 <__cmpdf2+0x74>
 8006ab4:	ea4f 0c43 	mov.w	ip, r3, lsl #1
 8006ab8:	ea7f 5c6c 	mvns.w	ip, ip, asr #21
 8006abc:	d1d6      	bne.n	8006a6c <__cmpdf2+0x1c>
 8006abe:	ea52 3c03 	orrs.w	ip, r2, r3, lsl #12
 8006ac2:	d0d3      	beq.n	8006a6c <__cmpdf2+0x1c>
 8006ac4:	f85d 0b04 	ldr.w	r0, [sp], #4
 8006ac8:	4770      	bx	lr
 8006aca:	bf00      	nop

08006acc <__aeabi_cdrcmple>:
 8006acc:	4684      	mov	ip, r0
 8006ace:	4610      	mov	r0, r2
 8006ad0:	4662      	mov	r2, ip
 8006ad2:	468c      	mov	ip, r1
 8006ad4:	4619      	mov	r1, r3
 8006ad6:	4663      	mov	r3, ip
 8006ad8:	e000      	b.n	8006adc <__aeabi_cdcmpeq>
 8006ada:	bf00      	nop

08006adc <__aeabi_cdcmpeq>:
 8006adc:	b501      	push	{r0, lr}
 8006ade:	f7ff ffb7 	bl	8006a50 <__cmpdf2>
 8006ae2:	2800      	cmp	r0, #0
 8006ae4:	bf48      	it	mi
 8006ae6:	f110 0f00 	cmnmi.w	r0, #0
 8006aea:	bd01      	pop	{r0, pc}

08006aec <__aeabi_dcmpeq>:
 8006aec:	f84d ed08 	str.w	lr, [sp, #-8]!
 8006af0:	f7ff fff4 	bl	8006adc <__aeabi_cdcmpeq>
 8006af4:	bf0c      	ite	eq
 8006af6:	2001      	moveq	r0, #1
 8006af8:	2000      	movne	r0, #0
 8006afa:	f85d fb08 	ldr.w	pc, [sp], #8
 8006afe:	bf00      	nop

08006b00 <__aeabi_dcmplt>:
 8006b00:	f84d ed08 	str.w	lr, [sp, #-8]!
 8006b04:	f7ff ffea 	bl	8006adc <__aeabi_cdcmpeq>
 8006b08:	bf34      	ite	cc
 8006b0a:	2001      	movcc	r0, #1
 8006b0c:	2000      	movcs	r0, #0
 8006b0e:	f85d fb08 	ldr.w	pc, [sp], #8
 8006b12:	bf00      	nop

08006b14 <__aeabi_dcmple>:
 8006b14:	f84d ed08 	str.w	lr, [sp, #-8]!
 8006b18:	f7ff ffe0 	bl	8006adc <__aeabi_cdcmpeq>
 8006b1c:	bf94      	ite	ls
 8006b1e:	2001      	movls	r0, #1
 8006b20:	2000      	movhi	r0, #0
 8006b22:	f85d fb08 	ldr.w	pc, [sp], #8
 8006b26:	bf00      	nop

08006b28 <__aeabi_dcmpge>:
 8006b28:	f84d ed08 	str.w	lr, [sp, #-8]!
 8006b2c:	f7ff ffce 	bl	8006acc <__aeabi_cdrcmple>
 8006b30:	bf94      	ite	ls
 8006b32:	2001      	movls	r0, #1
 8006b34:	2000      	movhi	r0, #0
 8006b36:	f85d fb08 	ldr.w	pc, [sp], #8
 8006b3a:	bf00      	nop

08006b3c <__aeabi_dcmpgt>:
 8006b3c:	f84d ed08 	str.w	lr, [sp, #-8]!
 8006b40:	f7ff ffc4 	bl	8006acc <__aeabi_cdrcmple>
 8006b44:	bf34      	ite	cc
 8006b46:	2001      	movcc	r0, #1
 8006b48:	2000      	movcs	r0, #0
 8006b4a:	f85d fb08 	ldr.w	pc, [sp], #8
 8006b4e:	bf00      	nop

08006b50 <__aeabi_d2uiz>:
 8006b50:	004a      	lsls	r2, r1, #1
 8006b52:	d211      	bcs.n	8006b78 <__aeabi_d2uiz+0x28>
 8006b54:	f512 1200 	adds.w	r2, r2, #2097152	; 0x200000
 8006b58:	d211      	bcs.n	8006b7e <__aeabi_d2uiz+0x2e>
 8006b5a:	d50d      	bpl.n	8006b78 <__aeabi_d2uiz+0x28>
 8006b5c:	f46f 7378 	mvn.w	r3, #992	; 0x3e0
 8006b60:	ebb3 5262 	subs.w	r2, r3, r2, asr #21
 8006b64:	d40e      	bmi.n	8006b84 <__aeabi_d2uiz+0x34>
 8006b66:	ea4f 23c1 	mov.w	r3, r1, lsl #11
 8006b6a:	f043 4300 	orr.w	r3, r3, #2147483648	; 0x80000000
 8006b6e:	ea43 5350 	orr.w	r3, r3, r0, lsr #21
 8006b72:	fa23 f002 	lsr.w	r0, r3, r2
 8006b76:	4770      	bx	lr
 8006b78:	f04f 0000 	mov.w	r0, #0
 8006b7c:	4770      	bx	lr
 8006b7e:	ea50 3001 	orrs.w	r0, r0, r1, lsl #12
 8006b82:	d102      	bne.n	8006b8a <__aeabi_d2uiz+0x3a>
 8006b84:	f04f 30ff 	mov.w	r0, #4294967295
 8006b88:	4770      	bx	lr
 8006b8a:	f04f 0000 	mov.w	r0, #0
 8006b8e:	4770      	bx	lr

08006b90 <__aeabi_d2f>:
 8006b90:	ea4f 0241 	mov.w	r2, r1, lsl #1
 8006b94:	f1b2 43e0 	subs.w	r3, r2, #1879048192	; 0x70000000
 8006b98:	bf24      	itt	cs
 8006b9a:	f5b3 1c00 	subscs.w	ip, r3, #2097152	; 0x200000
 8006b9e:	f1dc 5cfe 	rsbscs	ip, ip, #532676608	; 0x1fc00000
 8006ba2:	d90d      	bls.n	8006bc0 <__aeabi_d2f+0x30>
 8006ba4:	f001 4c00 	and.w	ip, r1, #2147483648	; 0x80000000
 8006ba8:	ea4f 02c0 	mov.w	r2, r0, lsl #3
 8006bac:	ea4c 7050 	orr.w	r0, ip, r0, lsr #29
 8006bb0:	f1b2 4f00 	cmp.w	r2, #2147483648	; 0x80000000
 8006bb4:	eb40 0083 	adc.w	r0, r0, r3, lsl #2
 8006bb8:	bf08      	it	eq
 8006bba:	f020 0001 	biceq.w	r0, r0, #1
 8006bbe:	4770      	bx	lr
 8006bc0:	f011 4f80 	tst.w	r1, #1073741824	; 0x40000000
 8006bc4:	d121      	bne.n	8006c0a <__aeabi_d2f+0x7a>
 8006bc6:	f113 7238 	adds.w	r2, r3, #48234496	; 0x2e00000
 8006bca:	bfbc      	itt	lt
 8006bcc:	f001 4000 	andlt.w	r0, r1, #2147483648	; 0x80000000
 8006bd0:	4770      	bxlt	lr
 8006bd2:	f441 1180 	orr.w	r1, r1, #1048576	; 0x100000
 8006bd6:	ea4f 5252 	mov.w	r2, r2, lsr #21
 8006bda:	f1c2 0218 	rsb	r2, r2, #24
 8006bde:	f1c2 0c20 	rsb	ip, r2, #32
 8006be2:	fa10 f30c 	lsls.w	r3, r0, ip
 8006be6:	fa20 f002 	lsr.w	r0, r0, r2
 8006bea:	bf18      	it	ne
 8006bec:	f040 0001 	orrne.w	r0, r0, #1
 8006bf0:	ea4f 23c1 	mov.w	r3, r1, lsl #11
 8006bf4:	ea4f 23d3 	mov.w	r3, r3, lsr #11
 8006bf8:	fa03 fc0c 	lsl.w	ip, r3, ip
 8006bfc:	ea40 000c 	orr.w	r0, r0, ip
 8006c00:	fa23 f302 	lsr.w	r3, r3, r2
 8006c04:	ea4f 0343 	mov.w	r3, r3, lsl #1
 8006c08:	e7cc      	b.n	8006ba4 <__aeabi_d2f+0x14>
 8006c0a:	ea7f 5362 	mvns.w	r3, r2, asr #21
 8006c0e:	d107      	bne.n	8006c20 <__aeabi_d2f+0x90>
 8006c10:	ea50 3301 	orrs.w	r3, r0, r1, lsl #12
 8006c14:	bf1e      	ittt	ne
 8006c16:	f04f 40fe 	movne.w	r0, #2130706432	; 0x7f000000
 8006c1a:	f440 0040 	orrne.w	r0, r0, #12582912	; 0xc00000
 8006c1e:	4770      	bxne	lr
 8006c20:	f001 4000 	and.w	r0, r1, #2147483648	; 0x80000000
 8006c24:	f040 40fe 	orr.w	r0, r0, #2130706432	; 0x7f000000
 8006c28:	f440 0000 	orr.w	r0, r0, #8388608	; 0x800000
 8006c2c:	4770      	bx	lr
 8006c2e:	bf00      	nop

08006c30 <__aeabi_uldivmod>:
 8006c30:	b953      	cbnz	r3, 8006c48 <__aeabi_uldivmod+0x18>
 8006c32:	b94a      	cbnz	r2, 8006c48 <__aeabi_uldivmod+0x18>
 8006c34:	2900      	cmp	r1, #0
 8006c36:	bf08      	it	eq
 8006c38:	2800      	cmpeq	r0, #0
 8006c3a:	bf1c      	itt	ne
 8006c3c:	f04f 31ff 	movne.w	r1, #4294967295
 8006c40:	f04f 30ff 	movne.w	r0, #4294967295
 8006c44:	f000 b994 	b.w	8006f70 <__aeabi_idiv0>
 8006c48:	f1ad 0c08 	sub.w	ip, sp, #8
 8006c4c:	e96d ce04 	strd	ip, lr, [sp, #-16]!
 8006c50:	f000 f828 	bl	8006ca4 <__udivmoddi4>
 8006c54:	f8dd e004 	ldr.w	lr, [sp, #4]
 8006c58:	e9dd 2302 	ldrd	r2, r3, [sp, #8]
 8006c5c:	b004      	add	sp, #16
 8006c5e:	4770      	bx	lr

08006c60 <__aeabi_d2ulz>:
 8006c60:	b5d0      	push	{r4, r6, r7, lr}
 8006c62:	2200      	movs	r2, #0
 8006c64:	4b0d      	ldr	r3, [pc, #52]	; (8006c9c <__aeabi_d2ulz+0x3c>)
 8006c66:	4606      	mov	r6, r0
 8006c68:	460f      	mov	r7, r1
 8006c6a:	f7ff fcd7 	bl	800661c <__aeabi_dmul>
 8006c6e:	f7ff ff6f 	bl	8006b50 <__aeabi_d2uiz>
 8006c72:	4604      	mov	r4, r0
 8006c74:	f7ff fc58 	bl	8006528 <__aeabi_ui2d>
 8006c78:	2200      	movs	r2, #0
 8006c7a:	4b09      	ldr	r3, [pc, #36]	; (8006ca0 <__aeabi_d2ulz+0x40>)
 8006c7c:	f7ff fcce 	bl	800661c <__aeabi_dmul>
 8006c80:	4602      	mov	r2, r0
 8006c82:	460b      	mov	r3, r1
 8006c84:	4630      	mov	r0, r6
 8006c86:	4639      	mov	r1, r7
 8006c88:	f7ff fb10 	bl	80062ac <__aeabi_dsub>
 8006c8c:	f7ff ff60 	bl	8006b50 <__aeabi_d2uiz>
 8006c90:	2200      	movs	r2, #0
 8006c92:	4623      	mov	r3, r4
 8006c94:	4310      	orrs	r0, r2
 8006c96:	4619      	mov	r1, r3
 8006c98:	bdd0      	pop	{r4, r6, r7, pc}
 8006c9a:	bf00      	nop
 8006c9c:	3df00000 	.word	0x3df00000
 8006ca0:	41f00000 	.word	0x41f00000

08006ca4 <__udivmoddi4>:
 8006ca4:	e92d 47f0 	stmdb	sp!, {r4, r5, r6, r7, r8, r9, sl, lr}
 8006ca8:	9e08      	ldr	r6, [sp, #32]
 8006caa:	4604      	mov	r4, r0
 8006cac:	4688      	mov	r8, r1
 8006cae:	2b00      	cmp	r3, #0
 8006cb0:	d14b      	bne.n	8006d4a <__udivmoddi4+0xa6>
 8006cb2:	428a      	cmp	r2, r1
 8006cb4:	4615      	mov	r5, r2
 8006cb6:	d967      	bls.n	8006d88 <__udivmoddi4+0xe4>
 8006cb8:	fab2 f282 	clz	r2, r2
 8006cbc:	b14a      	cbz	r2, 8006cd2 <__udivmoddi4+0x2e>
 8006cbe:	f1c2 0720 	rsb	r7, r2, #32
 8006cc2:	fa01 f302 	lsl.w	r3, r1, r2
 8006cc6:	fa20 f707 	lsr.w	r7, r0, r7
 8006cca:	4095      	lsls	r5, r2
 8006ccc:	ea47 0803 	orr.w	r8, r7, r3
 8006cd0:	4094      	lsls	r4, r2
 8006cd2:	ea4f 4e15 	mov.w	lr, r5, lsr #16
 8006cd6:	0c23      	lsrs	r3, r4, #16
 8006cd8:	fbb8 f7fe 	udiv	r7, r8, lr
 8006cdc:	fa1f fc85 	uxth.w	ip, r5
 8006ce0:	fb0e 8817 	mls	r8, lr, r7, r8
 8006ce4:	ea43 4308 	orr.w	r3, r3, r8, lsl #16
 8006ce8:	fb07 f10c 	mul.w	r1, r7, ip
 8006cec:	4299      	cmp	r1, r3
 8006cee:	d909      	bls.n	8006d04 <__udivmoddi4+0x60>
 8006cf0:	18eb      	adds	r3, r5, r3
 8006cf2:	f107 30ff 	add.w	r0, r7, #4294967295
 8006cf6:	f080 811b 	bcs.w	8006f30 <__udivmoddi4+0x28c>
 8006cfa:	4299      	cmp	r1, r3
 8006cfc:	f240 8118 	bls.w	8006f30 <__udivmoddi4+0x28c>
 8006d00:	3f02      	subs	r7, #2
 8006d02:	442b      	add	r3, r5
 8006d04:	1a5b      	subs	r3, r3, r1
 8006d06:	b2a4      	uxth	r4, r4
 8006d08:	fbb3 f0fe 	udiv	r0, r3, lr
 8006d0c:	fb0e 3310 	mls	r3, lr, r0, r3
 8006d10:	ea44 4403 	orr.w	r4, r4, r3, lsl #16
 8006d14:	fb00 fc0c 	mul.w	ip, r0, ip
 8006d18:	45a4      	cmp	ip, r4
 8006d1a:	d909      	bls.n	8006d30 <__udivmoddi4+0x8c>
 8006d1c:	192c      	adds	r4, r5, r4
 8006d1e:	f100 33ff 	add.w	r3, r0, #4294967295
 8006d22:	f080 8107 	bcs.w	8006f34 <__udivmoddi4+0x290>
 8006d26:	45a4      	cmp	ip, r4
 8006d28:	f240 8104 	bls.w	8006f34 <__udivmoddi4+0x290>
 8006d2c:	3802      	subs	r0, #2
 8006d2e:	442c      	add	r4, r5
 8006d30:	ea40 4007 	orr.w	r0, r0, r7, lsl #16
 8006d34:	eba4 040c 	sub.w	r4, r4, ip
 8006d38:	2700      	movs	r7, #0
 8006d3a:	b11e      	cbz	r6, 8006d44 <__udivmoddi4+0xa0>
 8006d3c:	40d4      	lsrs	r4, r2
 8006d3e:	2300      	movs	r3, #0
 8006d40:	e9c6 4300 	strd	r4, r3, [r6]
 8006d44:	4639      	mov	r1, r7
 8006d46:	e8bd 87f0 	ldmia.w	sp!, {r4, r5, r6, r7, r8, r9, sl, pc}
 8006d4a:	428b      	cmp	r3, r1
 8006d4c:	d909      	bls.n	8006d62 <__udivmoddi4+0xbe>
 8006d4e:	2e00      	cmp	r6, #0
 8006d50:	f000 80eb 	beq.w	8006f2a <__udivmoddi4+0x286>
 8006d54:	2700      	movs	r7, #0
 8006d56:	e9c6 0100 	strd	r0, r1, [r6]
 8006d5a:	4638      	mov	r0, r7
 8006d5c:	4639      	mov	r1, r7
 8006d5e:	e8bd 87f0 	ldmia.w	sp!, {r4, r5, r6, r7, r8, r9, sl, pc}
 8006d62:	fab3 f783 	clz	r7, r3
 8006d66:	2f00      	cmp	r7, #0
 8006d68:	d147      	bne.n	8006dfa <__udivmoddi4+0x156>
 8006d6a:	428b      	cmp	r3, r1
 8006d6c:	d302      	bcc.n	8006d74 <__udivmoddi4+0xd0>
 8006d6e:	4282      	cmp	r2, r0
 8006d70:	f200 80fa 	bhi.w	8006f68 <__udivmoddi4+0x2c4>
 8006d74:	1a84      	subs	r4, r0, r2
 8006d76:	eb61 0303 	sbc.w	r3, r1, r3
 8006d7a:	2001      	movs	r0, #1
 8006d7c:	4698      	mov	r8, r3
 8006d7e:	2e00      	cmp	r6, #0
 8006d80:	d0e0      	beq.n	8006d44 <__udivmoddi4+0xa0>
 8006d82:	e9c6 4800 	strd	r4, r8, [r6]
 8006d86:	e7dd      	b.n	8006d44 <__udivmoddi4+0xa0>
 8006d88:	b902      	cbnz	r2, 8006d8c <__udivmoddi4+0xe8>
 8006d8a:	deff      	udf	#255	; 0xff
 8006d8c:	fab2 f282 	clz	r2, r2
 8006d90:	2a00      	cmp	r2, #0
 8006d92:	f040 808f 	bne.w	8006eb4 <__udivmoddi4+0x210>
 8006d96:	1b49      	subs	r1, r1, r5
 8006d98:	ea4f 4e15 	mov.w	lr, r5, lsr #16
 8006d9c:	fa1f f885 	uxth.w	r8, r5
 8006da0:	2701      	movs	r7, #1
 8006da2:	fbb1 fcfe 	udiv	ip, r1, lr
 8006da6:	0c23      	lsrs	r3, r4, #16
 8006da8:	fb0e 111c 	mls	r1, lr, ip, r1
 8006dac:	ea43 4301 	orr.w	r3, r3, r1, lsl #16
 8006db0:	fb08 f10c 	mul.w	r1, r8, ip
 8006db4:	4299      	cmp	r1, r3
 8006db6:	d907      	bls.n	8006dc8 <__udivmoddi4+0x124>
 8006db8:	18eb      	adds	r3, r5, r3
 8006dba:	f10c 30ff 	add.w	r0, ip, #4294967295
 8006dbe:	d202      	bcs.n	8006dc6 <__udivmoddi4+0x122>
 8006dc0:	4299      	cmp	r1, r3
 8006dc2:	f200 80cd 	bhi.w	8006f60 <__udivmoddi4+0x2bc>
 8006dc6:	4684      	mov	ip, r0
 8006dc8:	1a59      	subs	r1, r3, r1
 8006dca:	b2a3      	uxth	r3, r4
 8006dcc:	fbb1 f0fe 	udiv	r0, r1, lr
 8006dd0:	fb0e 1410 	mls	r4, lr, r0, r1
 8006dd4:	ea43 4404 	orr.w	r4, r3, r4, lsl #16
 8006dd8:	fb08 f800 	mul.w	r8, r8, r0
 8006ddc:	45a0      	cmp	r8, r4
 8006dde:	d907      	bls.n	8006df0 <__udivmoddi4+0x14c>
 8006de0:	192c      	adds	r4, r5, r4
 8006de2:	f100 33ff 	add.w	r3, r0, #4294967295
 8006de6:	d202      	bcs.n	8006dee <__udivmoddi4+0x14a>
 8006de8:	45a0      	cmp	r8, r4
 8006dea:	f200 80b6 	bhi.w	8006f5a <__udivmoddi4+0x2b6>
 8006dee:	4618      	mov	r0, r3
 8006df0:	eba4 0408 	sub.w	r4, r4, r8
 8006df4:	ea40 400c 	orr.w	r0, r0, ip, lsl #16
 8006df8:	e79f      	b.n	8006d3a <__udivmoddi4+0x96>
 8006dfa:	f1c7 0c20 	rsb	ip, r7, #32
 8006dfe:	40bb      	lsls	r3, r7
 8006e00:	fa22 fe0c 	lsr.w	lr, r2, ip
 8006e04:	ea4e 0e03 	orr.w	lr, lr, r3
 8006e08:	fa01 f407 	lsl.w	r4, r1, r7
 8006e0c:	fa20 f50c 	lsr.w	r5, r0, ip
 8006e10:	fa21 f30c 	lsr.w	r3, r1, ip
 8006e14:	ea4f 481e 	mov.w	r8, lr, lsr #16
 8006e18:	4325      	orrs	r5, r4
 8006e1a:	fbb3 f9f8 	udiv	r9, r3, r8
 8006e1e:	0c2c      	lsrs	r4, r5, #16
 8006e20:	fb08 3319 	mls	r3, r8, r9, r3
 8006e24:	fa1f fa8e 	uxth.w	sl, lr
 8006e28:	ea44 4303 	orr.w	r3, r4, r3, lsl #16
 8006e2c:	fb09 f40a 	mul.w	r4, r9, sl
 8006e30:	429c      	cmp	r4, r3
 8006e32:	fa02 f207 	lsl.w	r2, r2, r7
 8006e36:	fa00 f107 	lsl.w	r1, r0, r7
 8006e3a:	d90b      	bls.n	8006e54 <__udivmoddi4+0x1b0>
 8006e3c:	eb1e 0303 	adds.w	r3, lr, r3
 8006e40:	f109 30ff 	add.w	r0, r9, #4294967295
 8006e44:	f080 8087 	bcs.w	8006f56 <__udivmoddi4+0x2b2>
 8006e48:	429c      	cmp	r4, r3
 8006e4a:	f240 8084 	bls.w	8006f56 <__udivmoddi4+0x2b2>
 8006e4e:	f1a9 0902 	sub.w	r9, r9, #2
 8006e52:	4473      	add	r3, lr
 8006e54:	1b1b      	subs	r3, r3, r4
 8006e56:	b2ad      	uxth	r5, r5
 8006e58:	fbb3 f0f8 	udiv	r0, r3, r8
 8006e5c:	fb08 3310 	mls	r3, r8, r0, r3
 8006e60:	ea45 4403 	orr.w	r4, r5, r3, lsl #16
 8006e64:	fb00 fa0a 	mul.w	sl, r0, sl
 8006e68:	45a2      	cmp	sl, r4
 8006e6a:	d908      	bls.n	8006e7e <__udivmoddi4+0x1da>
 8006e6c:	eb1e 0404 	adds.w	r4, lr, r4
 8006e70:	f100 33ff 	add.w	r3, r0, #4294967295
 8006e74:	d26b      	bcs.n	8006f4e <__udivmoddi4+0x2aa>
 8006e76:	45a2      	cmp	sl, r4
 8006e78:	d969      	bls.n	8006f4e <__udivmoddi4+0x2aa>
 8006e7a:	3802      	subs	r0, #2
 8006e7c:	4474      	add	r4, lr
 8006e7e:	ea40 4009 	orr.w	r0, r0, r9, lsl #16
 8006e82:	fba0 8902 	umull	r8, r9, r0, r2
 8006e86:	eba4 040a 	sub.w	r4, r4, sl
 8006e8a:	454c      	cmp	r4, r9
 8006e8c:	46c2      	mov	sl, r8
 8006e8e:	464b      	mov	r3, r9
 8006e90:	d354      	bcc.n	8006f3c <__udivmoddi4+0x298>
 8006e92:	d051      	beq.n	8006f38 <__udivmoddi4+0x294>
 8006e94:	2e00      	cmp	r6, #0
 8006e96:	d069      	beq.n	8006f6c <__udivmoddi4+0x2c8>
 8006e98:	ebb1 050a 	subs.w	r5, r1, sl
 8006e9c:	eb64 0403 	sbc.w	r4, r4, r3
 8006ea0:	fa04 fc0c 	lsl.w	ip, r4, ip
 8006ea4:	40fd      	lsrs	r5, r7
 8006ea6:	40fc      	lsrs	r4, r7
 8006ea8:	ea4c 0505 	orr.w	r5, ip, r5
 8006eac:	e9c6 5400 	strd	r5, r4, [r6]
 8006eb0:	2700      	movs	r7, #0
 8006eb2:	e747      	b.n	8006d44 <__udivmoddi4+0xa0>
 8006eb4:	f1c2 0320 	rsb	r3, r2, #32
 8006eb8:	fa20 f703 	lsr.w	r7, r0, r3
 8006ebc:	4095      	lsls	r5, r2
 8006ebe:	fa01 f002 	lsl.w	r0, r1, r2
 8006ec2:	fa21 f303 	lsr.w	r3, r1, r3
 8006ec6:	ea4f 4e15 	mov.w	lr, r5, lsr #16
 8006eca:	4338      	orrs	r0, r7
 8006ecc:	0c01      	lsrs	r1, r0, #16
 8006ece:	fbb3 f7fe 	udiv	r7, r3, lr
 8006ed2:	fa1f f885 	uxth.w	r8, r5
 8006ed6:	fb0e 3317 	mls	r3, lr, r7, r3
 8006eda:	ea41 4103 	orr.w	r1, r1, r3, lsl #16
 8006ede:	fb07 f308 	mul.w	r3, r7, r8
 8006ee2:	428b      	cmp	r3, r1
 8006ee4:	fa04 f402 	lsl.w	r4, r4, r2
 8006ee8:	d907      	bls.n	8006efa <__udivmoddi4+0x256>
 8006eea:	1869      	adds	r1, r5, r1
 8006eec:	f107 3cff 	add.w	ip, r7, #4294967295
 8006ef0:	d22f      	bcs.n	8006f52 <__udivmoddi4+0x2ae>
 8006ef2:	428b      	cmp	r3, r1
 8006ef4:	d92d      	bls.n	8006f52 <__udivmoddi4+0x2ae>
 8006ef6:	3f02      	subs	r7, #2
 8006ef8:	4429      	add	r1, r5
 8006efa:	1acb      	subs	r3, r1, r3
 8006efc:	b281      	uxth	r1, r0
 8006efe:	fbb3 f0fe 	udiv	r0, r3, lr
 8006f02:	fb0e 3310 	mls	r3, lr, r0, r3
 8006f06:	ea41 4103 	orr.w	r1, r1, r3, lsl #16
 8006f0a:	fb00 f308 	mul.w	r3, r0, r8
 8006f0e:	428b      	cmp	r3, r1
 8006f10:	d907      	bls.n	8006f22 <__udivmoddi4+0x27e>
 8006f12:	1869      	adds	r1, r5, r1
 8006f14:	f100 3cff 	add.w	ip, r0, #4294967295
 8006f18:	d217      	bcs.n	8006f4a <__udivmoddi4+0x2a6>
 8006f1a:	428b      	cmp	r3, r1
 8006f1c:	d915      	bls.n	8006f4a <__udivmoddi4+0x2a6>
 8006f1e:	3802      	subs	r0, #2
 8006f20:	4429      	add	r1, r5
 8006f22:	1ac9      	subs	r1, r1, r3
 8006f24:	ea40 4707 	orr.w	r7, r0, r7, lsl #16
 8006f28:	e73b      	b.n	8006da2 <__udivmoddi4+0xfe>
 8006f2a:	4637      	mov	r7, r6
 8006f2c:	4630      	mov	r0, r6
 8006f2e:	e709      	b.n	8006d44 <__udivmoddi4+0xa0>
 8006f30:	4607      	mov	r7, r0
 8006f32:	e6e7      	b.n	8006d04 <__udivmoddi4+0x60>
 8006f34:	4618      	mov	r0, r3
 8006f36:	e6fb      	b.n	8006d30 <__udivmoddi4+0x8c>
 8006f38:	4541      	cmp	r1, r8
 8006f3a:	d2ab      	bcs.n	8006e94 <__udivmoddi4+0x1f0>
 8006f3c:	ebb8 0a02 	subs.w	sl, r8, r2
 8006f40:	eb69 020e 	sbc.w	r2, r9, lr
 8006f44:	3801      	subs	r0, #1
 8006f46:	4613      	mov	r3, r2
 8006f48:	e7a4      	b.n	8006e94 <__udivmoddi4+0x1f0>
 8006f4a:	4660      	mov	r0, ip
 8006f4c:	e7e9      	b.n	8006f22 <__udivmoddi4+0x27e>
 8006f4e:	4618      	mov	r0, r3
 8006f50:	e795      	b.n	8006e7e <__udivmoddi4+0x1da>
 8006f52:	4667      	mov	r7, ip
 8006f54:	e7d1      	b.n	8006efa <__udivmoddi4+0x256>
 8006f56:	4681      	mov	r9, r0
 8006f58:	e77c      	b.n	8006e54 <__udivmoddi4+0x1b0>
 8006f5a:	3802      	subs	r0, #2
 8006f5c:	442c      	add	r4, r5
 8006f5e:	e747      	b.n	8006df0 <__udivmoddi4+0x14c>
 8006f60:	f1ac 0c02 	sub.w	ip, ip, #2
 8006f64:	442b      	add	r3, r5
 8006f66:	e72f      	b.n	8006dc8 <__udivmoddi4+0x124>
 8006f68:	4638      	mov	r0, r7
 8006f6a:	e708      	b.n	8006d7e <__udivmoddi4+0xda>
 8006f6c:	4637      	mov	r7, r6
 8006f6e:	e6e9      	b.n	8006d44 <__udivmoddi4+0xa0>

08006f70 <__aeabi_idiv0>:
 8006f70:	4770      	bx	lr
 8006f72:	bf00      	nop

08006f74 <Reset_Handler>:

    .section	.text.Reset_Handler
	.weak	Reset_Handler
	.type	Reset_Handler, %function
Reset_Handler:
  ldr   sp, =_estack    /* Atollic update: set stack pointer */
 8006f74:	f8df d038 	ldr.w	sp, [pc, #56]	; 8006fb0 <LoopForever+0x2>

/* Copy the data segment initializers from flash to SRAM */
  movs	r1, #0
 8006f78:	2100      	movs	r1, #0
  b	LoopCopyDataInit
 8006f7a:	e003      	b.n	8006f84 <LoopCopyDataInit>

08006f7c <CopyDataInit>:

CopyDataInit:
	ldr	r3, =_sidata
 8006f7c:	4b0d      	ldr	r3, [pc, #52]	; (8006fb4 <LoopForever+0x6>)
	ldr	r3, [r3, r1]
 8006f7e:	585b      	ldr	r3, [r3, r1]
	str	r3, [r0, r1]
 8006f80:	5043      	str	r3, [r0, r1]
	adds	r1, r1, #4
 8006f82:	3104      	adds	r1, #4

08006f84 <LoopCopyDataInit>:

LoopCopyDataInit:
	ldr	r0, =_sdata
 8006f84:	480c      	ldr	r0, [pc, #48]	; (8006fb8 <LoopForever+0xa>)
	ldr	r3, =_edata
 8006f86:	4b0d      	ldr	r3, [pc, #52]	; (8006fbc <LoopForever+0xe>)
	adds	r2, r0, r1
 8006f88:	1842      	adds	r2, r0, r1
	cmp	r2, r3
 8006f8a:	429a      	cmp	r2, r3
	bcc	CopyDataInit
 8006f8c:	d3f6      	bcc.n	8006f7c <CopyDataInit>
	ldr	r2, =_sbss
 8006f8e:	4a0c      	ldr	r2, [pc, #48]	; (8006fc0 <LoopForever+0x12>)
	b	LoopFillZerobss
 8006f90:	e002      	b.n	8006f98 <LoopFillZerobss>

08006f92 <FillZerobss>:
/* Zero fill the bss segment. */
FillZerobss:
	movs	r3, #0
 8006f92:	2300      	movs	r3, #0
	str	r3, [r2], #4
 8006f94:	f842 3b04 	str.w	r3, [r2], #4

08006f98 <LoopFillZerobss>:

LoopFillZerobss:
	ldr	r3, = _ebss
 8006f98:	4b0a      	ldr	r3, [pc, #40]	; (8006fc4 <LoopForever+0x16>)
	cmp	r2, r3
 8006f9a:	429a      	cmp	r2, r3
	bcc	FillZerobss
 8006f9c:	d3f9      	bcc.n	8006f92 <FillZerobss>

/* Call the clock system intitialization function.*/
    bl  SystemInit
 8006f9e:	f000 f815 	bl	8006fcc <SystemInit>
/* Call static constructors */
    bl __libc_init_array
 8006fa2:	f001 fbf3 	bl	800878c <__libc_init_array>
/* Call the application's entry point.*/
    bl  BIOS_API_Init
 8006fa6:	f000 f8ab 	bl	8007100 <BIOS_API_Init>
	bl	main
 8006faa:	f001 fbdd 	bl	8008768 <main>

08006fae <LoopForever>:

LoopForever:
    b LoopForever
 8006fae:	e7fe      	b.n	8006fae <LoopForever>
  ldr   sp, =_estack    /* Atollic update: set stack pointer */
 8006fb0:	2000ffff 	.word	0x2000ffff
	ldr	r3, =_sidata
 8006fb4:	08033c98 	.word	0x08033c98
	ldr	r0, =_sdata
 8006fb8:	20000000 	.word	0x20000000
	ldr	r3, =_edata
 8006fbc:	20000b08 	.word	0x20000b08
	ldr	r2, =_sbss
 8006fc0:	20000b08 	.word	0x20000b08
	ldr	r3, = _ebss
 8006fc4:	200094f0 	.word	0x200094f0

08006fc8 <ADC1_IRQHandler>:
 * @retval : None
*/
    .section	.text.Default_Handler,"ax",%progbits
Default_Handler:
Infinite_Loop:
	b	Infinite_Loop
 8006fc8:	e7fe      	b.n	8006fc8 <ADC1_IRQHandler>
	...

08006fcc <SystemInit>:
  * @param  None
  * @retval None
  */

void SystemInit(void)
{
 8006fcc:	b580      	push	{r7, lr}
 8006fce:	af00      	add	r7, sp, #0
  /* FPU settings ------------------------------------------------------------*/
  #if (__FPU_PRESENT == 1) && (__FPU_USED == 1)
    SCB->CPACR |= ((3UL << 10*2)|(3UL << 11*2));  /* set CP10 and CP11 Full Access */
 8006fd0:	4b17      	ldr	r3, [pc, #92]	; (8007030 <SystemInit+0x64>)
 8006fd2:	f8d3 3088 	ldr.w	r3, [r3, #136]	; 0x88
 8006fd6:	4a16      	ldr	r2, [pc, #88]	; (8007030 <SystemInit+0x64>)
 8006fd8:	f443 0370 	orr.w	r3, r3, #15728640	; 0xf00000
 8006fdc:	f8c2 3088 	str.w	r3, [r2, #136]	; 0x88
  #endif

  /* Reset the RCC clock configuration to the default reset state ------------*/
  /* Set MSION bit */
  RCC->CR |= RCC_CR_MSION;
 8006fe0:	4b14      	ldr	r3, [pc, #80]	; (8007034 <SystemInit+0x68>)
 8006fe2:	681b      	ldr	r3, [r3, #0]
 8006fe4:	4a13      	ldr	r2, [pc, #76]	; (8007034 <SystemInit+0x68>)
 8006fe6:	f043 0301 	orr.w	r3, r3, #1
 8006fea:	6013      	str	r3, [r2, #0]

  /* Reset CFGR register */
  RCC->CFGR = 0x00000000U;
 8006fec:	4b11      	ldr	r3, [pc, #68]	; (8007034 <SystemInit+0x68>)
 8006fee:	2200      	movs	r2, #0
 8006ff0:	609a      	str	r2, [r3, #8]

  /* Reset HSEON, CSSON , HSION, and PLLON bits */
  RCC->CR &= 0xEAF6FFFFU;
 8006ff2:	4b10      	ldr	r3, [pc, #64]	; (8007034 <SystemInit+0x68>)
 8006ff4:	681b      	ldr	r3, [r3, #0]
 8006ff6:	4a0f      	ldr	r2, [pc, #60]	; (8007034 <SystemInit+0x68>)
 8006ff8:	f023 53a8 	bic.w	r3, r3, #352321536	; 0x15000000
 8006ffc:	f423 2310 	bic.w	r3, r3, #589824	; 0x90000
 8007000:	6013      	str	r3, [r2, #0]

  /* Reset PLLCFGR register */
  RCC->PLLCFGR = 0x00001000U;
 8007002:	4b0c      	ldr	r3, [pc, #48]	; (8007034 <SystemInit+0x68>)
 8007004:	f44f 5280 	mov.w	r2, #4096	; 0x1000
 8007008:	60da      	str	r2, [r3, #12]

  /* Reset HSEBYP bit */
  RCC->CR &= 0xFFFBFFFFU;
 800700a:	4b0a      	ldr	r3, [pc, #40]	; (8007034 <SystemInit+0x68>)
 800700c:	681b      	ldr	r3, [r3, #0]
 800700e:	4a09      	ldr	r2, [pc, #36]	; (8007034 <SystemInit+0x68>)
 8007010:	f423 2380 	bic.w	r3, r3, #262144	; 0x40000
 8007014:	6013      	str	r3, [r2, #0]

  /* Disable all interrupts */
  RCC->CIER = 0x00000000U;
 8007016:	4b07      	ldr	r3, [pc, #28]	; (8007034 <SystemInit+0x68>)
 8007018:	2200      	movs	r2, #0
 800701a:	619a      	str	r2, [r3, #24]

  SysClock_Config(0xB0);
 800701c:	20b0      	movs	r0, #176	; 0xb0
 800701e:	f000 f80b 	bl	8007038 <SysClock_Config>
  /* Configure the Vector Table location add offset address ------------------*/
#ifdef VECT_TAB_SRAM
  SCB->VTOR = SRAM_BASE | VECT_TAB_OFFSET; /* Vector Table Relocation in Internal SRAM */
#else
  SCB->VTOR = FLASH_BASE | VECT_TAB_OFFSET; /* Vector Table Relocation in Internal FLASH */
 8007022:	4b03      	ldr	r3, [pc, #12]	; (8007030 <SystemInit+0x64>)
 8007024:	f04f 6200 	mov.w	r2, #134217728	; 0x8000000
 8007028:	609a      	str	r2, [r3, #8]
#endif
}
 800702a:	bf00      	nop
 800702c:	bd80      	pop	{r7, pc}
 800702e:	bf00      	nop
 8007030:	e000ed00 	.word	0xe000ed00
 8007034:	40021000 	.word	0x40021000

08007038 <SysClock_Config>:
//10
//msirangeMSI
//
//=====================================================================
uint8_t SysClock_Config(uint32_t msirange)
{
 8007038:	b480      	push	{r7}
 800703a:	b087      	sub	sp, #28
 800703c:	af00      	add	r7, sp, #0
 800703e:	6078      	str	r0, [r7, #4]
  uint32_t vos;
  uint32_t latency = 0;  /* default value 0WS */
 8007040:	2300      	movs	r3, #0
 8007042:	613b      	str	r3, [r7, #16]

  if(READ_BIT(RCC->APB1ENR1, RCC_APB1ENR1_PWREN) != 0U)
 8007044:	4b2b      	ldr	r3, [pc, #172]	; (80070f4 <SysClock_Config+0xbc>)
 8007046:	6d9b      	ldr	r3, [r3, #88]	; 0x58
 8007048:	f003 5380 	and.w	r3, r3, #268435456	; 0x10000000
 800704c:	2b00      	cmp	r3, #0
 800704e:	d005      	beq.n	800705c <SysClock_Config+0x24>
  {
	vos = (PWR->CR1 & PWR_CR1_VOS);
 8007050:	4b29      	ldr	r3, [pc, #164]	; (80070f8 <SysClock_Config+0xc0>)
 8007052:	681b      	ldr	r3, [r3, #0]
 8007054:	f403 63c0 	and.w	r3, r3, #1536	; 0x600
 8007058:	617b      	str	r3, [r7, #20]
 800705a:	e016      	b.n	800708a <SysClock_Config+0x52>
  }
  else
  {
	  do {
		   __IO uint32_t tmpreg;
		   SET_BIT(RCC->APB1ENR1, RCC_APB1ENR1_PWREN);
 800705c:	4b25      	ldr	r3, [pc, #148]	; (80070f4 <SysClock_Config+0xbc>)
 800705e:	6d9b      	ldr	r3, [r3, #88]	; 0x58
 8007060:	4a24      	ldr	r2, [pc, #144]	; (80070f4 <SysClock_Config+0xbc>)
 8007062:	f043 5380 	orr.w	r3, r3, #268435456	; 0x10000000
 8007066:	6593      	str	r3, [r2, #88]	; 0x58
		   /* Delay after an RCC peripheral clock enabling */
		   tmpreg = READ_BIT(RCC->APB1ENR1, RCC_APB1ENR1_PWREN);
 8007068:	4b22      	ldr	r3, [pc, #136]	; (80070f4 <SysClock_Config+0xbc>)
 800706a:	6d9b      	ldr	r3, [r3, #88]	; 0x58
 800706c:	f003 5380 	and.w	r3, r3, #268435456	; 0x10000000
 8007070:	60fb      	str	r3, [r7, #12]
		   (void)(tmpreg);
 8007072:	68fb      	ldr	r3, [r7, #12]
		 } while(0);
	vos = (PWR->CR1 & PWR_CR1_VOS);
 8007074:	4b20      	ldr	r3, [pc, #128]	; (80070f8 <SysClock_Config+0xc0>)
 8007076:	681b      	ldr	r3, [r3, #0]
 8007078:	f403 63c0 	and.w	r3, r3, #1536	; 0x600
 800707c:	617b      	str	r3, [r7, #20]
	CLEAR_BIT(RCC->APB1ENR1, RCC_APB1ENR1_PWREN);
 800707e:	4b1d      	ldr	r3, [pc, #116]	; (80070f4 <SysClock_Config+0xbc>)
 8007080:	6d9b      	ldr	r3, [r3, #88]	; 0x58
 8007082:	4a1c      	ldr	r2, [pc, #112]	; (80070f4 <SysClock_Config+0xbc>)
 8007084:	f023 5380 	bic.w	r3, r3, #268435456	; 0x10000000
 8007088:	6593      	str	r3, [r2, #88]	; 0x58
  }

  if(vos == PWR_CR1_VOS_0)
 800708a:	697b      	ldr	r3, [r7, #20]
 800708c:	f5b3 7f00 	cmp.w	r3, #512	; 0x200
 8007090:	d10a      	bne.n	80070a8 <SysClock_Config+0x70>
  {
	if(msirange > RCC_CR_MSIRANGE_8)
 8007092:	687b      	ldr	r3, [r7, #4]
 8007094:	2b80      	cmp	r3, #128	; 0x80
 8007096:	d907      	bls.n	80070a8 <SysClock_Config+0x70>
	{
	  /* MSI > 16Mhz */
	  if(msirange > RCC_CR_MSIRANGE_10)
 8007098:	687b      	ldr	r3, [r7, #4]
 800709a:	2ba0      	cmp	r3, #160	; 0xa0
 800709c:	d902      	bls.n	80070a4 <SysClock_Config+0x6c>
	  {
		/* MSI 48Mhz */
		latency = 2; /* 2WS */
 800709e:	2302      	movs	r3, #2
 80070a0:	613b      	str	r3, [r7, #16]
 80070a2:	e001      	b.n	80070a8 <SysClock_Config+0x70>
	  }
	  else
	  {
		/* MSI 24Mhz or 32Mhz */
		latency = 1; /* 1WS */
 80070a4:	2301      	movs	r3, #1
 80070a6:	613b      	str	r3, [r7, #16]
	  }
	}
	/* else MSI <= 16Mhz default FLASH_LATENCY_0 0WS */
  }

  MODIFY_REG(FLASH->ACR, FLASH_ACR_LATENCY, (latency));
 80070a8:	4b14      	ldr	r3, [pc, #80]	; (80070fc <SysClock_Config+0xc4>)
 80070aa:	681b      	ldr	r3, [r3, #0]
 80070ac:	f023 0207 	bic.w	r2, r3, #7
 80070b0:	4912      	ldr	r1, [pc, #72]	; (80070fc <SysClock_Config+0xc4>)
 80070b2:	693b      	ldr	r3, [r7, #16]
 80070b4:	4313      	orrs	r3, r2
 80070b6:	600b      	str	r3, [r1, #0]

   /* Check that the new number of wait states is taken into account to access the Flash
      memory by reading the FLASH_ACR register */
   if(READ_BIT(FLASH->ACR, FLASH_ACR_LATENCY) != latency)
 80070b8:	4b10      	ldr	r3, [pc, #64]	; (80070fc <SysClock_Config+0xc4>)
 80070ba:	681b      	ldr	r3, [r3, #0]
 80070bc:	f003 0307 	and.w	r3, r3, #7
 80070c0:	693a      	ldr	r2, [r7, #16]
 80070c2:	429a      	cmp	r2, r3
 80070c4:	d001      	beq.n	80070ca <SysClock_Config+0x92>
   {
     return 0;
 80070c6:	2300      	movs	r3, #0
 80070c8:	e00e      	b.n	80070e8 <SysClock_Config+0xb0>
   }
   SET_BIT(RCC->CR, RCC_CR_MSIRGSEL);
 80070ca:	4b0a      	ldr	r3, [pc, #40]	; (80070f4 <SysClock_Config+0xbc>)
 80070cc:	681b      	ldr	r3, [r3, #0]
 80070ce:	4a09      	ldr	r2, [pc, #36]	; (80070f4 <SysClock_Config+0xbc>)
 80070d0:	f043 0308 	orr.w	r3, r3, #8
 80070d4:	6013      	str	r3, [r2, #0]
   	MODIFY_REG(RCC->CR, RCC_CR_MSIRANGE, (0xB0));
 80070d6:	4b07      	ldr	r3, [pc, #28]	; (80070f4 <SysClock_Config+0xbc>)
 80070d8:	681b      	ldr	r3, [r3, #0]
 80070da:	f023 03f0 	bic.w	r3, r3, #240	; 0xf0
 80070de:	4a05      	ldr	r2, [pc, #20]	; (80070f4 <SysClock_Config+0xbc>)
 80070e0:	f043 03b0 	orr.w	r3, r3, #176	; 0xb0
 80070e4:	6013      	str	r3, [r2, #0]
   return 1;
 80070e6:	2301      	movs	r3, #1

}
 80070e8:	4618      	mov	r0, r3
 80070ea:	371c      	adds	r7, #28
 80070ec:	46bd      	mov	sp, r7
 80070ee:	f85d 7b04 	ldr.w	r7, [sp], #4
 80070f2:	4770      	bx	lr
 80070f4:	40021000 	.word	0x40021000
 80070f8:	40007000 	.word	0x40007000
 80070fc:	40022000 	.word	0x40022000

08007100 <BIOS_API_Init>:
//
//1BIOS
//          2UserBOIS
//======================================================================
void  BIOS_API_Init()
{
 8007100:	b580      	push	{r7, lr}
 8007102:	f6ad 0d08 	subw	sp, sp, #2056	; 0x808
 8007106:	af00      	add	r7, sp, #0
#if (GEC_USER_SECTOR_START!=0)
	uint_32 user[MCU_SECTORSIZE/4];
	void ** bios=MCU_FLASH_ADDR_START;
 8007108:	f04f 6300 	mov.w	r3, #134217728	; 0x8000000
 800710c:	f8c7 3804 	str.w	r3, [r7, #2052]	; 0x804
//1
      //201911081/2 --------------------------
      component_fun=(void **)(GEC_COMPONENT_LST_START*MCU_SECTORSIZE);    //BIOS
 8007110:	4b22      	ldr	r3, [pc, #136]	; (800719c <BIOS_API_Init+0x9c>)
 8007112:	f44f 4218 	mov.w	r2, #38912	; 0x9800
 8007116:	601a      	str	r2, [r3, #0]
      //201911081/2----------------------------------------------
      //USER
	  flash_read_physical((uint_8 *)user,GEC_USER_SECTOR_START*MCU_SECTORSIZE+MCU_FLASH_ADDR_START,MCU_SECTORSIZE);
 8007118:	4b20      	ldr	r3, [pc, #128]	; (800719c <BIOS_API_Init+0x9c>)
 800711a:	681b      	ldr	r3, [r3, #0]
 800711c:	3370      	adds	r3, #112	; 0x70
 800711e:	681b      	ldr	r3, [r3, #0]
 8007120:	1d38      	adds	r0, r7, #4
 8007122:	f44f 6200 	mov.w	r2, #2048	; 0x800
 8007126:	491e      	ldr	r1, [pc, #120]	; (80071a0 <BIOS_API_Init+0xa0>)
 8007128:	4798      	blx	r3
	  //201911082/2 --------------------------
	  if((user[BIOS_UART_UPDATE_IRQn] != (uint_32)bios[BIOS_UART_UPDATE_IRQn]) //USERBIOS
 800712a:	1d3b      	adds	r3, r7, #4
 800712c:	f8d3 30dc 	ldr.w	r3, [r3, #220]	; 0xdc
 8007130:	f8d7 2804 	ldr.w	r2, [r7, #2052]	; 0x804
 8007134:	32dc      	adds	r2, #220	; 0xdc
 8007136:	6812      	ldr	r2, [r2, #0]
 8007138:	4293      	cmp	r3, r2
 800713a:	d108      	bne.n	800714e <BIOS_API_Init+0x4e>
	  || (user[BIOS_TIMER_IRQn] != (uint_32)bios[BIOS_TIMER_IRQn]))    //BIOS
 800713c:	1d3b      	adds	r3, r7, #4
 800713e:	f8d3 30b0 	ldr.w	r3, [r3, #176]	; 0xb0
 8007142:	f8d7 2804 	ldr.w	r2, [r7, #2052]	; 0x804
 8007146:	32b0      	adds	r2, #176	; 0xb0
 8007148:	6812      	ldr	r2, [r2, #0]
 800714a:	4293      	cmp	r3, r2
 800714c:	d01e      	beq.n	800718c <BIOS_API_Init+0x8c>
	  //0xffff0xffff0xffff
	  {
//2UserBIOS_UARTBIOS_TIMER
		  flash_erase(GEC_USER_SECTOR_START);
 800714e:	4b13      	ldr	r3, [pc, #76]	; (800719c <BIOS_API_Init+0x9c>)
 8007150:	681b      	ldr	r3, [r3, #0]
 8007152:	3360      	adds	r3, #96	; 0x60
 8007154:	681b      	ldr	r3, [r3, #0]
 8007156:	201a      	movs	r0, #26
 8007158:	4798      	blx	r3
		  //USERBIOS
		  user[BIOS_UART_UPDATE_IRQn]=(uint_32)bios[BIOS_UART_UPDATE_IRQn];
 800715a:	f8d7 3804 	ldr.w	r3, [r7, #2052]	; 0x804
 800715e:	33dc      	adds	r3, #220	; 0xdc
 8007160:	681b      	ldr	r3, [r3, #0]
 8007162:	461a      	mov	r2, r3
 8007164:	1d3b      	adds	r3, r7, #4
 8007166:	f8c3 20dc 	str.w	r2, [r3, #220]	; 0xdc
		  //USERBIOS
		  user[BIOS_TIMER_IRQn]=(uint_32)bios[BIOS_TIMER_IRQn];
 800716a:	f8d7 3804 	ldr.w	r3, [r7, #2052]	; 0x804
 800716e:	33b0      	adds	r3, #176	; 0xb0
 8007170:	681b      	ldr	r3, [r3, #0]
 8007172:	461a      	mov	r2, r3
 8007174:	1d3b      	adds	r3, r7, #4
 8007176:	f8c3 20b0 	str.w	r2, [r3, #176]	; 0xb0
		  flash_write_physical(GEC_USER_SECTOR_START*MCU_SECTORSIZE+MCU_FLASH_ADDR_START,MCU_SECTORSIZE,(uint_8 *)user);
 800717a:	4b08      	ldr	r3, [pc, #32]	; (800719c <BIOS_API_Init+0x9c>)
 800717c:	681b      	ldr	r3, [r3, #0]
 800717e:	3368      	adds	r3, #104	; 0x68
 8007180:	681b      	ldr	r3, [r3, #0]
 8007182:	1d3a      	adds	r2, r7, #4
 8007184:	f44f 6100 	mov.w	r1, #2048	; 0x800
 8007188:	4805      	ldr	r0, [pc, #20]	; (80071a0 <BIOS_API_Init+0xa0>)
 800718a:	4798      	blx	r3
	  }
	  //201911082/2----------------------------------------------
//3
	  SCB->VTOR = (uint_32)(GEC_USER_SECTOR_START*MCU_SECTORSIZE+MCU_FLASH_ADDR_START);  //USERFLASH
 800718c:	4b05      	ldr	r3, [pc, #20]	; (80071a4 <BIOS_API_Init+0xa4>)
 800718e:	4a04      	ldr	r2, [pc, #16]	; (80071a0 <BIOS_API_Init+0xa0>)
 8007190:	609a      	str	r2, [r3, #8]
#endif  
}
 8007192:	bf00      	nop
 8007194:	f607 0708 	addw	r7, r7, #2056	; 0x808
 8007198:	46bd      	mov	sp, r7
 800719a:	bd80      	pop	{r7, pc}
 800719c:	200094e8 	.word	0x200094e8
 80071a0:	0800d000 	.word	0x0800d000
 80071a4:	e000ed00 	.word	0xe000ed00

080071a8 <out_char>:
//uartNo:UARTAUARTBUARTCUART_DEBUG
//       data:
//
//======================================================================

void out_char(char data) {
 80071a8:	b580      	push	{r7, lr}
 80071aa:	b082      	sub	sp, #8
 80071ac:	af00      	add	r7, sp, #0
 80071ae:	4603      	mov	r3, r0
 80071b0:	71fb      	strb	r3, [r7, #7]
	uart_send1(UART_printf, data);
 80071b2:	4b06      	ldr	r3, [pc, #24]	; (80071cc <out_char+0x24>)
 80071b4:	681b      	ldr	r3, [r3, #0]
 80071b6:	33c8      	adds	r3, #200	; 0xc8
 80071b8:	681b      	ldr	r3, [r3, #0]
 80071ba:	79fa      	ldrb	r2, [r7, #7]
 80071bc:	4611      	mov	r1, r2
 80071be:	2003      	movs	r0, #3
 80071c0:	4798      	blx	r3
}
 80071c2:	bf00      	nop
 80071c4:	3708      	adds	r7, #8
 80071c6:	46bd      	mov	sp, r7
 80071c8:	bd80      	pop	{r7, pc}
 80071ca:	bf00      	nop
 80071cc:	200094e8 	.word	0x200094e8

080071d0 <printk_putc>:
//
//data:
//
//======================================================================
static void printk_putc(int c, int *count, PRINTK_INFO *info)
{
 80071d0:	b580      	push	{r7, lr}
 80071d2:	b084      	sub	sp, #16
 80071d4:	af00      	add	r7, sp, #0
 80071d6:	60f8      	str	r0, [r7, #12]
 80071d8:	60b9      	str	r1, [r7, #8]
 80071da:	607a      	str	r2, [r7, #4]
	switch (info->dest) {
 80071dc:	687b      	ldr	r3, [r7, #4]
 80071de:	681b      	ldr	r3, [r3, #0]
 80071e0:	2b01      	cmp	r3, #1
 80071e2:	d002      	beq.n	80071ea <printk_putc+0x1a>
 80071e4:	2b02      	cmp	r3, #2
 80071e6:	d007      	beq.n	80071f8 <printk_putc+0x28>
	case DEST_STRING:
		*(info->loc) = (unsigned char) c;
		++(info->loc);
		break;
	default:
		break;
 80071e8:	e011      	b.n	800720e <printk_putc+0x3e>
		info->func((char) c);
 80071ea:	687b      	ldr	r3, [r7, #4]
 80071ec:	685b      	ldr	r3, [r3, #4]
 80071ee:	68fa      	ldr	r2, [r7, #12]
 80071f0:	b2d2      	uxtb	r2, r2
 80071f2:	4610      	mov	r0, r2
 80071f4:	4798      	blx	r3
		break;
 80071f6:	e00a      	b.n	800720e <printk_putc+0x3e>
		*(info->loc) = (unsigned char) c;
 80071f8:	687b      	ldr	r3, [r7, #4]
 80071fa:	689b      	ldr	r3, [r3, #8]
 80071fc:	68fa      	ldr	r2, [r7, #12]
 80071fe:	b2d2      	uxtb	r2, r2
 8007200:	701a      	strb	r2, [r3, #0]
		++(info->loc);
 8007202:	687b      	ldr	r3, [r7, #4]
 8007204:	689b      	ldr	r3, [r3, #8]
 8007206:	1c5a      	adds	r2, r3, #1
 8007208:	687b      	ldr	r3, [r7, #4]
 800720a:	609a      	str	r2, [r3, #8]
		break;
 800720c:	bf00      	nop
	}
	*count += 1;
 800720e:	68bb      	ldr	r3, [r7, #8]
 8007210:	681b      	ldr	r3, [r3, #0]
 8007212:	1c5a      	adds	r2, r3, #1
 8007214:	68bb      	ldr	r3, [r7, #8]
 8007216:	601a      	str	r2, [r3, #0]
}
 8007218:	bf00      	nop
 800721a:	3710      	adds	r7, #16
 800721c:	46bd      	mov	sp, r7
 800721e:	bd80      	pop	{r7, pc}

08007220 <printk_mkfloatstr>:
// *f:float
//       c[]:
//
//======================================================================
int printk_mkfloatstr(double *f,char c[],int precision_width)
{
 8007220:	b5b0      	push	{r4, r5, r7, lr}
 8007222:	b0a6      	sub	sp, #152	; 0x98
 8007224:	af00      	add	r7, sp, #0
 8007226:	60f8      	str	r0, [r7, #12]
 8007228:	60b9      	str	r1, [r7, #8]
 800722a:	607a      	str	r2, [r7, #4]
	uint_32 p,i,j,k,a[5]={0},b[19]={0};
 800722c:	f107 035c 	add.w	r3, r7, #92	; 0x5c
 8007230:	2200      	movs	r2, #0
 8007232:	601a      	str	r2, [r3, #0]
 8007234:	605a      	str	r2, [r3, #4]
 8007236:	609a      	str	r2, [r3, #8]
 8007238:	60da      	str	r2, [r3, #12]
 800723a:	611a      	str	r2, [r3, #16]
 800723c:	f107 0310 	add.w	r3, r7, #16
 8007240:	224c      	movs	r2, #76	; 0x4c
 8007242:	2100      	movs	r1, #0
 8007244:	4618      	mov	r0, r3
 8007246:	f001 fadf 	bl	8008808 <memset>
	uint_64 q;
	double tempf;
	p=0;
 800724a:	2300      	movs	r3, #0
 800724c:	f8c7 3094 	str.w	r3, [r7, #148]	; 0x94
	q=0;
 8007250:	f04f 0300 	mov.w	r3, #0
 8007254:	f04f 0400 	mov.w	r4, #0
 8007258:	e9c7 3420 	strd	r3, r4, [r7, #128]	; 0x80
	//float m;
	double m;
	p=(uint_32)*f;//
 800725c:	68fb      	ldr	r3, [r7, #12]
 800725e:	e9d3 3400 	ldrd	r3, r4, [r3]
 8007262:	4618      	mov	r0, r3
 8007264:	4621      	mov	r1, r4
 8007266:	f7ff fc73 	bl	8006b50 <__aeabi_d2uiz>
 800726a:	4603      	mov	r3, r0
 800726c:	f8c7 3094 	str.w	r3, [r7, #148]	; 0x94
	tempf=(*f-p);
 8007270:	68fb      	ldr	r3, [r7, #12]
 8007272:	e9d3 4500 	ldrd	r4, r5, [r3]
 8007276:	f8d7 0094 	ldr.w	r0, [r7, #148]	; 0x94
 800727a:	f7ff f955 	bl	8006528 <__aeabi_ui2d>
 800727e:	4602      	mov	r2, r0
 8007280:	460b      	mov	r3, r1
 8007282:	4620      	mov	r0, r4
 8007284:	4629      	mov	r1, r5
 8007286:	f7ff f811 	bl	80062ac <__aeabi_dsub>
 800728a:	4603      	mov	r3, r0
 800728c:	460c      	mov	r4, r1
 800728e:	e9c7 341e 	strd	r3, r4, [r7, #120]	; 0x78
	if(precision_width==0)
 8007292:	687b      	ldr	r3, [r7, #4]
 8007294:	2b00      	cmp	r3, #0
 8007296:	d12b      	bne.n	80072f0 <printk_mkfloatstr+0xd0>
	q=(*f-p)*100000000000000000;//
 8007298:	68fb      	ldr	r3, [r7, #12]
 800729a:	e9d3 4500 	ldrd	r4, r5, [r3]
 800729e:	f8d7 0094 	ldr.w	r0, [r7, #148]	; 0x94
 80072a2:	f7ff f941 	bl	8006528 <__aeabi_ui2d>
 80072a6:	4602      	mov	r2, r0
 80072a8:	460b      	mov	r3, r1
 80072aa:	4620      	mov	r0, r4
 80072ac:	4629      	mov	r1, r5
 80072ae:	f7fe fffd 	bl	80062ac <__aeabi_dsub>
 80072b2:	4603      	mov	r3, r0
 80072b4:	460c      	mov	r4, r1
 80072b6:	4618      	mov	r0, r3
 80072b8:	4621      	mov	r1, r4
 80072ba:	a39e      	add	r3, pc, #632	; (adr r3, 8007534 <printk_mkfloatstr+0x314>)
 80072bc:	e9d3 2300 	ldrd	r2, r3, [r3]
 80072c0:	f7ff f9ac 	bl	800661c <__aeabi_dmul>
 80072c4:	4603      	mov	r3, r0
 80072c6:	460c      	mov	r4, r1
 80072c8:	4618      	mov	r0, r3
 80072ca:	4621      	mov	r1, r4
 80072cc:	f7ff fcc8 	bl	8006c60 <__aeabi_d2ulz>
 80072d0:	4603      	mov	r3, r0
 80072d2:	460c      	mov	r4, r1
 80072d4:	e9c7 3420 	strd	r3, r4, [r7, #128]	; 0x80
 80072d8:	e017      	b.n	800730a <printk_mkfloatstr+0xea>
	else
	{
		while(precision_width--)
		tempf*=10;
 80072da:	f04f 0200 	mov.w	r2, #0
 80072de:	4b92      	ldr	r3, [pc, #584]	; (8007528 <printk_mkfloatstr+0x308>)
 80072e0:	e9d7 011e 	ldrd	r0, r1, [r7, #120]	; 0x78
 80072e4:	f7ff f99a 	bl	800661c <__aeabi_dmul>
 80072e8:	4603      	mov	r3, r0
 80072ea:	460c      	mov	r4, r1
 80072ec:	e9c7 341e 	strd	r3, r4, [r7, #120]	; 0x78
		while(precision_width--)
 80072f0:	687b      	ldr	r3, [r7, #4]
 80072f2:	1e5a      	subs	r2, r3, #1
 80072f4:	607a      	str	r2, [r7, #4]
 80072f6:	2b00      	cmp	r3, #0
 80072f8:	d1ef      	bne.n	80072da <printk_mkfloatstr+0xba>
		q=tempf;
 80072fa:	e9d7 011e 	ldrd	r0, r1, [r7, #120]	; 0x78
 80072fe:	f7ff fcaf 	bl	8006c60 <__aeabi_d2ulz>
 8007302:	4603      	mov	r3, r0
 8007304:	460c      	mov	r4, r1
 8007306:	e9c7 3420 	strd	r3, r4, [r7, #128]	; 0x80
	}
	m=*f-p;
 800730a:	68fb      	ldr	r3, [r7, #12]
 800730c:	e9d3 4500 	ldrd	r4, r5, [r3]
 8007310:	f8d7 0094 	ldr.w	r0, [r7, #148]	; 0x94
 8007314:	f7ff f908 	bl	8006528 <__aeabi_ui2d>
 8007318:	4602      	mov	r2, r0
 800731a:	460b      	mov	r3, r1
 800731c:	4620      	mov	r0, r4
 800731e:	4629      	mov	r1, r5
 8007320:	f7fe ffc4 	bl	80062ac <__aeabi_dsub>
 8007324:	4603      	mov	r3, r0
 8007326:	460c      	mov	r4, r1
 8007328:	e9c7 341c 	strd	r3, r4, [r7, #112]	; 0x70
	k=0;
 800732c:	2300      	movs	r3, #0
 800732e:	f8c7 3088 	str.w	r3, [r7, #136]	; 0x88
	while(m<1)
 8007332:	e00f      	b.n	8007354 <printk_mkfloatstr+0x134>
	{
		m=m*10;
 8007334:	f04f 0200 	mov.w	r2, #0
 8007338:	4b7b      	ldr	r3, [pc, #492]	; (8007528 <printk_mkfloatstr+0x308>)
 800733a:	e9d7 011c 	ldrd	r0, r1, [r7, #112]	; 0x70
 800733e:	f7ff f96d 	bl	800661c <__aeabi_dmul>
 8007342:	4603      	mov	r3, r0
 8007344:	460c      	mov	r4, r1
 8007346:	e9c7 341c 	strd	r3, r4, [r7, #112]	; 0x70
		k++;
 800734a:	f8d7 3088 	ldr.w	r3, [r7, #136]	; 0x88
 800734e:	3301      	adds	r3, #1
 8007350:	f8c7 3088 	str.w	r3, [r7, #136]	; 0x88
	while(m<1)
 8007354:	f04f 0200 	mov.w	r2, #0
 8007358:	4b74      	ldr	r3, [pc, #464]	; (800752c <printk_mkfloatstr+0x30c>)
 800735a:	e9d7 011c 	ldrd	r0, r1, [r7, #112]	; 0x70
 800735e:	f7ff fbcf 	bl	8006b00 <__aeabi_dcmplt>
 8007362:	4603      	mov	r3, r0
 8007364:	2b00      	cmp	r3, #0
 8007366:	d1e5      	bne.n	8007334 <printk_mkfloatstr+0x114>
	};
	k--;          // 0.
 8007368:	f8d7 3088 	ldr.w	r3, [r7, #136]	; 0x88
 800736c:	3b01      	subs	r3, #1
 800736e:	f8c7 3088 	str.w	r3, [r7, #136]	; 0x88

		i=0;
 8007372:	2300      	movs	r3, #0
 8007374:	f8c7 3090 	str.w	r3, [r7, #144]	; 0x90
	if(0==p)//0
 8007378:	f8d7 3094 	ldr.w	r3, [r7, #148]	; 0x94
 800737c:	2b00      	cmp	r3, #0
 800737e:	d109      	bne.n	8007394 <printk_mkfloatstr+0x174>
		c[i++]='0';
 8007380:	f8d7 3090 	ldr.w	r3, [r7, #144]	; 0x90
 8007384:	1c5a      	adds	r2, r3, #1
 8007386:	f8c7 2090 	str.w	r2, [r7, #144]	; 0x90
 800738a:	68ba      	ldr	r2, [r7, #8]
 800738c:	4413      	add	r3, r2
 800738e:	2230      	movs	r2, #48	; 0x30
 8007390:	701a      	strb	r2, [r3, #0]
 8007392:	e043      	b.n	800741c <printk_mkfloatstr+0x1fc>
	else//0
	{
		j=0;
 8007394:	2300      	movs	r3, #0
 8007396:	f8c7 308c 	str.w	r3, [r7, #140]	; 0x8c
		while(p!=0)//
 800739a:	e01d      	b.n	80073d8 <printk_mkfloatstr+0x1b8>
		{
			a[j++]=p%10;
 800739c:	f8d7 108c 	ldr.w	r1, [r7, #140]	; 0x8c
 80073a0:	1c4b      	adds	r3, r1, #1
 80073a2:	f8c7 308c 	str.w	r3, [r7, #140]	; 0x8c
 80073a6:	f8d7 0094 	ldr.w	r0, [r7, #148]	; 0x94
 80073aa:	4b61      	ldr	r3, [pc, #388]	; (8007530 <printk_mkfloatstr+0x310>)
 80073ac:	fba3 2300 	umull	r2, r3, r3, r0
 80073b0:	08da      	lsrs	r2, r3, #3
 80073b2:	4613      	mov	r3, r2
 80073b4:	009b      	lsls	r3, r3, #2
 80073b6:	4413      	add	r3, r2
 80073b8:	005b      	lsls	r3, r3, #1
 80073ba:	1ac2      	subs	r2, r0, r3
 80073bc:	008b      	lsls	r3, r1, #2
 80073be:	f107 0198 	add.w	r1, r7, #152	; 0x98
 80073c2:	440b      	add	r3, r1
 80073c4:	f843 2c3c 	str.w	r2, [r3, #-60]
			p/=10;
 80073c8:	f8d7 3094 	ldr.w	r3, [r7, #148]	; 0x94
 80073cc:	4a58      	ldr	r2, [pc, #352]	; (8007530 <printk_mkfloatstr+0x310>)
 80073ce:	fba2 2303 	umull	r2, r3, r2, r3
 80073d2:	08db      	lsrs	r3, r3, #3
 80073d4:	f8c7 3094 	str.w	r3, [r7, #148]	; 0x94
		while(p!=0)//
 80073d8:	f8d7 3094 	ldr.w	r3, [r7, #148]	; 0x94
 80073dc:	2b00      	cmp	r3, #0
 80073de:	d1dd      	bne.n	800739c <printk_mkfloatstr+0x17c>
		}
		while(j>0)//
 80073e0:	e018      	b.n	8007414 <printk_mkfloatstr+0x1f4>
		{
			c[i++]=a[j-1]+'0';
 80073e2:	f8d7 308c 	ldr.w	r3, [r7, #140]	; 0x8c
 80073e6:	3b01      	subs	r3, #1
 80073e8:	009b      	lsls	r3, r3, #2
 80073ea:	f107 0298 	add.w	r2, r7, #152	; 0x98
 80073ee:	4413      	add	r3, r2
 80073f0:	f853 3c3c 	ldr.w	r3, [r3, #-60]
 80073f4:	b2da      	uxtb	r2, r3
 80073f6:	f8d7 3090 	ldr.w	r3, [r7, #144]	; 0x90
 80073fa:	1c59      	adds	r1, r3, #1
 80073fc:	f8c7 1090 	str.w	r1, [r7, #144]	; 0x90
 8007400:	68b9      	ldr	r1, [r7, #8]
 8007402:	440b      	add	r3, r1
 8007404:	3230      	adds	r2, #48	; 0x30
 8007406:	b2d2      	uxtb	r2, r2
 8007408:	701a      	strb	r2, [r3, #0]
			--j;
 800740a:	f8d7 308c 	ldr.w	r3, [r7, #140]	; 0x8c
 800740e:	3b01      	subs	r3, #1
 8007410:	f8c7 308c 	str.w	r3, [r7, #140]	; 0x8c
		while(j>0)//
 8007414:	f8d7 308c 	ldr.w	r3, [r7, #140]	; 0x8c
 8007418:	2b00      	cmp	r3, #0
 800741a:	d1e2      	bne.n	80073e2 <printk_mkfloatstr+0x1c2>
		}
	}
	c[i++]='.';//
 800741c:	f8d7 3090 	ldr.w	r3, [r7, #144]	; 0x90
 8007420:	1c5a      	adds	r2, r3, #1
 8007422:	f8c7 2090 	str.w	r2, [r7, #144]	; 0x90
 8007426:	68ba      	ldr	r2, [r7, #8]
 8007428:	4413      	add	r3, r2
 800742a:	222e      	movs	r2, #46	; 0x2e
 800742c:	701a      	strb	r2, [r3, #0]
	if(0==q)//0
 800742e:	e9d7 3420 	ldrd	r3, r4, [r7, #128]	; 0x80
 8007432:	4323      	orrs	r3, r4
 8007434:	d109      	bne.n	800744a <printk_mkfloatstr+0x22a>
		c[i++]='0';
 8007436:	f8d7 3090 	ldr.w	r3, [r7, #144]	; 0x90
 800743a:	1c5a      	adds	r2, r3, #1
 800743c:	f8c7 2090 	str.w	r2, [r7, #144]	; 0x90
 8007440:	68ba      	ldr	r2, [r7, #8]
 8007442:	4413      	add	r3, r2
 8007444:	2230      	movs	r2, #48	; 0x30
 8007446:	701a      	strb	r2, [r3, #0]
 8007448:	e05f      	b.n	800750a <printk_mkfloatstr+0x2ea>
	else//0
	{
		j=0;
 800744a:	2300      	movs	r3, #0
 800744c:	f8c7 308c 	str.w	r3, [r7, #140]	; 0x8c

		while(q!=0)//
 8007450:	e023      	b.n	800749a <printk_mkfloatstr+0x27a>
		{
			b[j++]=q%10;
 8007452:	e9d7 0120 	ldrd	r0, r1, [r7, #128]	; 0x80
 8007456:	f04f 020a 	mov.w	r2, #10
 800745a:	f04f 0300 	mov.w	r3, #0
 800745e:	f7ff fbe7 	bl	8006c30 <__aeabi_uldivmod>
 8007462:	461c      	mov	r4, r3
 8007464:	4613      	mov	r3, r2
 8007466:	4618      	mov	r0, r3
 8007468:	4621      	mov	r1, r4
 800746a:	f8d7 308c 	ldr.w	r3, [r7, #140]	; 0x8c
 800746e:	1c5a      	adds	r2, r3, #1
 8007470:	f8c7 208c 	str.w	r2, [r7, #140]	; 0x8c
 8007474:	4602      	mov	r2, r0
 8007476:	009b      	lsls	r3, r3, #2
 8007478:	f107 0198 	add.w	r1, r7, #152	; 0x98
 800747c:	440b      	add	r3, r1
 800747e:	f843 2c88 	str.w	r2, [r3, #-136]
			q/=10;
 8007482:	e9d7 0120 	ldrd	r0, r1, [r7, #128]	; 0x80
 8007486:	f04f 020a 	mov.w	r2, #10
 800748a:	f04f 0300 	mov.w	r3, #0
 800748e:	f7ff fbcf 	bl	8006c30 <__aeabi_uldivmod>
 8007492:	4603      	mov	r3, r0
 8007494:	460c      	mov	r4, r1
 8007496:	e9c7 3420 	strd	r3, r4, [r7, #128]	; 0x80
		while(q!=0)//
 800749a:	e9d7 3420 	ldrd	r3, r4, [r7, #128]	; 0x80
 800749e:	4323      	orrs	r3, r4
 80074a0:	d1d7      	bne.n	8007452 <printk_mkfloatstr+0x232>
		}
		while(k!=0)
 80074a2:	e010      	b.n	80074c6 <printk_mkfloatstr+0x2a6>
		{
			b[j++]=0;
 80074a4:	f8d7 308c 	ldr.w	r3, [r7, #140]	; 0x8c
 80074a8:	1c5a      	adds	r2, r3, #1
 80074aa:	f8c7 208c 	str.w	r2, [r7, #140]	; 0x8c
 80074ae:	009b      	lsls	r3, r3, #2
 80074b0:	f107 0298 	add.w	r2, r7, #152	; 0x98
 80074b4:	4413      	add	r3, r2
 80074b6:	2200      	movs	r2, #0
 80074b8:	f843 2c88 	str.w	r2, [r3, #-136]
			k--;
 80074bc:	f8d7 3088 	ldr.w	r3, [r7, #136]	; 0x88
 80074c0:	3b01      	subs	r3, #1
 80074c2:	f8c7 3088 	str.w	r3, [r7, #136]	; 0x88
		while(k!=0)
 80074c6:	f8d7 3088 	ldr.w	r3, [r7, #136]	; 0x88
 80074ca:	2b00      	cmp	r3, #0
 80074cc:	d1ea      	bne.n	80074a4 <printk_mkfloatstr+0x284>
		}
		while(j>0)//
 80074ce:	e018      	b.n	8007502 <printk_mkfloatstr+0x2e2>
		{
			c[i++]=b[j-1]+'0';
 80074d0:	f8d7 308c 	ldr.w	r3, [r7, #140]	; 0x8c
 80074d4:	3b01      	subs	r3, #1
 80074d6:	009b      	lsls	r3, r3, #2
 80074d8:	f107 0298 	add.w	r2, r7, #152	; 0x98
 80074dc:	4413      	add	r3, r2
 80074de:	f853 3c88 	ldr.w	r3, [r3, #-136]
 80074e2:	b2da      	uxtb	r2, r3
 80074e4:	f8d7 3090 	ldr.w	r3, [r7, #144]	; 0x90
 80074e8:	1c59      	adds	r1, r3, #1
 80074ea:	f8c7 1090 	str.w	r1, [r7, #144]	; 0x90
 80074ee:	68b9      	ldr	r1, [r7, #8]
 80074f0:	440b      	add	r3, r1
 80074f2:	3230      	adds	r2, #48	; 0x30
 80074f4:	b2d2      	uxtb	r2, r2
 80074f6:	701a      	strb	r2, [r3, #0]
			--j;
 80074f8:	f8d7 308c 	ldr.w	r3, [r7, #140]	; 0x8c
 80074fc:	3b01      	subs	r3, #1
 80074fe:	f8c7 308c 	str.w	r3, [r7, #140]	; 0x8c
		while(j>0)//
 8007502:	f8d7 308c 	ldr.w	r3, [r7, #140]	; 0x8c
 8007506:	2b00      	cmp	r3, #0
 8007508:	d1e2      	bne.n	80074d0 <printk_mkfloatstr+0x2b0>
		}
	}
	c[i]='\0';
 800750a:	68ba      	ldr	r2, [r7, #8]
 800750c:	f8d7 3090 	ldr.w	r3, [r7, #144]	; 0x90
 8007510:	4413      	add	r3, r2
 8007512:	2200      	movs	r2, #0
 8007514:	701a      	strb	r2, [r3, #0]
	return i;
 8007516:	f8d7 3090 	ldr.w	r3, [r7, #144]	; 0x90
}
 800751a:	4618      	mov	r0, r3
 800751c:	3798      	adds	r7, #152	; 0x98
 800751e:	46bd      	mov	sp, r7
 8007520:	bdb0      	pop	{r4, r5, r7, pc}
 8007522:	bf00      	nop
 8007524:	f3af 8000 	nop.w
 8007528:	40240000 	.word	0x40240000
 800752c:	3ff00000 	.word	0x3ff00000
 8007530:	cccccccd 	.word	0xcccccccd
 8007534:	85d8a000 	.word	0x85d8a000
 8007538:	43763457 	.word	0x43763457

0800753c <printk_mknumstr>:
//       neg::
//       radix::...
//
//======================================================================
static int printk_mknumstr(char *numstr, void *nump, int neg, int radix)
{
 800753c:	b480      	push	{r7}
 800753e:	b08d      	sub	sp, #52	; 0x34
 8007540:	af00      	add	r7, sp, #0
 8007542:	60f8      	str	r0, [r7, #12]
 8007544:	60b9      	str	r1, [r7, #8]
 8007546:	607a      	str	r2, [r7, #4]
 8007548:	603b      	str	r3, [r7, #0]
	unsigned int ua, ub, uc;

	int nlen;
	char *nstrp;

	nlen = 0;
 800754a:	2300      	movs	r3, #0
 800754c:	61fb      	str	r3, [r7, #28]
	nstrp = numstr;
 800754e:	68fb      	ldr	r3, [r7, #12]
 8007550:	61bb      	str	r3, [r7, #24]
	*nstrp++ = '\0';
 8007552:	69bb      	ldr	r3, [r7, #24]
 8007554:	1c5a      	adds	r2, r3, #1
 8007556:	61ba      	str	r2, [r7, #24]
 8007558:	2200      	movs	r2, #0
 800755a:	701a      	strb	r2, [r3, #0]

	if (neg) {
 800755c:	687b      	ldr	r3, [r7, #4]
 800755e:	2b00      	cmp	r3, #0
 8007560:	d032      	beq.n	80075c8 <printk_mknumstr+0x8c>
		a = *(int *) nump;
 8007562:	68bb      	ldr	r3, [r7, #8]
 8007564:	681b      	ldr	r3, [r3, #0]
 8007566:	62fb      	str	r3, [r7, #44]	; 0x2c
		if (a == 0) {
 8007568:	6afb      	ldr	r3, [r7, #44]	; 0x2c
 800756a:	2b00      	cmp	r3, #0
 800756c:	d128      	bne.n	80075c0 <printk_mknumstr+0x84>
			*nstrp = '0';
 800756e:	69bb      	ldr	r3, [r7, #24]
 8007570:	2230      	movs	r2, #48	; 0x30
 8007572:	701a      	strb	r2, [r3, #0]
			++nlen;
 8007574:	69fb      	ldr	r3, [r7, #28]
 8007576:	3301      	adds	r3, #1
 8007578:	61fb      	str	r3, [r7, #28]
			goto done;
 800757a:	e057      	b.n	800762c <printk_mknumstr+0xf0>
		}
		while (a != 0) {
			b = (int) a / (int) radix;
 800757c:	6afa      	ldr	r2, [r7, #44]	; 0x2c
 800757e:	683b      	ldr	r3, [r7, #0]
 8007580:	fb92 f3f3 	sdiv	r3, r2, r3
 8007584:	613b      	str	r3, [r7, #16]
			c = (int) a - ((int) b * (int) radix);
 8007586:	693b      	ldr	r3, [r7, #16]
 8007588:	683a      	ldr	r2, [r7, #0]
 800758a:	fb02 f303 	mul.w	r3, r2, r3
 800758e:	6afa      	ldr	r2, [r7, #44]	; 0x2c
 8007590:	1ad3      	subs	r3, r2, r3
 8007592:	62bb      	str	r3, [r7, #40]	; 0x28
			if (c < 0) {
 8007594:	6abb      	ldr	r3, [r7, #40]	; 0x28
 8007596:	2b00      	cmp	r3, #0
 8007598:	da04      	bge.n	80075a4 <printk_mknumstr+0x68>
				c = ~c + 1 + '0';
 800759a:	6abb      	ldr	r3, [r7, #40]	; 0x28
 800759c:	f1c3 0330 	rsb	r3, r3, #48	; 0x30
 80075a0:	62bb      	str	r3, [r7, #40]	; 0x28
 80075a2:	e002      	b.n	80075aa <printk_mknumstr+0x6e>
			} else {
				c = c + '0';
 80075a4:	6abb      	ldr	r3, [r7, #40]	; 0x28
 80075a6:	3330      	adds	r3, #48	; 0x30
 80075a8:	62bb      	str	r3, [r7, #40]	; 0x28
			}
			a = b;
 80075aa:	693b      	ldr	r3, [r7, #16]
 80075ac:	62fb      	str	r3, [r7, #44]	; 0x2c
			*nstrp++ = (char) c;
 80075ae:	69bb      	ldr	r3, [r7, #24]
 80075b0:	1c5a      	adds	r2, r3, #1
 80075b2:	61ba      	str	r2, [r7, #24]
 80075b4:	6aba      	ldr	r2, [r7, #40]	; 0x28
 80075b6:	b2d2      	uxtb	r2, r2
 80075b8:	701a      	strb	r2, [r3, #0]
			++nlen;
 80075ba:	69fb      	ldr	r3, [r7, #28]
 80075bc:	3301      	adds	r3, #1
 80075be:	61fb      	str	r3, [r7, #28]
		while (a != 0) {
 80075c0:	6afb      	ldr	r3, [r7, #44]	; 0x2c
 80075c2:	2b00      	cmp	r3, #0
 80075c4:	d1da      	bne.n	800757c <printk_mknumstr+0x40>
 80075c6:	e031      	b.n	800762c <printk_mknumstr+0xf0>
		}
	} else {
		ua = *(unsigned int *) nump;
 80075c8:	68bb      	ldr	r3, [r7, #8]
 80075ca:	681b      	ldr	r3, [r3, #0]
 80075cc:	627b      	str	r3, [r7, #36]	; 0x24
		if (ua == 0) {
 80075ce:	6a7b      	ldr	r3, [r7, #36]	; 0x24
 80075d0:	2b00      	cmp	r3, #0
 80075d2:	d127      	bne.n	8007624 <printk_mknumstr+0xe8>
			*nstrp = '0';
 80075d4:	69bb      	ldr	r3, [r7, #24]
 80075d6:	2230      	movs	r2, #48	; 0x30
 80075d8:	701a      	strb	r2, [r3, #0]
			++nlen;
 80075da:	69fb      	ldr	r3, [r7, #28]
 80075dc:	3301      	adds	r3, #1
 80075de:	61fb      	str	r3, [r7, #28]
			goto done;
 80075e0:	e024      	b.n	800762c <printk_mknumstr+0xf0>
		}
		while (ua != 0) {
			ub = (unsigned int) ua / (unsigned int) radix;
 80075e2:	683b      	ldr	r3, [r7, #0]
 80075e4:	6a7a      	ldr	r2, [r7, #36]	; 0x24
 80075e6:	fbb2 f3f3 	udiv	r3, r2, r3
 80075ea:	617b      	str	r3, [r7, #20]
			uc = (unsigned int) ua - ((unsigned int) ub * (unsigned int) radix);
 80075ec:	683b      	ldr	r3, [r7, #0]
 80075ee:	697a      	ldr	r2, [r7, #20]
 80075f0:	fb02 f303 	mul.w	r3, r2, r3
 80075f4:	6a7a      	ldr	r2, [r7, #36]	; 0x24
 80075f6:	1ad3      	subs	r3, r2, r3
 80075f8:	623b      	str	r3, [r7, #32]
			if (uc < 10) {
 80075fa:	6a3b      	ldr	r3, [r7, #32]
 80075fc:	2b09      	cmp	r3, #9
 80075fe:	d803      	bhi.n	8007608 <printk_mknumstr+0xcc>
				uc = uc + '0';
 8007600:	6a3b      	ldr	r3, [r7, #32]
 8007602:	3330      	adds	r3, #48	; 0x30
 8007604:	623b      	str	r3, [r7, #32]
 8007606:	e002      	b.n	800760e <printk_mknumstr+0xd2>
			} else {
				uc = uc - 10 + 'A';
 8007608:	6a3b      	ldr	r3, [r7, #32]
 800760a:	3337      	adds	r3, #55	; 0x37
 800760c:	623b      	str	r3, [r7, #32]
			}
			ua = ub;
 800760e:	697b      	ldr	r3, [r7, #20]
 8007610:	627b      	str	r3, [r7, #36]	; 0x24
			*nstrp++ = (char) uc;
 8007612:	69bb      	ldr	r3, [r7, #24]
 8007614:	1c5a      	adds	r2, r3, #1
 8007616:	61ba      	str	r2, [r7, #24]
 8007618:	6a3a      	ldr	r2, [r7, #32]
 800761a:	b2d2      	uxtb	r2, r2
 800761c:	701a      	strb	r2, [r3, #0]
			++nlen;
 800761e:	69fb      	ldr	r3, [r7, #28]
 8007620:	3301      	adds	r3, #1
 8007622:	61fb      	str	r3, [r7, #28]
		while (ua != 0) {
 8007624:	6a7b      	ldr	r3, [r7, #36]	; 0x24
 8007626:	2b00      	cmp	r3, #0
 8007628:	d1db      	bne.n	80075e2 <printk_mknumstr+0xa6>
		}
	}
	done: return nlen;
 800762a:	bf00      	nop
 800762c:	69fb      	ldr	r3, [r7, #28]
}
 800762e:	4618      	mov	r0, r3
 8007630:	3734      	adds	r7, #52	; 0x34
 8007632:	46bd      	mov	sp, r7
 8007634:	f85d 7b04 	ldr.w	r7, [sp], #4
 8007638:	4770      	bx	lr

0800763a <printk_pad_zero>:
/********************************************************************/
static void printk_pad_zero(int curlen, int field_width, int *count,
		PRINTK_INFO *info) {
 800763a:	b580      	push	{r7, lr}
 800763c:	b086      	sub	sp, #24
 800763e:	af00      	add	r7, sp, #0
 8007640:	60f8      	str	r0, [r7, #12]
 8007642:	60b9      	str	r1, [r7, #8]
 8007644:	607a      	str	r2, [r7, #4]
 8007646:	603b      	str	r3, [r7, #0]
	int i;

	for (i = curlen; i < field_width; i++) {
 8007648:	68fb      	ldr	r3, [r7, #12]
 800764a:	617b      	str	r3, [r7, #20]
 800764c:	e007      	b.n	800765e <printk_pad_zero+0x24>
		printk_putc('0', count, info);
 800764e:	683a      	ldr	r2, [r7, #0]
 8007650:	6879      	ldr	r1, [r7, #4]
 8007652:	2030      	movs	r0, #48	; 0x30
 8007654:	f7ff fdbc 	bl	80071d0 <printk_putc>
	for (i = curlen; i < field_width; i++) {
 8007658:	697b      	ldr	r3, [r7, #20]
 800765a:	3301      	adds	r3, #1
 800765c:	617b      	str	r3, [r7, #20]
 800765e:	697a      	ldr	r2, [r7, #20]
 8007660:	68bb      	ldr	r3, [r7, #8]
 8007662:	429a      	cmp	r2, r3
 8007664:	dbf3      	blt.n	800764e <printk_pad_zero+0x14>
	}
}
 8007666:	bf00      	nop
 8007668:	3718      	adds	r7, #24
 800766a:	46bd      	mov	sp, r7
 800766c:	bd80      	pop	{r7, pc}

0800766e <printk_pad_space>:

/********************************************************************/
static void printk_pad_space(int curlen, int field_width, int *count,
		PRINTK_INFO *info) {
 800766e:	b580      	push	{r7, lr}
 8007670:	b086      	sub	sp, #24
 8007672:	af00      	add	r7, sp, #0
 8007674:	60f8      	str	r0, [r7, #12]
 8007676:	60b9      	str	r1, [r7, #8]
 8007678:	607a      	str	r2, [r7, #4]
 800767a:	603b      	str	r3, [r7, #0]
	int i;

	for (i = curlen; i < field_width; i++) {
 800767c:	68fb      	ldr	r3, [r7, #12]
 800767e:	617b      	str	r3, [r7, #20]
 8007680:	e007      	b.n	8007692 <printk_pad_space+0x24>
		printk_putc(' ', count, info);
 8007682:	683a      	ldr	r2, [r7, #0]
 8007684:	6879      	ldr	r1, [r7, #4]
 8007686:	2020      	movs	r0, #32
 8007688:	f7ff fda2 	bl	80071d0 <printk_putc>
	for (i = curlen; i < field_width; i++) {
 800768c:	697b      	ldr	r3, [r7, #20]
 800768e:	3301      	adds	r3, #1
 8007690:	617b      	str	r3, [r7, #20]
 8007692:	697a      	ldr	r2, [r7, #20]
 8007694:	68bb      	ldr	r3, [r7, #8]
 8007696:	429a      	cmp	r2, r3
 8007698:	dbf3      	blt.n	8007682 <printk_pad_space+0x14>
	}
}
 800769a:	bf00      	nop
 800769c:	3718      	adds	r7, #24
 800769e:	46bd      	mov	sp, r7
 80076a0:	bd80      	pop	{r7, pc}
	...

080076a4 <printk>:
//       fmt:
//       ap:va_list
//
//======================================================================
int printk(PRINTK_INFO *info, const char *fmt, char * ap)
{
 80076a4:	b590      	push	{r4, r7, lr}
 80076a6:	b0a7      	sub	sp, #156	; 0x9c
 80076a8:	af00      	add	r7, sp, #0
 80076aa:	60f8      	str	r0, [r7, #12]
 80076ac:	60b9      	str	r1, [r7, #8]
 80076ae:	607a      	str	r2, [r7, #4]

	}un1;
	char *p;
	int c;
	char temp1;
	char vstr[33]={'0'};
 80076b0:	f107 032c 	add.w	r3, r7, #44	; 0x2c
 80076b4:	2221      	movs	r2, #33	; 0x21
 80076b6:	2100      	movs	r1, #0
 80076b8:	4618      	mov	r0, r3
 80076ba:	f001 f8a5 	bl	8008808 <memset>
 80076be:	2330      	movs	r3, #48	; 0x30
 80076c0:	f887 302c 	strb.w	r3, [r7, #44]	; 0x2c
	int *ivalp;
	char *sval;
	int cval;
	unsigned int uval;

	count = 0;
 80076c4:	2300      	movs	r3, #0
 80076c6:	62bb      	str	r3, [r7, #40]	; 0x28
	length_modifier=0;
 80076c8:	2300      	movs	r3, #0
 80076ca:	67fb      	str	r3, [r7, #124]	; 0x7c
	precision_used=TRUE;
 80076cc:	2301      	movs	r3, #1
 80076ce:	67bb      	str	r3, [r7, #120]	; 0x78
	//
	for (p = (char *) fmt; (c = *p) != 0; p++)
 80076d0:	68bb      	ldr	r3, [r7, #8]
 80076d2:	f8c7 3094 	str.w	r3, [r7, #148]	; 0x94
 80076d6:	f000 bca8 	b.w	800802a <printk+0x986>
	{
		//%\n
		if (c != '%')
 80076da:	6e7b      	ldr	r3, [r7, #100]	; 0x64
 80076dc:	2b25      	cmp	r3, #37	; 0x25
 80076de:	d01b      	beq.n	8007718 <printk+0x74>
		{
#ifndef UNIX_DEBUG
			//%
			if (c != '\n') {
 80076e0:	6e7b      	ldr	r3, [r7, #100]	; 0x64
 80076e2:	2b0a      	cmp	r3, #10
 80076e4:	d008      	beq.n	80076f8 <printk+0x54>
				printk_putc(c, &count, info);
 80076e6:	f107 0328 	add.w	r3, r7, #40	; 0x28
 80076ea:	68fa      	ldr	r2, [r7, #12]
 80076ec:	4619      	mov	r1, r3
 80076ee:	6e78      	ldr	r0, [r7, #100]	; 0x64
 80076f0:	f7ff fd6e 	bl	80071d0 <printk_putc>
			}
#else
			printk_putc(c, &count, info);
#endif

			continue;
 80076f4:	f000 bc94 	b.w	8008020 <printk+0x97c>
				printk_putc(0x0D /* CR */, &count, info);
 80076f8:	f107 0328 	add.w	r3, r7, #40	; 0x28
 80076fc:	68fa      	ldr	r2, [r7, #12]
 80076fe:	4619      	mov	r1, r3
 8007700:	200d      	movs	r0, #13
 8007702:	f7ff fd65 	bl	80071d0 <printk_putc>
				printk_putc(0x0A /* LF */, &count, info);
 8007706:	f107 0328 	add.w	r3, r7, #40	; 0x28
 800770a:	68fa      	ldr	r2, [r7, #12]
 800770c:	4619      	mov	r1, r3
 800770e:	200a      	movs	r0, #10
 8007710:	f7ff fd5e 	bl	80071d0 <printk_putc>
			continue;
 8007714:	f000 bc84 	b.w	8008020 <printk+0x97c>
		}


		//%  
		//
		flags_used = 0;
 8007718:	2300      	movs	r3, #0
 800771a:	f8c7 3084 	str.w	r3, [r7, #132]	; 0x84
		done = FALSE;
 800771e:	2300      	movs	r3, #0
 8007720:	f8c7 3088 	str.w	r3, [r7, #136]	; 0x88
		while (!done) {
 8007724:	e05c      	b.n	80077e0 <printk+0x13c>
			switch (/* c = */*++p) {
 8007726:	f8d7 3094 	ldr.w	r3, [r7, #148]	; 0x94
 800772a:	3301      	adds	r3, #1
 800772c:	f8c7 3094 	str.w	r3, [r7, #148]	; 0x94
 8007730:	f8d7 3094 	ldr.w	r3, [r7, #148]	; 0x94
 8007734:	781b      	ldrb	r3, [r3, #0]
 8007736:	3b20      	subs	r3, #32
 8007738:	2b10      	cmp	r3, #16
 800773a:	d848      	bhi.n	80077ce <printk+0x12a>
 800773c:	a201      	add	r2, pc, #4	; (adr r2, 8007744 <printk+0xa0>)
 800773e:	f852 f023 	ldr.w	pc, [r2, r3, lsl #2]
 8007742:	bf00      	nop
 8007744:	080077a5 	.word	0x080077a5
 8007748:	080077cf 	.word	0x080077cf
 800774c:	080077cf 	.word	0x080077cf
 8007750:	080077c1 	.word	0x080077c1
 8007754:	080077cf 	.word	0x080077cf
 8007758:	080077cf 	.word	0x080077cf
 800775c:	080077cf 	.word	0x080077cf
 8007760:	080077cf 	.word	0x080077cf
 8007764:	080077cf 	.word	0x080077cf
 8007768:	080077cf 	.word	0x080077cf
 800776c:	080077cf 	.word	0x080077cf
 8007770:	08007797 	.word	0x08007797
 8007774:	080077cf 	.word	0x080077cf
 8007778:	08007789 	.word	0x08007789
 800777c:	080077cf 	.word	0x080077cf
 8007780:	080077cf 	.word	0x080077cf
 8007784:	080077b3 	.word	0x080077b3
			case '-':
				flags_used |= FLAGS_MINUS;
 8007788:	f8d7 3084 	ldr.w	r3, [r7, #132]	; 0x84
 800778c:	f043 0301 	orr.w	r3, r3, #1
 8007790:	f8c7 3084 	str.w	r3, [r7, #132]	; 0x84
				break;
 8007794:	e024      	b.n	80077e0 <printk+0x13c>
			case '+':
				flags_used |= FLAGS_PLUS;
 8007796:	f8d7 3084 	ldr.w	r3, [r7, #132]	; 0x84
 800779a:	f043 0302 	orr.w	r3, r3, #2
 800779e:	f8c7 3084 	str.w	r3, [r7, #132]	; 0x84
				break;
 80077a2:	e01d      	b.n	80077e0 <printk+0x13c>
			case ' ':
				flags_used |= FLAGS_SPACE;
 80077a4:	f8d7 3084 	ldr.w	r3, [r7, #132]	; 0x84
 80077a8:	f043 0304 	orr.w	r3, r3, #4
 80077ac:	f8c7 3084 	str.w	r3, [r7, #132]	; 0x84
				break;
 80077b0:	e016      	b.n	80077e0 <printk+0x13c>
			case '0':
				flags_used |= FLAGS_ZERO;
 80077b2:	f8d7 3084 	ldr.w	r3, [r7, #132]	; 0x84
 80077b6:	f043 0308 	orr.w	r3, r3, #8
 80077ba:	f8c7 3084 	str.w	r3, [r7, #132]	; 0x84
				break;
 80077be:	e00f      	b.n	80077e0 <printk+0x13c>
			case '#':
				flags_used |= FLAGS_POUND;
 80077c0:	f8d7 3084 	ldr.w	r3, [r7, #132]	; 0x84
 80077c4:	f043 0310 	orr.w	r3, r3, #16
 80077c8:	f8c7 3084 	str.w	r3, [r7, #132]	; 0x84
				break;
 80077cc:	e008      	b.n	80077e0 <printk+0x13c>
			default:
				/* we've gone one char too far */
				--p;
 80077ce:	f8d7 3094 	ldr.w	r3, [r7, #148]	; 0x94
 80077d2:	3b01      	subs	r3, #1
 80077d4:	f8c7 3094 	str.w	r3, [r7, #148]	; 0x94
				done = TRUE;
 80077d8:	2301      	movs	r3, #1
 80077da:	f8c7 3088 	str.w	r3, [r7, #136]	; 0x88
				break;
 80077de:	bf00      	nop
		while (!done) {
 80077e0:	f8d7 3088 	ldr.w	r3, [r7, #136]	; 0x88
 80077e4:	2b00      	cmp	r3, #0
 80077e6:	d09e      	beq.n	8007726 <printk+0x82>
			}
		}


		//% 
		field_width = 0;
 80077e8:	2300      	movs	r3, #0
 80077ea:	f8c7 3080 	str.w	r3, [r7, #128]	; 0x80
		done = FALSE;
 80077ee:	2300      	movs	r3, #0
 80077f0:	f8c7 3088 	str.w	r3, [r7, #136]	; 0x88
		while (!done) {
 80077f4:	e022      	b.n	800783c <printk+0x198>
			switch (c = *++p) {
 80077f6:	f8d7 3094 	ldr.w	r3, [r7, #148]	; 0x94
 80077fa:	3301      	adds	r3, #1
 80077fc:	f8c7 3094 	str.w	r3, [r7, #148]	; 0x94
 8007800:	f8d7 3094 	ldr.w	r3, [r7, #148]	; 0x94
 8007804:	781b      	ldrb	r3, [r3, #0]
 8007806:	667b      	str	r3, [r7, #100]	; 0x64
 8007808:	6e7b      	ldr	r3, [r7, #100]	; 0x64
 800780a:	3b30      	subs	r3, #48	; 0x30
 800780c:	2b09      	cmp	r3, #9
 800780e:	d80c      	bhi.n	800782a <printk+0x186>
			case '5':
			case '6':
			case '7':
			case '8':
			case '9':
				field_width = (field_width * 10) + (c - '0');
 8007810:	f8d7 2080 	ldr.w	r2, [r7, #128]	; 0x80
 8007814:	4613      	mov	r3, r2
 8007816:	009b      	lsls	r3, r3, #2
 8007818:	4413      	add	r3, r2
 800781a:	005b      	lsls	r3, r3, #1
 800781c:	461a      	mov	r2, r3
 800781e:	6e7b      	ldr	r3, [r7, #100]	; 0x64
 8007820:	3b30      	subs	r3, #48	; 0x30
 8007822:	4413      	add	r3, r2
 8007824:	f8c7 3080 	str.w	r3, [r7, #128]	; 0x80
				break;
 8007828:	e008      	b.n	800783c <printk+0x198>
			default:
				/* we've gone one char too far */
				--p;
 800782a:	f8d7 3094 	ldr.w	r3, [r7, #148]	; 0x94
 800782e:	3b01      	subs	r3, #1
 8007830:	f8c7 3094 	str.w	r3, [r7, #148]	; 0x94
				done = TRUE;
 8007834:	2301      	movs	r3, #1
 8007836:	f8c7 3088 	str.w	r3, [r7, #136]	; 0x88
				break;
 800783a:	bf00      	nop
		while (!done) {
 800783c:	f8d7 3088 	ldr.w	r3, [r7, #136]	; 0x88
 8007840:	2b00      	cmp	r3, #0
 8007842:	d0d8      	beq.n	80077f6 <printk+0x152>
			}
		}
		//%.
		if (/* (c = *++p) */*++p == '.') {
 8007844:	f8d7 3094 	ldr.w	r3, [r7, #148]	; 0x94
 8007848:	3301      	adds	r3, #1
 800784a:	f8c7 3094 	str.w	r3, [r7, #148]	; 0x94
 800784e:	f8d7 3094 	ldr.w	r3, [r7, #148]	; 0x94
 8007852:	781b      	ldrb	r3, [r3, #0]
 8007854:	2b2e      	cmp	r3, #46	; 0x2e
 8007856:	d12b      	bne.n	80078b0 <printk+0x20c>
			/* precision_used = TRUE; */

			/*
			 * Must get precision field width, if present.
			 */
			precision_width = 0;
 8007858:	2300      	movs	r3, #0
 800785a:	677b      	str	r3, [r7, #116]	; 0x74
			done = FALSE;
 800785c:	2300      	movs	r3, #0
 800785e:	f8c7 3088 	str.w	r3, [r7, #136]	; 0x88
			while (!done) {
 8007862:	e020      	b.n	80078a6 <printk+0x202>
				switch ( c = *++p) {
 8007864:	f8d7 3094 	ldr.w	r3, [r7, #148]	; 0x94
 8007868:	3301      	adds	r3, #1
 800786a:	f8c7 3094 	str.w	r3, [r7, #148]	; 0x94
 800786e:	f8d7 3094 	ldr.w	r3, [r7, #148]	; 0x94
 8007872:	781b      	ldrb	r3, [r3, #0]
 8007874:	667b      	str	r3, [r7, #100]	; 0x64
 8007876:	6e7b      	ldr	r3, [r7, #100]	; 0x64
 8007878:	3b30      	subs	r3, #48	; 0x30
 800787a:	2b09      	cmp	r3, #9
 800787c:	d80a      	bhi.n	8007894 <printk+0x1f0>
				case '6':
				case '7':
				case '8':
				case '9':
#if 1
				precision_width = (precision_width * 10) +	(c - '0');
 800787e:	6f7a      	ldr	r2, [r7, #116]	; 0x74
 8007880:	4613      	mov	r3, r2
 8007882:	009b      	lsls	r3, r3, #2
 8007884:	4413      	add	r3, r2
 8007886:	005b      	lsls	r3, r3, #1
 8007888:	461a      	mov	r2, r3
 800788a:	6e7b      	ldr	r3, [r7, #100]	; 0x64
 800788c:	3b30      	subs	r3, #48	; 0x30
 800788e:	4413      	add	r3, r2
 8007890:	677b      	str	r3, [r7, #116]	; 0x74

#endif
					break;
 8007892:	e008      	b.n	80078a6 <printk+0x202>
				default:
					/* we've gone one char too far */
					--p;
 8007894:	f8d7 3094 	ldr.w	r3, [r7, #148]	; 0x94
 8007898:	3b01      	subs	r3, #1
 800789a:	f8c7 3094 	str.w	r3, [r7, #148]	; 0x94
					done = TRUE;
 800789e:	2301      	movs	r3, #1
 80078a0:	f8c7 3088 	str.w	r3, [r7, #136]	; 0x88
					break;
 80078a4:	bf00      	nop
			while (!done) {
 80078a6:	f8d7 3088 	ldr.w	r3, [r7, #136]	; 0x88
 80078aa:	2b00      	cmp	r3, #0
 80078ac:	d0da      	beq.n	8007864 <printk+0x1c0>
 80078ae:	e008      	b.n	80078c2 <printk+0x21e>
				}
			}
		} else {
			/* we've gone one char too far */
			--p;
 80078b0:	f8d7 3094 	ldr.w	r3, [r7, #148]	; 0x94
 80078b4:	3b01      	subs	r3, #1
 80078b6:	f8c7 3094 	str.w	r3, [r7, #148]	; 0x94
#if 1
			precision_used = FALSE;
 80078ba:	2300      	movs	r3, #0
 80078bc:	67bb      	str	r3, [r7, #120]	; 0x78
			precision_width = 0;
 80078be:	2300      	movs	r3, #0
 80078c0:	677b      	str	r3, [r7, #116]	; 0x74
#endif
		}
		// lfLF
		switch (/* c = */*++p) {
 80078c2:	f8d7 3094 	ldr.w	r3, [r7, #148]	; 0x94
 80078c6:	3301      	adds	r3, #1
 80078c8:	f8c7 3094 	str.w	r3, [r7, #148]	; 0x94
 80078cc:	f8d7 3094 	ldr.w	r3, [r7, #148]	; 0x94
 80078d0:	781b      	ldrb	r3, [r3, #0]
 80078d2:	2b68      	cmp	r3, #104	; 0x68
 80078d4:	d014      	beq.n	8007900 <printk+0x25c>
 80078d6:	2b6c      	cmp	r3, #108	; 0x6c
 80078d8:	d002      	beq.n	80078e0 <printk+0x23c>
 80078da:	2b4c      	cmp	r3, #76	; 0x4c
 80078dc:	d005      	beq.n	80078ea <printk+0x246>
 80078de:	e009      	b.n	80078f4 <printk+0x250>
		case 'h':
			// length_modifier |= LENMOD_h;
			break;
		case 'l':
			 length_modifier |= LENMOD_l;
 80078e0:	6ffb      	ldr	r3, [r7, #124]	; 0x7c
 80078e2:	f043 0301 	orr.w	r3, r3, #1
 80078e6:	67fb      	str	r3, [r7, #124]	; 0x7c
			break;
 80078e8:	e00b      	b.n	8007902 <printk+0x25e>
		case 'L':
			 length_modifier |= LENMOD_L;
 80078ea:	6ffb      	ldr	r3, [r7, #124]	; 0x7c
 80078ec:	f043 0302 	orr.w	r3, r3, #2
 80078f0:	67fb      	str	r3, [r7, #124]	; 0x7c
			break;
 80078f2:	e006      	b.n	8007902 <printk+0x25e>
		default:
			/* we've gone one char too far */
			--p;
 80078f4:	f8d7 3094 	ldr.w	r3, [r7, #148]	; 0x94
 80078f8:	3b01      	subs	r3, #1
 80078fa:	f8c7 3094 	str.w	r3, [r7, #148]	; 0x94
			break;
 80078fe:	e000      	b.n	8007902 <printk+0x25e>
			break;
 8007900:	bf00      	nop
		}

		//p
		switch (c = *++p) {
 8007902:	f8d7 3094 	ldr.w	r3, [r7, #148]	; 0x94
 8007906:	3301      	adds	r3, #1
 8007908:	f8c7 3094 	str.w	r3, [r7, #148]	; 0x94
 800790c:	f8d7 3094 	ldr.w	r3, [r7, #148]	; 0x94
 8007910:	781b      	ldrb	r3, [r3, #0]
 8007912:	667b      	str	r3, [r7, #100]	; 0x64
 8007914:	6e7b      	ldr	r3, [r7, #100]	; 0x64
 8007916:	3b58      	subs	r3, #88	; 0x58
 8007918:	2b20      	cmp	r3, #32
 800791a:	f200 8374 	bhi.w	8008006 <printk+0x962>
 800791e:	a201      	add	r2, pc, #4	; (adr r2, 8007924 <printk+0x280>)
 8007920:	f852 f023 	ldr.w	pc, [r2, r3, lsl #2]
 8007924:	08007cc5 	.word	0x08007cc5
 8007928:	08008007 	.word	0x08008007
 800792c:	08008007 	.word	0x08008007
 8007930:	08008007 	.word	0x08008007
 8007934:	08008007 	.word	0x08008007
 8007938:	08008007 	.word	0x08008007
 800793c:	08008007 	.word	0x08008007
 8007940:	08008007 	.word	0x08008007
 8007944:	08008007 	.word	0x08008007
 8007948:	08008007 	.word	0x08008007
 800794c:	08007e0f 	.word	0x08007e0f
 8007950:	08007f21 	.word	0x08007f21
 8007954:	080079a9 	.word	0x080079a9
 8007958:	08008007 	.word	0x08008007
 800795c:	08007ac5 	.word	0x08007ac5
 8007960:	08008007 	.word	0x08008007
 8007964:	08008007 	.word	0x08008007
 8007968:	080079a9 	.word	0x080079a9
 800796c:	08008007 	.word	0x08008007
 8007970:	08008007 	.word	0x08008007
 8007974:	08008007 	.word	0x08008007
 8007978:	08008007 	.word	0x08008007
 800797c:	08007ff1 	.word	0x08007ff1
 8007980:	08007deb 	.word	0x08007deb
 8007984:	08007e33 	.word	0x08007e33
 8007988:	08008007 	.word	0x08008007
 800798c:	08008007 	.word	0x08008007
 8007990:	08007f41 	.word	0x08007f41
 8007994:	08008007 	.word	0x08008007
 8007998:	08007e57 	.word	0x08007e57
 800799c:	08008007 	.word	0x08008007
 80079a0:	08008007 	.word	0x08008007
 80079a4:	08007cc5 	.word	0x08007cc5
		case 'd':
		case 'i':
			 //ap
			ival = (int) va_arg(ap, int);  //ap
 80079a8:	687b      	ldr	r3, [r7, #4]
 80079aa:	3304      	adds	r3, #4
 80079ac:	607b      	str	r3, [r7, #4]
 80079ae:	687b      	ldr	r3, [r7, #4]
 80079b0:	3b04      	subs	r3, #4
 80079b2:	681b      	ldr	r3, [r3, #0]
 80079b4:	627b      	str	r3, [r7, #36]	; 0x24
			vlen = printk_mknumstr(vstr, &ival, TRUE, 10);//vstrvlen
 80079b6:	f107 0124 	add.w	r1, r7, #36	; 0x24
 80079ba:	f107 002c 	add.w	r0, r7, #44	; 0x2c
 80079be:	230a      	movs	r3, #10
 80079c0:	2201      	movs	r2, #1
 80079c2:	f7ff fdbb 	bl	800753c <printk_mknumstr>
 80079c6:	f8c7 008c 	str.w	r0, [r7, #140]	; 0x8c
			vstrp = &vstr[vlen];  //
 80079ca:	f107 022c 	add.w	r2, r7, #44	; 0x2c
 80079ce:	f8d7 308c 	ldr.w	r3, [r7, #140]	; 0x8c
 80079d2:	4413      	add	r3, r2
 80079d4:	f8c7 3090 	str.w	r3, [r7, #144]	; 0x90

			//0'-'1
			if (ival < 0) {
 80079d8:	6a7b      	ldr	r3, [r7, #36]	; 0x24
 80079da:	2b00      	cmp	r3, #0
 80079dc:	da07      	bge.n	80079ee <printk+0x34a>
				schar = '-';
 80079de:	232d      	movs	r3, #45	; 0x2d
 80079e0:	673b      	str	r3, [r7, #112]	; 0x70
				++vlen;
 80079e2:	f8d7 308c 	ldr.w	r3, [r7, #140]	; 0x8c
 80079e6:	3301      	adds	r3, #1
 80079e8:	f8c7 308c 	str.w	r3, [r7, #140]	; 0x8c
 80079ec:	e01d      	b.n	8007a2a <printk+0x386>
			}
			//0+ 01
			else {
				if (IS_FLAG_PLUS(flags_used)) {
 80079ee:	f8d7 3084 	ldr.w	r3, [r7, #132]	; 0x84
 80079f2:	f003 0302 	and.w	r3, r3, #2
 80079f6:	2b00      	cmp	r3, #0
 80079f8:	d007      	beq.n	8007a0a <printk+0x366>
					schar = '+';
 80079fa:	232b      	movs	r3, #43	; 0x2b
 80079fc:	673b      	str	r3, [r7, #112]	; 0x70
					++vlen;
 80079fe:	f8d7 308c 	ldr.w	r3, [r7, #140]	; 0x8c
 8007a02:	3301      	adds	r3, #1
 8007a04:	f8c7 308c 	str.w	r3, [r7, #140]	; 0x8c
 8007a08:	e00f      	b.n	8007a2a <printk+0x386>
				} else {
					if (IS_FLAG_SPACE(flags_used)) {
 8007a0a:	f8d7 3084 	ldr.w	r3, [r7, #132]	; 0x84
 8007a0e:	f003 0304 	and.w	r3, r3, #4
 8007a12:	2b00      	cmp	r3, #0
 8007a14:	d007      	beq.n	8007a26 <printk+0x382>
						schar = ' ';
 8007a16:	2320      	movs	r3, #32
 8007a18:	673b      	str	r3, [r7, #112]	; 0x70
						++vlen;
 8007a1a:	f8d7 308c 	ldr.w	r3, [r7, #140]	; 0x8c
 8007a1e:	3301      	adds	r3, #1
 8007a20:	f8c7 308c 	str.w	r3, [r7, #140]	; 0x8c
 8007a24:	e001      	b.n	8007a2a <printk+0x386>
					} else {
						schar = 0;
 8007a26:	2300      	movs	r3, #0
 8007a28:	673b      	str	r3, [r7, #112]	; 0x70
					}
				}
			}
			dschar = FALSE;
 8007a2a:	2300      	movs	r3, #0
 8007a2c:	66fb      	str	r3, [r7, #108]	; 0x6c

			/*
			 * do the ZERO pad.
			 */
			if (IS_FLAG_ZERO(flags_used)) {
 8007a2e:	f8d7 3084 	ldr.w	r3, [r7, #132]	; 0x84
 8007a32:	f003 0308 	and.w	r3, r3, #8
 8007a36:	2b00      	cmp	r3, #0
 8007a38:	d019      	beq.n	8007a6e <printk+0x3ca>
				if (schar)
 8007a3a:	6f3b      	ldr	r3, [r7, #112]	; 0x70
 8007a3c:	2b00      	cmp	r3, #0
 8007a3e:	d006      	beq.n	8007a4e <printk+0x3aa>
					printk_putc(schar, &count, info);  //
 8007a40:	f107 0328 	add.w	r3, r7, #40	; 0x28
 8007a44:	68fa      	ldr	r2, [r7, #12]
 8007a46:	4619      	mov	r1, r3
 8007a48:	6f38      	ldr	r0, [r7, #112]	; 0x70
 8007a4a:	f7ff fbc1 	bl	80071d0 <printk_putc>
				dschar = TRUE;
 8007a4e:	2301      	movs	r3, #1
 8007a50:	66fb      	str	r3, [r7, #108]	; 0x6c
				printk_pad_zero(vlen, field_width, &count, info);
 8007a52:	f107 0228 	add.w	r2, r7, #40	; 0x28
 8007a56:	68fb      	ldr	r3, [r7, #12]
 8007a58:	f8d7 1080 	ldr.w	r1, [r7, #128]	; 0x80
 8007a5c:	f8d7 008c 	ldr.w	r0, [r7, #140]	; 0x8c
 8007a60:	f7ff fdeb 	bl	800763a <printk_pad_zero>
				vlen = field_width;
 8007a64:	f8d7 3080 	ldr.w	r3, [r7, #128]	; 0x80
 8007a68:	f8c7 308c 	str.w	r3, [r7, #140]	; 0x8c
 8007a6c:	e01a      	b.n	8007aa4 <printk+0x400>
			} else {
				if (!IS_FLAG_MINUS(flags_used)) {
 8007a6e:	f8d7 3084 	ldr.w	r3, [r7, #132]	; 0x84
 8007a72:	f003 0301 	and.w	r3, r3, #1
 8007a76:	2b00      	cmp	r3, #0
 8007a78:	d114      	bne.n	8007aa4 <printk+0x400>
					printk_pad_space(vlen, field_width, &count, info);  //
 8007a7a:	f107 0228 	add.w	r2, r7, #40	; 0x28
 8007a7e:	68fb      	ldr	r3, [r7, #12]
 8007a80:	f8d7 1080 	ldr.w	r1, [r7, #128]	; 0x80
 8007a84:	f8d7 008c 	ldr.w	r0, [r7, #140]	; 0x8c
 8007a88:	f7ff fdf1 	bl	800766e <printk_pad_space>

					if (schar)
 8007a8c:	6f3b      	ldr	r3, [r7, #112]	; 0x70
 8007a8e:	2b00      	cmp	r3, #0
 8007a90:	d006      	beq.n	8007aa0 <printk+0x3fc>
						printk_putc(schar, &count, info);
 8007a92:	f107 0328 	add.w	r3, r7, #40	; 0x28
 8007a96:	68fa      	ldr	r2, [r7, #12]
 8007a98:	4619      	mov	r1, r3
 8007a9a:	6f38      	ldr	r0, [r7, #112]	; 0x70
 8007a9c:	f7ff fb98 	bl	80071d0 <printk_putc>
					dschar = TRUE;
 8007aa0:	2301      	movs	r3, #1
 8007aa2:	66fb      	str	r3, [r7, #108]	; 0x6c
				}
			}

			/* the string was built in reverse order, now display in */
			/* correct order */
			if (!dschar && schar) {
 8007aa4:	6efb      	ldr	r3, [r7, #108]	; 0x6c
 8007aa6:	2b00      	cmp	r3, #0
 8007aa8:	f040 8211 	bne.w	8007ece <printk+0x82a>
 8007aac:	6f3b      	ldr	r3, [r7, #112]	; 0x70
 8007aae:	2b00      	cmp	r3, #0
 8007ab0:	f000 820d 	beq.w	8007ece <printk+0x82a>
				printk_putc(schar, &count, info);
 8007ab4:	f107 0328 	add.w	r3, r7, #40	; 0x28
 8007ab8:	68fa      	ldr	r2, [r7, #12]
 8007aba:	4619      	mov	r1, r3
 8007abc:	6f38      	ldr	r0, [r7, #112]	; 0x70
 8007abe:	f7ff fb87 	bl	80071d0 <printk_putc>
			}
			goto cont_xd;  //
 8007ac2:	e204      	b.n	8007ece <printk+0x82a>
			// double
			//3.140001 :0x0x4048F5C3
			//3.140001 double:0x40091EB85F577E6C
			//  :0x6000000040091EB8 double
			//0x60
			if(length_modifier==0)
 8007ac4:	6ffb      	ldr	r3, [r7, #124]	; 0x7c
 8007ac6:	2b00      	cmp	r3, #0
 8007ac8:	d119      	bne.n	8007afe <printk+0x45a>
			{
			un1.a1 = (double ) va_arg(ap, double);  //ap
 8007aca:	687b      	ldr	r3, [r7, #4]
 8007acc:	3308      	adds	r3, #8
 8007ace:	607b      	str	r3, [r7, #4]
 8007ad0:	687b      	ldr	r3, [r7, #4]
 8007ad2:	3b08      	subs	r3, #8
 8007ad4:	e9d3 3400 	ldrd	r3, r4, [r3]
 8007ad8:	e9c7 3414 	strd	r3, r4, [r7, #80]	; 0x50
			temp1=un1.tempc.b8;
 8007adc:	f897 3057 	ldrb.w	r3, [r7, #87]	; 0x57
 8007ae0:	f887 305f 	strb.w	r3, [r7, #95]	; 0x5f
			un1.c2=un1.c1;
 8007ae4:	6d3b      	ldr	r3, [r7, #80]	; 0x50
 8007ae6:	657b      	str	r3, [r7, #84]	; 0x54
			un1.c1=un1.c1&0x0000;
 8007ae8:	2300      	movs	r3, #0
 8007aea:	653b      	str	r3, [r7, #80]	; 0x50
			un1.tempc.b4=temp1;
 8007aec:	f897 305f 	ldrb.w	r3, [r7, #95]	; 0x5f
 8007af0:	f887 3053 	strb.w	r3, [r7, #83]	; 0x53
			fval=un1.a1;
 8007af4:	e9d7 3414 	ldrd	r3, r4, [r7, #80]	; 0x50
 8007af8:	e9c7 3406 	strd	r3, r4, [r7, #24]
 8007afc:	e011      	b.n	8007b22 <printk+0x47e>
			}
			else if(length_modifier==1 || length_modifier==2)
 8007afe:	6ffb      	ldr	r3, [r7, #124]	; 0x7c
 8007b00:	2b01      	cmp	r3, #1
 8007b02:	d002      	beq.n	8007b0a <printk+0x466>
 8007b04:	6ffb      	ldr	r3, [r7, #124]	; 0x7c
 8007b06:	2b02      	cmp	r3, #2
 8007b08:	d10b      	bne.n	8007b22 <printk+0x47e>
			{
				ap=ap+4;
 8007b0a:	687b      	ldr	r3, [r7, #4]
 8007b0c:	3304      	adds	r3, #4
 8007b0e:	607b      	str	r3, [r7, #4]
				fval= (double)va_arg(ap,double);
 8007b10:	687b      	ldr	r3, [r7, #4]
 8007b12:	3308      	adds	r3, #8
 8007b14:	607b      	str	r3, [r7, #4]
 8007b16:	687b      	ldr	r3, [r7, #4]
 8007b18:	3b08      	subs	r3, #8
 8007b1a:	e9d3 3400 	ldrd	r3, r4, [r3]
 8007b1e:	e9c7 3406 	strd	r3, r4, [r7, #24]
			}
			//
			if(precision_used)
 8007b22:	6fbb      	ldr	r3, [r7, #120]	; 0x78
 8007b24:	2b00      	cmp	r3, #0
 8007b26:	d00e      	beq.n	8007b46 <printk+0x4a2>
			{
				vlen = printk_mkfloatstr(&fval,vstr,precision_width);//vstrvlen
 8007b28:	f107 012c 	add.w	r1, r7, #44	; 0x2c
 8007b2c:	f107 0318 	add.w	r3, r7, #24
 8007b30:	6f7a      	ldr	r2, [r7, #116]	; 0x74
 8007b32:	4618      	mov	r0, r3
 8007b34:	f7ff fb74 	bl	8007220 <printk_mkfloatstr>
 8007b38:	f8c7 008c 	str.w	r0, [r7, #140]	; 0x8c
				vstrp = &vstr[0];  //
 8007b3c:	f107 032c 	add.w	r3, r7, #44	; 0x2c
 8007b40:	f8c7 3090 	str.w	r3, [r7, #144]	; 0x90
 8007b44:	e01f      	b.n	8007b86 <printk+0x4e2>
			}
			else
			{
				if(length_modifier==0)   //8
 8007b46:	6ffb      	ldr	r3, [r7, #124]	; 0x7c
 8007b48:	2b00      	cmp	r3, #0
 8007b4a:	d10e      	bne.n	8007b6a <printk+0x4c6>
				{
					vlen = printk_mkfloatstr(&fval,vstr,8);//vstrvlen
 8007b4c:	f107 012c 	add.w	r1, r7, #44	; 0x2c
 8007b50:	f107 0318 	add.w	r3, r7, #24
 8007b54:	2208      	movs	r2, #8
 8007b56:	4618      	mov	r0, r3
 8007b58:	f7ff fb62 	bl	8007220 <printk_mkfloatstr>
 8007b5c:	f8c7 008c 	str.w	r0, [r7, #140]	; 0x8c
					vstrp = &vstr[0];  //
 8007b60:	f107 032c 	add.w	r3, r7, #44	; 0x2c
 8007b64:	f8c7 3090 	str.w	r3, [r7, #144]	; 0x90
 8007b68:	e00d      	b.n	8007b86 <printk+0x4e2>
				}
				else
				{
					vlen = printk_mkfloatstr(&fval,vstr,precision_width);//vstrvlen
 8007b6a:	f107 012c 	add.w	r1, r7, #44	; 0x2c
 8007b6e:	f107 0318 	add.w	r3, r7, #24
 8007b72:	6f7a      	ldr	r2, [r7, #116]	; 0x74
 8007b74:	4618      	mov	r0, r3
 8007b76:	f7ff fb53 	bl	8007220 <printk_mkfloatstr>
 8007b7a:	f8c7 008c 	str.w	r0, [r7, #140]	; 0x8c
					vstrp = &vstr[0];  //
 8007b7e:	f107 032c 	add.w	r3, r7, #44	; 0x2c
 8007b82:	f8c7 3090 	str.w	r3, [r7, #144]	; 0x90
				}

			}

			//0'-'1
			if (fval < 0) {
 8007b86:	e9d7 0106 	ldrd	r0, r1, [r7, #24]
 8007b8a:	f04f 0200 	mov.w	r2, #0
 8007b8e:	f04f 0300 	mov.w	r3, #0
 8007b92:	f7fe ffb5 	bl	8006b00 <__aeabi_dcmplt>
 8007b96:	4603      	mov	r3, r0
 8007b98:	2b00      	cmp	r3, #0
 8007b9a:	d007      	beq.n	8007bac <printk+0x508>
				schar = '-';
 8007b9c:	232d      	movs	r3, #45	; 0x2d
 8007b9e:	673b      	str	r3, [r7, #112]	; 0x70
				++vlen;
 8007ba0:	f8d7 308c 	ldr.w	r3, [r7, #140]	; 0x8c
 8007ba4:	3301      	adds	r3, #1
 8007ba6:	f8c7 308c 	str.w	r3, [r7, #140]	; 0x8c
 8007baa:	e01d      	b.n	8007be8 <printk+0x544>
			}
			//0+ 01
			else {
				if (IS_FLAG_PLUS(flags_used)) {
 8007bac:	f8d7 3084 	ldr.w	r3, [r7, #132]	; 0x84
 8007bb0:	f003 0302 	and.w	r3, r3, #2
 8007bb4:	2b00      	cmp	r3, #0
 8007bb6:	d007      	beq.n	8007bc8 <printk+0x524>
					schar = '+';
 8007bb8:	232b      	movs	r3, #43	; 0x2b
 8007bba:	673b      	str	r3, [r7, #112]	; 0x70
					++vlen;
 8007bbc:	f8d7 308c 	ldr.w	r3, [r7, #140]	; 0x8c
 8007bc0:	3301      	adds	r3, #1
 8007bc2:	f8c7 308c 	str.w	r3, [r7, #140]	; 0x8c
 8007bc6:	e00f      	b.n	8007be8 <printk+0x544>
				} else {
					if (IS_FLAG_SPACE(flags_used)) {
 8007bc8:	f8d7 3084 	ldr.w	r3, [r7, #132]	; 0x84
 8007bcc:	f003 0304 	and.w	r3, r3, #4
 8007bd0:	2b00      	cmp	r3, #0
 8007bd2:	d007      	beq.n	8007be4 <printk+0x540>
						schar = ' ';
 8007bd4:	2320      	movs	r3, #32
 8007bd6:	673b      	str	r3, [r7, #112]	; 0x70
						++vlen;
 8007bd8:	f8d7 308c 	ldr.w	r3, [r7, #140]	; 0x8c
 8007bdc:	3301      	adds	r3, #1
 8007bde:	f8c7 308c 	str.w	r3, [r7, #140]	; 0x8c
 8007be2:	e001      	b.n	8007be8 <printk+0x544>
					} else {
						schar = 0;
 8007be4:	2300      	movs	r3, #0
 8007be6:	673b      	str	r3, [r7, #112]	; 0x70
					}
				}
			}
			dschar = FALSE;
 8007be8:	2300      	movs	r3, #0
 8007bea:	66fb      	str	r3, [r7, #108]	; 0x6c

			/*
			 * do the ZERO pad.
			 */
			if (IS_FLAG_ZERO(flags_used)) {
 8007bec:	f8d7 3084 	ldr.w	r3, [r7, #132]	; 0x84
 8007bf0:	f003 0308 	and.w	r3, r3, #8
 8007bf4:	2b00      	cmp	r3, #0
 8007bf6:	d019      	beq.n	8007c2c <printk+0x588>
				if (schar)
 8007bf8:	6f3b      	ldr	r3, [r7, #112]	; 0x70
 8007bfa:	2b00      	cmp	r3, #0
 8007bfc:	d006      	beq.n	8007c0c <printk+0x568>
					printk_putc(schar, &count, info);  //
 8007bfe:	f107 0328 	add.w	r3, r7, #40	; 0x28
 8007c02:	68fa      	ldr	r2, [r7, #12]
 8007c04:	4619      	mov	r1, r3
 8007c06:	6f38      	ldr	r0, [r7, #112]	; 0x70
 8007c08:	f7ff fae2 	bl	80071d0 <printk_putc>
				dschar = TRUE;
 8007c0c:	2301      	movs	r3, #1
 8007c0e:	66fb      	str	r3, [r7, #108]	; 0x6c
				printk_pad_zero(vlen, field_width, &count, info);
 8007c10:	f107 0228 	add.w	r2, r7, #40	; 0x28
 8007c14:	68fb      	ldr	r3, [r7, #12]
 8007c16:	f8d7 1080 	ldr.w	r1, [r7, #128]	; 0x80
 8007c1a:	f8d7 008c 	ldr.w	r0, [r7, #140]	; 0x8c
 8007c1e:	f7ff fd0c 	bl	800763a <printk_pad_zero>
				vlen = field_width;
 8007c22:	f8d7 3080 	ldr.w	r3, [r7, #128]	; 0x80
 8007c26:	f8c7 308c 	str.w	r3, [r7, #140]	; 0x8c
 8007c2a:	e01a      	b.n	8007c62 <printk+0x5be>
			} else {
				if (!IS_FLAG_MINUS(flags_used)) {
 8007c2c:	f8d7 3084 	ldr.w	r3, [r7, #132]	; 0x84
 8007c30:	f003 0301 	and.w	r3, r3, #1
 8007c34:	2b00      	cmp	r3, #0
 8007c36:	d114      	bne.n	8007c62 <printk+0x5be>
					printk_pad_space(vlen, field_width, &count, info);  //
 8007c38:	f107 0228 	add.w	r2, r7, #40	; 0x28
 8007c3c:	68fb      	ldr	r3, [r7, #12]
 8007c3e:	f8d7 1080 	ldr.w	r1, [r7, #128]	; 0x80
 8007c42:	f8d7 008c 	ldr.w	r0, [r7, #140]	; 0x8c
 8007c46:	f7ff fd12 	bl	800766e <printk_pad_space>

					if (schar)
 8007c4a:	6f3b      	ldr	r3, [r7, #112]	; 0x70
 8007c4c:	2b00      	cmp	r3, #0
 8007c4e:	d006      	beq.n	8007c5e <printk+0x5ba>
						printk_putc(schar, &count, info);
 8007c50:	f107 0328 	add.w	r3, r7, #40	; 0x28
 8007c54:	68fa      	ldr	r2, [r7, #12]
 8007c56:	4619      	mov	r1, r3
 8007c58:	6f38      	ldr	r0, [r7, #112]	; 0x70
 8007c5a:	f7ff fab9 	bl	80071d0 <printk_putc>
					dschar = TRUE;
 8007c5e:	2301      	movs	r3, #1
 8007c60:	66fb      	str	r3, [r7, #108]	; 0x6c
				}
			}

			/* the string was built in reverse order, now display in */
			/* correct order */
			if (!dschar && schar) {
 8007c62:	6efb      	ldr	r3, [r7, #108]	; 0x6c
 8007c64:	2b00      	cmp	r3, #0
 8007c66:	d117      	bne.n	8007c98 <printk+0x5f4>
 8007c68:	6f3b      	ldr	r3, [r7, #112]	; 0x70
 8007c6a:	2b00      	cmp	r3, #0
 8007c6c:	d014      	beq.n	8007c98 <printk+0x5f4>
				printk_putc(schar, &count, info);
 8007c6e:	f107 0328 	add.w	r3, r7, #40	; 0x28
 8007c72:	68fa      	ldr	r2, [r7, #12]
 8007c74:	4619      	mov	r1, r3
 8007c76:	6f38      	ldr	r0, [r7, #112]	; 0x70
 8007c78:	f7ff faaa 	bl	80071d0 <printk_putc>
			}
			while (*vstrp)
 8007c7c:	e00c      	b.n	8007c98 <printk+0x5f4>
				printk_putc(*vstrp++, &count, info);
 8007c7e:	f8d7 3090 	ldr.w	r3, [r7, #144]	; 0x90
 8007c82:	1c5a      	adds	r2, r3, #1
 8007c84:	f8c7 2090 	str.w	r2, [r7, #144]	; 0x90
 8007c88:	781b      	ldrb	r3, [r3, #0]
 8007c8a:	4618      	mov	r0, r3
 8007c8c:	f107 0328 	add.w	r3, r7, #40	; 0x28
 8007c90:	68fa      	ldr	r2, [r7, #12]
 8007c92:	4619      	mov	r1, r3
 8007c94:	f7ff fa9c 	bl	80071d0 <printk_putc>
			while (*vstrp)
 8007c98:	f8d7 3090 	ldr.w	r3, [r7, #144]	; 0x90
 8007c9c:	781b      	ldrb	r3, [r3, #0]
 8007c9e:	2b00      	cmp	r3, #0
 8007ca0:	d1ed      	bne.n	8007c7e <printk+0x5da>
			if (IS_FLAG_MINUS(flags_used)) {
 8007ca2:	f8d7 3084 	ldr.w	r3, [r7, #132]	; 0x84
 8007ca6:	f003 0301 	and.w	r3, r3, #1
 8007caa:	2b00      	cmp	r3, #0
 8007cac:	f000 81b3 	beq.w	8008016 <printk+0x972>
				printk_pad_space(vlen, field_width, &count, info);
 8007cb0:	f107 0228 	add.w	r2, r7, #40	; 0x28
 8007cb4:	68fb      	ldr	r3, [r7, #12]
 8007cb6:	f8d7 1080 	ldr.w	r1, [r7, #128]	; 0x80
 8007cba:	f8d7 008c 	ldr.w	r0, [r7, #140]	; 0x8c
 8007cbe:	f7ff fcd6 	bl	800766e <printk_pad_space>
			}
            break;
 8007cc2:	e1a8      	b.n	8008016 <printk+0x972>
        //16
		case 'x':
		case 'X':
			uval = (unsigned int) va_arg(ap, unsigned int);
 8007cc4:	687b      	ldr	r3, [r7, #4]
 8007cc6:	3304      	adds	r3, #4
 8007cc8:	607b      	str	r3, [r7, #4]
 8007cca:	687b      	ldr	r3, [r7, #4]
 8007ccc:	3b04      	subs	r3, #4
 8007cce:	681b      	ldr	r3, [r3, #0]
 8007cd0:	617b      	str	r3, [r7, #20]
			vlen = printk_mknumstr(vstr, &uval, FALSE, 16);
 8007cd2:	f107 0114 	add.w	r1, r7, #20
 8007cd6:	f107 002c 	add.w	r0, r7, #44	; 0x2c
 8007cda:	2310      	movs	r3, #16
 8007cdc:	2200      	movs	r2, #0
 8007cde:	f7ff fc2d 	bl	800753c <printk_mknumstr>
 8007ce2:	f8c7 008c 	str.w	r0, [r7, #140]	; 0x8c
			vstrp = &vstr[vlen];
 8007ce6:	f107 022c 	add.w	r2, r7, #44	; 0x2c
 8007cea:	f8d7 308c 	ldr.w	r3, [r7, #140]	; 0x8c
 8007cee:	4413      	add	r3, r2
 8007cf0:	f8c7 3090 	str.w	r3, [r7, #144]	; 0x90

			dschar = FALSE;
 8007cf4:	2300      	movs	r3, #0
 8007cf6:	66fb      	str	r3, [r7, #108]	; 0x6c
			if (IS_FLAG_ZERO(flags_used)) {
 8007cf8:	f8d7 3084 	ldr.w	r3, [r7, #132]	; 0x84
 8007cfc:	f003 0308 	and.w	r3, r3, #8
 8007d00:	2b00      	cmp	r3, #0
 8007d02:	d023      	beq.n	8007d4c <printk+0x6a8>
				if (IS_FLAG_POUND(flags_used)) {
 8007d04:	f8d7 3084 	ldr.w	r3, [r7, #132]	; 0x84
 8007d08:	f003 0310 	and.w	r3, r3, #16
 8007d0c:	2b00      	cmp	r3, #0
 8007d0e:	d00f      	beq.n	8007d30 <printk+0x68c>
					printk_putc('0', &count, info);
 8007d10:	f107 0328 	add.w	r3, r7, #40	; 0x28
 8007d14:	68fa      	ldr	r2, [r7, #12]
 8007d16:	4619      	mov	r1, r3
 8007d18:	2030      	movs	r0, #48	; 0x30
 8007d1a:	f7ff fa59 	bl	80071d0 <printk_putc>
					printk_putc('x', &count, info);
 8007d1e:	f107 0328 	add.w	r3, r7, #40	; 0x28
 8007d22:	68fa      	ldr	r2, [r7, #12]
 8007d24:	4619      	mov	r1, r3
 8007d26:	2078      	movs	r0, #120	; 0x78
 8007d28:	f7ff fa52 	bl	80071d0 <printk_putc>
					/*vlen += 2;*/
					dschar = TRUE;
 8007d2c:	2301      	movs	r3, #1
 8007d2e:	66fb      	str	r3, [r7, #108]	; 0x6c
				}
				printk_pad_zero(vlen, field_width, &count, info);
 8007d30:	f107 0228 	add.w	r2, r7, #40	; 0x28
 8007d34:	68fb      	ldr	r3, [r7, #12]
 8007d36:	f8d7 1080 	ldr.w	r1, [r7, #128]	; 0x80
 8007d3a:	f8d7 008c 	ldr.w	r0, [r7, #140]	; 0x8c
 8007d3e:	f7ff fc7c 	bl	800763a <printk_pad_zero>
				vlen = field_width;
 8007d42:	f8d7 3080 	ldr.w	r3, [r7, #128]	; 0x80
 8007d46:	f8c7 308c 	str.w	r3, [r7, #140]	; 0x8c
 8007d4a:	e02f      	b.n	8007dac <printk+0x708>
			} else {
				if (!IS_FLAG_MINUS(flags_used)) {
 8007d4c:	f8d7 3084 	ldr.w	r3, [r7, #132]	; 0x84
 8007d50:	f003 0301 	and.w	r3, r3, #1
 8007d54:	2b00      	cmp	r3, #0
 8007d56:	d129      	bne.n	8007dac <printk+0x708>
					if (IS_FLAG_POUND(flags_used)) {
 8007d58:	f8d7 3084 	ldr.w	r3, [r7, #132]	; 0x84
 8007d5c:	f003 0310 	and.w	r3, r3, #16
 8007d60:	2b00      	cmp	r3, #0
 8007d62:	d004      	beq.n	8007d6e <printk+0x6ca>
						vlen += 2;
 8007d64:	f8d7 308c 	ldr.w	r3, [r7, #140]	; 0x8c
 8007d68:	3302      	adds	r3, #2
 8007d6a:	f8c7 308c 	str.w	r3, [r7, #140]	; 0x8c
					}
					printk_pad_space(vlen, field_width, &count, info);
 8007d6e:	f107 0228 	add.w	r2, r7, #40	; 0x28
 8007d72:	68fb      	ldr	r3, [r7, #12]
 8007d74:	f8d7 1080 	ldr.w	r1, [r7, #128]	; 0x80
 8007d78:	f8d7 008c 	ldr.w	r0, [r7, #140]	; 0x8c
 8007d7c:	f7ff fc77 	bl	800766e <printk_pad_space>
					if (IS_FLAG_POUND(flags_used)) {
 8007d80:	f8d7 3084 	ldr.w	r3, [r7, #132]	; 0x84
 8007d84:	f003 0310 	and.w	r3, r3, #16
 8007d88:	2b00      	cmp	r3, #0
 8007d8a:	d00f      	beq.n	8007dac <printk+0x708>
						printk_putc('0', &count, info);
 8007d8c:	f107 0328 	add.w	r3, r7, #40	; 0x28
 8007d90:	68fa      	ldr	r2, [r7, #12]
 8007d92:	4619      	mov	r1, r3
 8007d94:	2030      	movs	r0, #48	; 0x30
 8007d96:	f7ff fa1b 	bl	80071d0 <printk_putc>
						printk_putc('x', &count, info);
 8007d9a:	f107 0328 	add.w	r3, r7, #40	; 0x28
 8007d9e:	68fa      	ldr	r2, [r7, #12]
 8007da0:	4619      	mov	r1, r3
 8007da2:	2078      	movs	r0, #120	; 0x78
 8007da4:	f7ff fa14 	bl	80071d0 <printk_putc>
						dschar = TRUE;
 8007da8:	2301      	movs	r3, #1
 8007daa:	66fb      	str	r3, [r7, #108]	; 0x6c
					}
				}
			}

			if ((IS_FLAG_POUND(flags_used)) && !dschar) {
 8007dac:	f8d7 3084 	ldr.w	r3, [r7, #132]	; 0x84
 8007db0:	f003 0310 	and.w	r3, r3, #16
 8007db4:	2b00      	cmp	r3, #0
 8007db6:	f000 808c 	beq.w	8007ed2 <printk+0x82e>
 8007dba:	6efb      	ldr	r3, [r7, #108]	; 0x6c
 8007dbc:	2b00      	cmp	r3, #0
 8007dbe:	f040 8088 	bne.w	8007ed2 <printk+0x82e>
				printk_putc('0', &count, info);
 8007dc2:	f107 0328 	add.w	r3, r7, #40	; 0x28
 8007dc6:	68fa      	ldr	r2, [r7, #12]
 8007dc8:	4619      	mov	r1, r3
 8007dca:	2030      	movs	r0, #48	; 0x30
 8007dcc:	f7ff fa00 	bl	80071d0 <printk_putc>
				printk_putc('x', &count, info);
 8007dd0:	f107 0328 	add.w	r3, r7, #40	; 0x28
 8007dd4:	68fa      	ldr	r2, [r7, #12]
 8007dd6:	4619      	mov	r1, r3
 8007dd8:	2078      	movs	r0, #120	; 0x78
 8007dda:	f7ff f9f9 	bl	80071d0 <printk_putc>
				vlen += 2;
 8007dde:	f8d7 308c 	ldr.w	r3, [r7, #140]	; 0x8c
 8007de2:	3302      	adds	r3, #2
 8007de4:	f8c7 308c 	str.w	r3, [r7, #140]	; 0x8c
			}
			goto cont_xd;
 8007de8:	e073      	b.n	8007ed2 <printk+0x82e>
		//
		case 'o':
			uval = (unsigned int) va_arg(ap, unsigned int);
 8007dea:	687b      	ldr	r3, [r7, #4]
 8007dec:	3304      	adds	r3, #4
 8007dee:	607b      	str	r3, [r7, #4]
 8007df0:	687b      	ldr	r3, [r7, #4]
 8007df2:	3b04      	subs	r3, #4
 8007df4:	681b      	ldr	r3, [r3, #0]
 8007df6:	617b      	str	r3, [r7, #20]
			vlen = printk_mknumstr(vstr, &uval, FALSE, 8);
 8007df8:	f107 0114 	add.w	r1, r7, #20
 8007dfc:	f107 002c 	add.w	r0, r7, #44	; 0x2c
 8007e00:	2308      	movs	r3, #8
 8007e02:	2200      	movs	r2, #0
 8007e04:	f7ff fb9a 	bl	800753c <printk_mknumstr>
 8007e08:	f8c7 008c 	str.w	r0, [r7, #140]	; 0x8c
			goto cont_u;
 8007e0c:	e034      	b.n	8007e78 <printk+0x7d4>
		//
		case 'b':
			uval = (unsigned int) va_arg(ap, unsigned int);
 8007e0e:	687b      	ldr	r3, [r7, #4]
 8007e10:	3304      	adds	r3, #4
 8007e12:	607b      	str	r3, [r7, #4]
 8007e14:	687b      	ldr	r3, [r7, #4]
 8007e16:	3b04      	subs	r3, #4
 8007e18:	681b      	ldr	r3, [r3, #0]
 8007e1a:	617b      	str	r3, [r7, #20]
			vlen = printk_mknumstr(vstr, &uval, FALSE, 2);
 8007e1c:	f107 0114 	add.w	r1, r7, #20
 8007e20:	f107 002c 	add.w	r0, r7, #44	; 0x2c
 8007e24:	2302      	movs	r3, #2
 8007e26:	2200      	movs	r2, #0
 8007e28:	f7ff fb88 	bl	800753c <printk_mknumstr>
 8007e2c:	f8c7 008c 	str.w	r0, [r7, #140]	; 0x8c
			goto cont_u;
 8007e30:	e022      	b.n	8007e78 <printk+0x7d4>
		//
		case 'p':
			uval = (unsigned int) va_arg(ap, void *);
 8007e32:	687b      	ldr	r3, [r7, #4]
 8007e34:	3304      	adds	r3, #4
 8007e36:	607b      	str	r3, [r7, #4]
 8007e38:	687b      	ldr	r3, [r7, #4]
 8007e3a:	3b04      	subs	r3, #4
 8007e3c:	681b      	ldr	r3, [r3, #0]
 8007e3e:	617b      	str	r3, [r7, #20]
			vlen = printk_mknumstr(vstr, &uval, FALSE, 16);
 8007e40:	f107 0114 	add.w	r1, r7, #20
 8007e44:	f107 002c 	add.w	r0, r7, #44	; 0x2c
 8007e48:	2310      	movs	r3, #16
 8007e4a:	2200      	movs	r2, #0
 8007e4c:	f7ff fb76 	bl	800753c <printk_mknumstr>
 8007e50:	f8c7 008c 	str.w	r0, [r7, #140]	; 0x8c
			goto cont_u;
 8007e54:	e010      	b.n	8007e78 <printk+0x7d4>
		case 'u':
			uval = (unsigned int) va_arg(ap, unsigned int);
 8007e56:	687b      	ldr	r3, [r7, #4]
 8007e58:	3304      	adds	r3, #4
 8007e5a:	607b      	str	r3, [r7, #4]
 8007e5c:	687b      	ldr	r3, [r7, #4]
 8007e5e:	3b04      	subs	r3, #4
 8007e60:	681b      	ldr	r3, [r3, #0]
 8007e62:	617b      	str	r3, [r7, #20]
			vlen = printk_mknumstr(vstr, &uval, FALSE, 10);
 8007e64:	f107 0114 	add.w	r1, r7, #20
 8007e68:	f107 002c 	add.w	r0, r7, #44	; 0x2c
 8007e6c:	230a      	movs	r3, #10
 8007e6e:	2200      	movs	r2, #0
 8007e70:	f7ff fb64 	bl	800753c <printk_mknumstr>
 8007e74:	f8c7 008c 	str.w	r0, [r7, #140]	; 0x8c

			cont_u: vstrp = &vstr[vlen];
 8007e78:	f107 022c 	add.w	r2, r7, #44	; 0x2c
 8007e7c:	f8d7 308c 	ldr.w	r3, [r7, #140]	; 0x8c
 8007e80:	4413      	add	r3, r2
 8007e82:	f8c7 3090 	str.w	r3, [r7, #144]	; 0x90

			if (IS_FLAG_ZERO(flags_used)) {
 8007e86:	f8d7 3084 	ldr.w	r3, [r7, #132]	; 0x84
 8007e8a:	f003 0308 	and.w	r3, r3, #8
 8007e8e:	2b00      	cmp	r3, #0
 8007e90:	d00d      	beq.n	8007eae <printk+0x80a>
				printk_pad_zero(vlen, field_width, &count, info);
 8007e92:	f107 0228 	add.w	r2, r7, #40	; 0x28
 8007e96:	68fb      	ldr	r3, [r7, #12]
 8007e98:	f8d7 1080 	ldr.w	r1, [r7, #128]	; 0x80
 8007e9c:	f8d7 008c 	ldr.w	r0, [r7, #140]	; 0x8c
 8007ea0:	f7ff fbcb 	bl	800763a <printk_pad_zero>
				vlen = field_width;
 8007ea4:	f8d7 3080 	ldr.w	r3, [r7, #128]	; 0x80
 8007ea8:	f8c7 308c 	str.w	r3, [r7, #140]	; 0x8c
 8007eac:	e022      	b.n	8007ef4 <printk+0x850>
			} else {
				if (!IS_FLAG_MINUS(flags_used)) {
 8007eae:	f8d7 3084 	ldr.w	r3, [r7, #132]	; 0x84
 8007eb2:	f003 0301 	and.w	r3, r3, #1
 8007eb6:	2b00      	cmp	r3, #0
 8007eb8:	d10d      	bne.n	8007ed6 <printk+0x832>
					printk_pad_space(vlen, field_width, &count, info);
 8007eba:	f107 0228 	add.w	r2, r7, #40	; 0x28
 8007ebe:	68fb      	ldr	r3, [r7, #12]
 8007ec0:	f8d7 1080 	ldr.w	r1, [r7, #128]	; 0x80
 8007ec4:	f8d7 008c 	ldr.w	r0, [r7, #140]	; 0x8c
 8007ec8:	f7ff fbd1 	bl	800766e <printk_pad_space>
 8007ecc:	e012      	b.n	8007ef4 <printk+0x850>
			goto cont_xd;  //
 8007ece:	bf00      	nop
 8007ed0:	e010      	b.n	8007ef4 <printk+0x850>
			goto cont_xd;
 8007ed2:	bf00      	nop
 8007ed4:	e00e      	b.n	8007ef4 <printk+0x850>
				}
			}

			cont_xd: while (*vstrp)
 8007ed6:	bf00      	nop
 8007ed8:	e00c      	b.n	8007ef4 <printk+0x850>
				printk_putc(*vstrp--, &count, info);
 8007eda:	f8d7 3090 	ldr.w	r3, [r7, #144]	; 0x90
 8007ede:	1e5a      	subs	r2, r3, #1
 8007ee0:	f8c7 2090 	str.w	r2, [r7, #144]	; 0x90
 8007ee4:	781b      	ldrb	r3, [r3, #0]
 8007ee6:	4618      	mov	r0, r3
 8007ee8:	f107 0328 	add.w	r3, r7, #40	; 0x28
 8007eec:	68fa      	ldr	r2, [r7, #12]
 8007eee:	4619      	mov	r1, r3
 8007ef0:	f7ff f96e 	bl	80071d0 <printk_putc>
			cont_xd: while (*vstrp)
 8007ef4:	f8d7 3090 	ldr.w	r3, [r7, #144]	; 0x90
 8007ef8:	781b      	ldrb	r3, [r3, #0]
 8007efa:	2b00      	cmp	r3, #0
 8007efc:	d1ed      	bne.n	8007eda <printk+0x836>

			if (IS_FLAG_MINUS(flags_used)) {
 8007efe:	f8d7 3084 	ldr.w	r3, [r7, #132]	; 0x84
 8007f02:	f003 0301 	and.w	r3, r3, #1
 8007f06:	2b00      	cmp	r3, #0
 8007f08:	f000 8087 	beq.w	800801a <printk+0x976>
				printk_pad_space(vlen, field_width, &count, info);
 8007f0c:	f107 0228 	add.w	r2, r7, #40	; 0x28
 8007f10:	68fb      	ldr	r3, [r7, #12]
 8007f12:	f8d7 1080 	ldr.w	r1, [r7, #128]	; 0x80
 8007f16:	f8d7 008c 	ldr.w	r0, [r7, #140]	; 0x8c
 8007f1a:	f7ff fba8 	bl	800766e <printk_pad_space>
			}

			break;
 8007f1e:	e07c      	b.n	800801a <printk+0x976>
        //
		case 'c':
			cval = (char) va_arg(ap, unsigned int);
 8007f20:	687b      	ldr	r3, [r7, #4]
 8007f22:	3304      	adds	r3, #4
 8007f24:	607b      	str	r3, [r7, #4]
 8007f26:	687b      	ldr	r3, [r7, #4]
 8007f28:	3b04      	subs	r3, #4
 8007f2a:	681b      	ldr	r3, [r3, #0]
 8007f2c:	b2db      	uxtb	r3, r3
 8007f2e:	65bb      	str	r3, [r7, #88]	; 0x58
			printk_putc(cval, &count, info);
 8007f30:	f107 0328 	add.w	r3, r7, #40	; 0x28
 8007f34:	68fa      	ldr	r2, [r7, #12]
 8007f36:	4619      	mov	r1, r3
 8007f38:	6db8      	ldr	r0, [r7, #88]	; 0x58
 8007f3a:	f7ff f949 	bl	80071d0 <printk_putc>
			break;
 8007f3e:	e06f      	b.n	8008020 <printk+0x97c>
		case 's':
			sval = (char *) va_arg(ap, char *);
 8007f40:	687b      	ldr	r3, [r7, #4]
 8007f42:	3304      	adds	r3, #4
 8007f44:	607b      	str	r3, [r7, #4]
 8007f46:	687b      	ldr	r3, [r7, #4]
 8007f48:	3b04      	subs	r3, #4
 8007f4a:	681b      	ldr	r3, [r3, #0]
 8007f4c:	66bb      	str	r3, [r7, #104]	; 0x68
			if (sval) {
 8007f4e:	6ebb      	ldr	r3, [r7, #104]	; 0x68
 8007f50:	2b00      	cmp	r3, #0
 8007f52:	d064      	beq.n	800801e <printk+0x97a>
				vlen = strlen(sval);
 8007f54:	6eb8      	ldr	r0, [r7, #104]	; 0x68
 8007f56:	f7fe f99c 	bl	8006292 <strlen>
 8007f5a:	4603      	mov	r3, r0
 8007f5c:	f8c7 308c 	str.w	r3, [r7, #140]	; 0x8c
				if (!IS_FLAG_MINUS(flags_used)) {
 8007f60:	f8d7 3084 	ldr.w	r3, [r7, #132]	; 0x84
 8007f64:	f003 0301 	and.w	r3, r3, #1
 8007f68:	2b00      	cmp	r3, #0
 8007f6a:	d108      	bne.n	8007f7e <printk+0x8da>
					printk_pad_space(vlen, field_width, &count, info);
 8007f6c:	f107 0228 	add.w	r2, r7, #40	; 0x28
 8007f70:	68fb      	ldr	r3, [r7, #12]
 8007f72:	f8d7 1080 	ldr.w	r1, [r7, #128]	; 0x80
 8007f76:	f8d7 008c 	ldr.w	r0, [r7, #140]	; 0x8c
 8007f7a:	f7ff fb78 	bl	800766e <printk_pad_space>
				}
				if(precision_width!=0)
 8007f7e:	6f7b      	ldr	r3, [r7, #116]	; 0x74
 8007f80:	2b00      	cmp	r3, #0
 8007f82:	d021      	beq.n	8007fc8 <printk+0x924>
				{
					while (*sval)
 8007f84:	e010      	b.n	8007fa8 <printk+0x904>
					{
						if(precision_width>=1)
 8007f86:	6f7b      	ldr	r3, [r7, #116]	; 0x74
 8007f88:	2b00      	cmp	r3, #0
 8007f8a:	dd0d      	ble.n	8007fa8 <printk+0x904>
						{
							precision_width--;
 8007f8c:	6f7b      	ldr	r3, [r7, #116]	; 0x74
 8007f8e:	3b01      	subs	r3, #1
 8007f90:	677b      	str	r3, [r7, #116]	; 0x74
							printk_putc(*sval++, &count, info);
 8007f92:	6ebb      	ldr	r3, [r7, #104]	; 0x68
 8007f94:	1c5a      	adds	r2, r3, #1
 8007f96:	66ba      	str	r2, [r7, #104]	; 0x68
 8007f98:	781b      	ldrb	r3, [r3, #0]
 8007f9a:	4618      	mov	r0, r3
 8007f9c:	f107 0328 	add.w	r3, r7, #40	; 0x28
 8007fa0:	68fa      	ldr	r2, [r7, #12]
 8007fa2:	4619      	mov	r1, r3
 8007fa4:	f7ff f914 	bl	80071d0 <printk_putc>
					while (*sval)
 8007fa8:	6ebb      	ldr	r3, [r7, #104]	; 0x68
 8007faa:	781b      	ldrb	r3, [r3, #0]
 8007fac:	2b00      	cmp	r3, #0
 8007fae:	d1ea      	bne.n	8007f86 <printk+0x8e2>
 8007fb0:	e00e      	b.n	8007fd0 <printk+0x92c>
					}
				}
				else    //precision_width=0
				{
					while (*sval)
					   printk_putc(*sval++, &count, info);
 8007fb2:	6ebb      	ldr	r3, [r7, #104]	; 0x68
 8007fb4:	1c5a      	adds	r2, r3, #1
 8007fb6:	66ba      	str	r2, [r7, #104]	; 0x68
 8007fb8:	781b      	ldrb	r3, [r3, #0]
 8007fba:	4618      	mov	r0, r3
 8007fbc:	f107 0328 	add.w	r3, r7, #40	; 0x28
 8007fc0:	68fa      	ldr	r2, [r7, #12]
 8007fc2:	4619      	mov	r1, r3
 8007fc4:	f7ff f904 	bl	80071d0 <printk_putc>
					while (*sval)
 8007fc8:	6ebb      	ldr	r3, [r7, #104]	; 0x68
 8007fca:	781b      	ldrb	r3, [r3, #0]
 8007fcc:	2b00      	cmp	r3, #0
 8007fce:	d1f0      	bne.n	8007fb2 <printk+0x90e>
				}
				if (IS_FLAG_MINUS(flags_used)) {
 8007fd0:	f8d7 3084 	ldr.w	r3, [r7, #132]	; 0x84
 8007fd4:	f003 0301 	and.w	r3, r3, #1
 8007fd8:	2b00      	cmp	r3, #0
 8007fda:	d020      	beq.n	800801e <printk+0x97a>
					printk_pad_space(vlen, field_width, &count, info);
 8007fdc:	f107 0228 	add.w	r2, r7, #40	; 0x28
 8007fe0:	68fb      	ldr	r3, [r7, #12]
 8007fe2:	f8d7 1080 	ldr.w	r1, [r7, #128]	; 0x80
 8007fe6:	f8d7 008c 	ldr.w	r0, [r7, #140]	; 0x8c
 8007fea:	f7ff fb40 	bl	800766e <printk_pad_space>
				}
			}
			break;
 8007fee:	e016      	b.n	800801e <printk+0x97a>
		case 'n':
			ivalp = (int *) va_arg(ap, int *);
 8007ff0:	687b      	ldr	r3, [r7, #4]
 8007ff2:	3304      	adds	r3, #4
 8007ff4:	607b      	str	r3, [r7, #4]
 8007ff6:	687b      	ldr	r3, [r7, #4]
 8007ff8:	3b04      	subs	r3, #4
 8007ffa:	681b      	ldr	r3, [r3, #0]
 8007ffc:	663b      	str	r3, [r7, #96]	; 0x60
			*ivalp = count;
 8007ffe:	6aba      	ldr	r2, [r7, #40]	; 0x28
 8008000:	6e3b      	ldr	r3, [r7, #96]	; 0x60
 8008002:	601a      	str	r2, [r3, #0]
			break;
 8008004:	e00c      	b.n	8008020 <printk+0x97c>

		default:
			printk_putc(c, &count, info);
 8008006:	f107 0328 	add.w	r3, r7, #40	; 0x28
 800800a:	68fa      	ldr	r2, [r7, #12]
 800800c:	4619      	mov	r1, r3
 800800e:	6e78      	ldr	r0, [r7, #100]	; 0x64
 8008010:	f7ff f8de 	bl	80071d0 <printk_putc>
			break;
 8008014:	e004      	b.n	8008020 <printk+0x97c>
            break;
 8008016:	bf00      	nop
 8008018:	e002      	b.n	8008020 <printk+0x97c>
			break;
 800801a:	bf00      	nop
 800801c:	e000      	b.n	8008020 <printk+0x97c>
			break;
 800801e:	bf00      	nop
	for (p = (char *) fmt; (c = *p) != 0; p++)
 8008020:	f8d7 3094 	ldr.w	r3, [r7, #148]	; 0x94
 8008024:	3301      	adds	r3, #1
 8008026:	f8c7 3094 	str.w	r3, [r7, #148]	; 0x94
 800802a:	f8d7 3094 	ldr.w	r3, [r7, #148]	; 0x94
 800802e:	781b      	ldrb	r3, [r3, #0]
 8008030:	667b      	str	r3, [r7, #100]	; 0x64
 8008032:	6e7b      	ldr	r3, [r7, #100]	; 0x64
 8008034:	2b00      	cmp	r3, #0
 8008036:	f47f ab50 	bne.w	80076da <printk+0x36>
		}
	}
	return count;
 800803a:	6abb      	ldr	r3, [r7, #40]	; 0x28
}
 800803c:	4618      	mov	r0, r3
 800803e:	379c      	adds	r7, #156	; 0x9c
 8008040:	46bd      	mov	sp, r7
 8008042:	bd90      	pop	{r4, r7, pc}

08008044 <myprintf>:
//const char *:
//        printf("c=%c\n",c); cchar
//
//======================================================================
int myprintf(const char *fmt, ...)
{
 8008044:	b40f      	push	{r0, r1, r2, r3}
 8008046:	b580      	push	{r7, lr}
 8008048:	b086      	sub	sp, #24
 800804a:	af00      	add	r7, sp, #0
	char * ap;
	int rvalue;
	PRINTK_INFO info;
	info.dest = DEST_CONSOLE;  //1
 800804c:	2301      	movs	r3, #1
 800804e:	607b      	str	r3, [r7, #4]
	info.func = &out_char;     //
 8008050:	4b0a      	ldr	r3, [pc, #40]	; (800807c <myprintf+0x38>)
 8008052:	60bb      	str	r3, [r7, #8]
	va_start(ap, fmt);  //ap 
 8008054:	f107 0324 	add.w	r3, r7, #36	; 0x24
 8008058:	617b      	str	r3, [r7, #20]
	rvalue = printk(&info, fmt, ap);
 800805a:	6a39      	ldr	r1, [r7, #32]
 800805c:	1d3b      	adds	r3, r7, #4
 800805e:	697a      	ldr	r2, [r7, #20]
 8008060:	4618      	mov	r0, r3
 8008062:	f7ff fb1f 	bl	80076a4 <printk>
 8008066:	6138      	str	r0, [r7, #16]

	va_end(ap);
 8008068:	2300      	movs	r3, #0
 800806a:	617b      	str	r3, [r7, #20]

	return rvalue;
 800806c:	693b      	ldr	r3, [r7, #16]
}
 800806e:	4618      	mov	r0, r3
 8008070:	3718      	adds	r7, #24
 8008072:	46bd      	mov	sp, r7
 8008074:	e8bd 4080 	ldmia.w	sp!, {r7, lr}
 8008078:	b004      	add	sp, #16
 800807a:	4770      	bx	lr
 800807c:	080071a9 	.word	0x080071a9

08008080 <Delay_ms>:
//
//
// - 
//======================================================================
void Delay_ms(uint16_t u16ms)
{
 8008080:	b480      	push	{r7}
 8008082:	b085      	sub	sp, #20
 8008084:	af00      	add	r7, sp, #0
 8008086:	4603      	mov	r3, r0
 8008088:	80fb      	strh	r3, [r7, #6]
	uint_32 u32ctr;
	for(u32ctr = 0; u32ctr < (MCU_SYSTEM_CLK_MS*u16ms); u32ctr++)
 800808a:	2300      	movs	r3, #0
 800808c:	60fb      	str	r3, [r7, #12]
 800808e:	e003      	b.n	8008098 <Delay_ms+0x18>
	{
		NOP;
 8008090:	bf00      	nop
	for(u32ctr = 0; u32ctr < (MCU_SYSTEM_CLK_MS*u16ms); u32ctr++)
 8008092:	68fb      	ldr	r3, [r7, #12]
 8008094:	3301      	adds	r3, #1
 8008096:	60fb      	str	r3, [r7, #12]
 8008098:	88fb      	ldrh	r3, [r7, #6]
 800809a:	f64b 3280 	movw	r2, #48000	; 0xbb80
 800809e:	fb02 f303 	mul.w	r3, r2, r3
 80080a2:	461a      	mov	r2, r3
 80080a4:	68fb      	ldr	r3, [r7, #12]
 80080a6:	4293      	cmp	r3, r2
 80080a8:	d3f2      	bcc.n	8008090 <Delay_ms+0x10>
	}
}
 80080aa:	bf00      	nop
 80080ac:	3714      	adds	r7, #20
 80080ae:	46bd      	mov	sp, r7
 80080b0:	f85d 7b04 	ldr.w	r7, [sp], #4
 80080b4:	4770      	bx	lr
	...

080080b8 <aiInit>:

/*
 * Init function to create and initialize a NN.
 */
int aiInit(const ai_u8* activations)
{
 80080b8:	b580      	push	{r7, lr}
 80080ba:	b090      	sub	sp, #64	; 0x40
 80080bc:	af00      	add	r7, sp, #0
 80080be:	6078      	str	r0, [r7, #4]
    ai_error err;

    /* 1 - Specific AI data structure to provide the references of the
     * activation/working memory chunk and the weights/bias parameters */
    const ai_network_params params = {
 80080c0:	4b28      	ldr	r3, [pc, #160]	; (8008164 <aiInit+0xac>)
 80080c2:	60fb      	str	r3, [r7, #12]
 80080c4:	2301      	movs	r3, #1
 80080c6:	823b      	strh	r3, [r7, #16]
 80080c8:	2301      	movs	r3, #1
 80080ca:	827b      	strh	r3, [r7, #18]
 80080cc:	2301      	movs	r3, #1
 80080ce:	82bb      	strh	r3, [r7, #20]
 80080d0:	4b25      	ldr	r3, [pc, #148]	; (8008168 <aiInit+0xb0>)
 80080d2:	61bb      	str	r3, [r7, #24]
            AI_NETWORK_CNN_DATA_WEIGHTS(ai_network_cnn_data_weights_get()),
 80080d4:	f000 fb26 	bl	8008724 <ai_network_cnn_data_weights_get>
 80080d8:	4603      	mov	r3, r0
    const ai_network_params params = {
 80080da:	61fb      	str	r3, [r7, #28]
 80080dc:	2300      	movs	r3, #0
 80080de:	623b      	str	r3, [r7, #32]
 80080e0:	4b22      	ldr	r3, [pc, #136]	; (800816c <aiInit+0xb4>)
 80080e2:	627b      	str	r3, [r7, #36]	; 0x24
 80080e4:	2301      	movs	r3, #1
 80080e6:	853b      	strh	r3, [r7, #40]	; 0x28
 80080e8:	2301      	movs	r3, #1
 80080ea:	857b      	strh	r3, [r7, #42]	; 0x2a
 80080ec:	2301      	movs	r3, #1
 80080ee:	85bb      	strh	r3, [r7, #44]	; 0x2c
 80080f0:	f44f 43b2 	mov.w	r3, #22784	; 0x5900
 80080f4:	633b      	str	r3, [r7, #48]	; 0x30
 80080f6:	687b      	ldr	r3, [r7, #4]
 80080f8:	637b      	str	r3, [r7, #52]	; 0x34
 80080fa:	2300      	movs	r3, #0
 80080fc:	63bb      	str	r3, [r7, #56]	; 0x38
            AI_NETWORK_CNN_DATA_ACTIVATIONS(activations)
    };

    /* 2 - Create an instance of the NN */
    err = ai_network_cnn_create(&network_cnn, AI_NETWORK_CNN_DATA_CONFIG);
 80080fe:	2100      	movs	r1, #0
 8008100:	481b      	ldr	r0, [pc, #108]	; (8008170 <aiInit+0xb8>)
 8008102:	f000 faa9 	bl	8008658 <ai_network_cnn_create>
 8008106:	4603      	mov	r3, r0
 8008108:	63fb      	str	r3, [r7, #60]	; 0x3c
    if (err.type != AI_ERROR_NONE) {
 800810a:	f897 303c 	ldrb.w	r3, [r7, #60]	; 0x3c
 800810e:	2b00      	cmp	r3, #0
 8008110:	d002      	beq.n	8008118 <aiInit+0x60>
	    return -1;
 8008112:	f04f 33ff 	mov.w	r3, #4294967295
 8008116:	e020      	b.n	800815a <aiInit+0xa2>
    }

    /* 3 - Initialize the NN - Ready to be used */
    if (!ai_network_cnn_init(network_cnn, &params)) {
 8008118:	4b15      	ldr	r3, [pc, #84]	; (8008170 <aiInit+0xb8>)
 800811a:	681b      	ldr	r3, [r3, #0]
 800811c:	f107 020c 	add.w	r2, r7, #12
 8008120:	4611      	mov	r1, r2
 8008122:	4618      	mov	r0, r3
 8008124:	f000 faba 	bl	800869c <ai_network_cnn_init>
 8008128:	4603      	mov	r3, r0
 800812a:	f083 0301 	eor.w	r3, r3, #1
 800812e:	b2db      	uxtb	r3, r3
 8008130:	2b00      	cmp	r3, #0
 8008132:	d011      	beq.n	8008158 <aiInit+0xa0>
        err = ai_network_cnn_get_error(network_cnn);
 8008134:	4b0e      	ldr	r3, [pc, #56]	; (8008170 <aiInit+0xb8>)
 8008136:	681b      	ldr	r3, [r3, #0]
 8008138:	4618      	mov	r0, r3
 800813a:	f000 fa81 	bl	8008640 <ai_network_cnn_get_error>
 800813e:	4603      	mov	r3, r0
 8008140:	63fb      	str	r3, [r7, #60]	; 0x3c
        ai_network_cnn_destroy(network_cnn);
 8008142:	4b0b      	ldr	r3, [pc, #44]	; (8008170 <aiInit+0xb8>)
 8008144:	681b      	ldr	r3, [r3, #0]
 8008146:	4618      	mov	r0, r3
 8008148:	f000 fa9c 	bl	8008684 <ai_network_cnn_destroy>
        network_cnn = AI_HANDLE_NULL;
 800814c:	4b08      	ldr	r3, [pc, #32]	; (8008170 <aiInit+0xb8>)
 800814e:	2200      	movs	r2, #0
 8008150:	601a      	str	r2, [r3, #0]
	    return -2;
 8008152:	f06f 0301 	mvn.w	r3, #1
 8008156:	e000      	b.n	800815a <aiInit+0xa2>
    }

    return 0;
 8008158:	2300      	movs	r3, #0
}
 800815a:	4618      	mov	r0, r3
 800815c:	3740      	adds	r7, #64	; 0x40
 800815e:	46bd      	mov	sp, r7
 8008160:	bd80      	pop	{r7, pc}
 8008162:	bf00      	nop
 8008164:	40040440 	.word	0x40040440
 8008168:	000278cc 	.word	0x000278cc
 800816c:	00040440 	.word	0x00040440
 8008170:	20000b24 	.word	0x20000b24

08008174 <aiRun>:

/*
 * Run function to execute an inference.
 */
int aiRun(const void *in_data, void *out_data)
{
 8008174:	b580      	push	{r7, lr}
 8008176:	b084      	sub	sp, #16
 8008178:	af00      	add	r7, sp, #0
 800817a:	6078      	str	r0, [r7, #4]
 800817c:	6039      	str	r1, [r7, #0]
    ai_i32 nbatch;
    ai_error err;

    /* Parameters checking */
    if (!in_data || !out_data || !network_cnn)
 800817e:	687b      	ldr	r3, [r7, #4]
 8008180:	2b00      	cmp	r3, #0
 8008182:	d006      	beq.n	8008192 <aiRun+0x1e>
 8008184:	683b      	ldr	r3, [r7, #0]
 8008186:	2b00      	cmp	r3, #0
 8008188:	d003      	beq.n	8008192 <aiRun+0x1e>
 800818a:	4b17      	ldr	r3, [pc, #92]	; (80081e8 <aiRun+0x74>)
 800818c:	681b      	ldr	r3, [r3, #0]
 800818e:	2b00      	cmp	r3, #0
 8008190:	d102      	bne.n	8008198 <aiRun+0x24>
        return -1;
 8008192:	f04f 33ff 	mov.w	r3, #4294967295
 8008196:	e022      	b.n	80081de <aiRun+0x6a>

    /* Initialize input/output buffer handlers */
    ai_input[0].n_batches = 1;
 8008198:	4b14      	ldr	r3, [pc, #80]	; (80081ec <aiRun+0x78>)
 800819a:	2201      	movs	r2, #1
 800819c:	809a      	strh	r2, [r3, #4]
    ai_input[0].data = AI_HANDLE_PTR(in_data);
 800819e:	4a13      	ldr	r2, [pc, #76]	; (80081ec <aiRun+0x78>)
 80081a0:	687b      	ldr	r3, [r7, #4]
 80081a2:	6113      	str	r3, [r2, #16]
    ai_output[0].n_batches = 1;
 80081a4:	4b12      	ldr	r3, [pc, #72]	; (80081f0 <aiRun+0x7c>)
 80081a6:	2201      	movs	r2, #1
 80081a8:	809a      	strh	r2, [r3, #4]
    ai_output[0].data = AI_HANDLE_PTR(out_data);
 80081aa:	4a11      	ldr	r2, [pc, #68]	; (80081f0 <aiRun+0x7c>)
 80081ac:	683b      	ldr	r3, [r7, #0]
 80081ae:	6113      	str	r3, [r2, #16]

    /* 2 - Perform the inference */
    nbatch = ai_network_cnn_run(network_cnn, &ai_input[0], &ai_output[0]);
 80081b0:	4b0d      	ldr	r3, [pc, #52]	; (80081e8 <aiRun+0x74>)
 80081b2:	681b      	ldr	r3, [r3, #0]
 80081b4:	4a0e      	ldr	r2, [pc, #56]	; (80081f0 <aiRun+0x7c>)
 80081b6:	490d      	ldr	r1, [pc, #52]	; (80081ec <aiRun+0x78>)
 80081b8:	4618      	mov	r0, r3
 80081ba:	f000 faa2 	bl	8008702 <ai_network_cnn_run>
 80081be:	60f8      	str	r0, [r7, #12]
    if (nbatch != 1) {
 80081c0:	68fb      	ldr	r3, [r7, #12]
 80081c2:	2b01      	cmp	r3, #1
 80081c4:	d00a      	beq.n	80081dc <aiRun+0x68>
        err = ai_network_cnn_get_error(network_cnn);
 80081c6:	4b08      	ldr	r3, [pc, #32]	; (80081e8 <aiRun+0x74>)
 80081c8:	681b      	ldr	r3, [r3, #0]
 80081ca:	4618      	mov	r0, r3
 80081cc:	f000 fa38 	bl	8008640 <ai_network_cnn_get_error>
 80081d0:	4603      	mov	r3, r0
 80081d2:	60bb      	str	r3, [r7, #8]
        // ...
        return err.code;
 80081d4:	68bb      	ldr	r3, [r7, #8]
 80081d6:	f3c3 2317 	ubfx	r3, r3, #8, #24
 80081da:	e000      	b.n	80081de <aiRun+0x6a>
    // Copy inference result  20200426image_features
//    for (int i = 0; i < AI_NETWORK_CNN_OUT_1_SIZE; i++) {
//    	out_data[i] = ( (ai_output[0].data))[i];
//    }

    return 0;
 80081dc:	2300      	movs	r3, #0
}
 80081de:	4618      	mov	r0, r3
 80081e0:	3710      	adds	r7, #16
 80081e2:	46bd      	mov	sp, r7
 80081e4:	bd80      	pop	{r7, pc}
 80081e6:	bf00      	nop
 80081e8:	20000b24 	.word	0x20000b24
 80081ec:	20000000 	.word	0x20000000
 80081f0:	20000018 	.word	0x20000018

080081f4 <MX_X_CUBE_AI_Init>:

/*************************************************************************
  *
  */
void MX_X_CUBE_AI_Init(void)
{
 80081f4:	b580      	push	{r7, lr}
 80081f6:	af00      	add	r7, sp, #0
    /* Activation/working buffer is allocated as a static memory chunk
     * (bss section) */
    AI_ALIGNED(4)
    static ai_u8 activations[AI_NETWORK_CNN_DATA_ACTIVATIONS_SIZE];

    aiInit(activations);
 80081f8:	4802      	ldr	r0, [pc, #8]	; (8008204 <MX_X_CUBE_AI_Init+0x10>)
 80081fa:	f7ff ff5d 	bl	80080b8 <aiInit>
    /* USER CODE END 0 */
}
 80081fe:	bf00      	nop
 8008200:	bd80      	pop	{r7, pc}
 8008202:	bf00      	nop
 8008204:	20000b28 	.word	0x20000b28

08008208 <MX_X_CUBE_AI_Process>:

void MX_X_CUBE_AI_Process(void)
{
 8008208:	b580      	push	{r7, lr}
 800820a:	b08c      	sub	sp, #48	; 0x30
 800820c:	af00      	add	r7, sp, #0
    /* USER CODE BEGIN 1 */
	int nb_run = 20;
 800820e:	2314      	movs	r3, #20
 8008210:	62fb      	str	r3, [r7, #44]	; 0x2c

    AI_ALIGNED(4)
    static ai_i8 out_data[AI_NETWORK_CNN_OUT_1_SIZE_BYTES];

    /* Retrieve format/type of the first input tensor - index 0 */
    const ai_buffer_format fmt_ = AI_BUFFER_FORMAT(&ai_input[0]);
 8008212:	4b5a      	ldr	r3, [pc, #360]	; (800837c <MX_X_CUBE_AI_Process+0x174>)
 8008214:	681b      	ldr	r3, [r3, #0]
 8008216:	f023 437e 	bic.w	r3, r3, #4261412864	; 0xfe000000
 800821a:	627b      	str	r3, [r7, #36]	; 0x24
    const uint32_t type_ = AI_BUFFER_FMT_GET_TYPE(fmt_);
 800821c:	6a7b      	ldr	r3, [r7, #36]	; 0x24
 800821e:	145b      	asrs	r3, r3, #17
 8008220:	f003 030f 	and.w	r3, r3, #15
 8008224:	623b      	str	r3, [r7, #32]

    /* Prepare parameters for float to Qmn conversion */
    const ai_i16 N_ = AI_BUFFER_FMT_GET_FBITS(fmt_);
 8008226:	6a7b      	ldr	r3, [r7, #36]	; 0x24
 8008228:	b2db      	uxtb	r3, r3
 800822a:	b29b      	uxth	r3, r3
 800822c:	f003 037f 	and.w	r3, r3, #127	; 0x7f
 8008230:	b29b      	uxth	r3, r3
 8008232:	3b40      	subs	r3, #64	; 0x40
 8008234:	b29b      	uxth	r3, r3
 8008236:	83fb      	strh	r3, [r7, #30]
    const ai_float scale_ = (0x1U << N_);
 8008238:	f9b7 301e 	ldrsh.w	r3, [r7, #30]
 800823c:	2201      	movs	r2, #1
 800823e:	fa02 f303 	lsl.w	r3, r2, r3
 8008242:	ee07 3a90 	vmov	s15, r3
 8008246:	eef8 7a67 	vcvt.f32.u32	s15, s15
 800824a:	edc7 7a06 	vstr	s15, [r7, #24]
    const ai_i16 M_ =  AI_BUFFER_FMT_GET_BITS(fmt_)
 800824e:	6a7b      	ldr	r3, [r7, #36]	; 0x24
 8008250:	11db      	asrs	r3, r3, #7
 8008252:	b29b      	uxth	r3, r3
 8008254:	f003 037f 	and.w	r3, r3, #127	; 0x7f
 8008258:	b29a      	uxth	r2, r3
                       - AI_BUFFER_FMT_GET_SIGN(fmt_) - N_;
 800825a:	6a7b      	ldr	r3, [r7, #36]	; 0x24
 800825c:	15db      	asrs	r3, r3, #23
 800825e:	b29b      	uxth	r3, r3
 8008260:	f003 0301 	and.w	r3, r3, #1
 8008264:	b29b      	uxth	r3, r3
 8008266:	1ad3      	subs	r3, r2, r3
 8008268:	b29a      	uxth	r2, r3
 800826a:	8bfb      	ldrh	r3, [r7, #30]
 800826c:	1ad3      	subs	r3, r2, r3
 800826e:	b29b      	uxth	r3, r3
    const ai_i16 M_ =  AI_BUFFER_FMT_GET_BITS(fmt_)
 8008270:	82fb      	strh	r3, [r7, #22]
    const ai_float max_ = (ai_float)(0x1U << M_);
 8008272:	f9b7 3016 	ldrsh.w	r3, [r7, #22]
 8008276:	2201      	movs	r2, #1
 8008278:	fa02 f303 	lsl.w	r3, r2, r3
 800827c:	ee07 3a90 	vmov	s15, r3
 8008280:	eef8 7a67 	vcvt.f32.u32	s15, s15
 8008284:	edc7 7a04 	vstr	s15, [r7, #16]

    /* Perform nb_rub inferences (batch = 1) */
    while (--nb_run) {
 8008288:	e06d      	b.n	8008366 <MX_X_CUBE_AI_Process+0x15e>

        /* ---------------------------------------- */
        /* Data generation and Pre-Process          */
        /* ---------------------------------------- */
        /* - fill the input buffer with random data */
        for (ai_size i=0;  i < AI_NETWORK_CNN_IN_1_SIZE; i++ ) {
 800828a:	2300      	movs	r3, #0
 800828c:	62bb      	str	r3, [r7, #40]	; 0x28
 800828e:	e05e      	b.n	800834e <MX_X_CUBE_AI_Process+0x146>

            /* Generate random data in the range [-1, 1] */
            ai_float val = 2.0f * (ai_float)rand() / (ai_float)RAND_MAX - 1.0f;
 8008290:	f000 fac2 	bl	8008818 <rand>
 8008294:	ee07 0a90 	vmov	s15, r0
 8008298:	eef8 7ae7 	vcvt.f32.s32	s15, s15
 800829c:	ee37 7aa7 	vadd.f32	s14, s15, s15
 80082a0:	eddf 6a37 	vldr	s13, [pc, #220]	; 8008380 <MX_X_CUBE_AI_Process+0x178>
 80082a4:	eec7 7a26 	vdiv.f32	s15, s14, s13
 80082a8:	eeb7 7a00 	vmov.f32	s14, #112	; 0x3f800000  1.0
 80082ac:	ee77 7ac7 	vsub.f32	s15, s15, s14
 80082b0:	edc7 7a02 	vstr	s15, [r7, #8]

            /* Convert the data if necessary */
            if (type_ == AI_BUFFER_FMT_TYPE_FLOAT) {
 80082b4:	6a3b      	ldr	r3, [r7, #32]
 80082b6:	2b01      	cmp	r3, #1
 80082b8:	d106      	bne.n	80082c8 <MX_X_CUBE_AI_Process+0xc0>
                ((ai_float *)in_data)[i] = val;
 80082ba:	6abb      	ldr	r3, [r7, #40]	; 0x28
 80082bc:	009b      	lsls	r3, r3, #2
 80082be:	4a31      	ldr	r2, [pc, #196]	; (8008384 <MX_X_CUBE_AI_Process+0x17c>)
 80082c0:	4413      	add	r3, r2
 80082c2:	68ba      	ldr	r2, [r7, #8]
 80082c4:	601a      	str	r2, [r3, #0]
 80082c6:	e03f      	b.n	8008348 <MX_X_CUBE_AI_Process+0x140>
            } else { /* AI_BUFFER_FMT_TYPE_Q */
                /* Scale the values in the range [-2^M, 2^M] */
                val *= max_;
 80082c8:	ed97 7a02 	vldr	s14, [r7, #8]
 80082cc:	edd7 7a04 	vldr	s15, [r7, #16]
 80082d0:	ee67 7a27 	vmul.f32	s15, s14, s15
 80082d4:	edc7 7a02 	vstr	s15, [r7, #8]
                /* Convert float to Qmn format */
                const ai_i32 tmp_ = AI_ROUND(val * scale_, ai_i32);
 80082d8:	ed97 7a02 	vldr	s14, [r7, #8]
 80082dc:	edd7 7a06 	vldr	s15, [r7, #24]
 80082e0:	ee67 7a27 	vmul.f32	s15, s14, s15
 80082e4:	eef5 7ac0 	vcmpe.f32	s15, #0.0
 80082e8:	eef1 fa10 	vmrs	APSR_nzcv, fpscr
 80082ec:	d50c      	bpl.n	8008308 <MX_X_CUBE_AI_Process+0x100>
 80082ee:	ed97 7a02 	vldr	s14, [r7, #8]
 80082f2:	edd7 7a06 	vldr	s15, [r7, #24]
 80082f6:	ee67 7a27 	vmul.f32	s15, s14, s15
 80082fa:	eeb6 7a00 	vmov.f32	s14, #96	; 0x3f000000  0.5
 80082fe:	ee77 7ac7 	vsub.f32	s15, s15, s14
 8008302:	eefd 7ae7 	vcvt.s32.f32	s15, s15
 8008306:	e00b      	b.n	8008320 <MX_X_CUBE_AI_Process+0x118>
 8008308:	ed97 7a02 	vldr	s14, [r7, #8]
 800830c:	edd7 7a06 	vldr	s15, [r7, #24]
 8008310:	ee67 7a27 	vmul.f32	s15, s14, s15
 8008314:	eeb6 7a00 	vmov.f32	s14, #96	; 0x3f000000  0.5
 8008318:	ee77 7a87 	vadd.f32	s15, s15, s14
 800831c:	eefd 7ae7 	vcvt.s32.f32	s15, s15
 8008320:	edc7 7a01 	vstr	s15, [r7, #4]
                in_data[i] =  AI_CLAMP(tmp_, -128, 127, ai_i8);
 8008324:	687b      	ldr	r3, [r7, #4]
 8008326:	2b7e      	cmp	r3, #126	; 0x7e
 8008328:	dc09      	bgt.n	800833e <MX_X_CUBE_AI_Process+0x136>
 800832a:	687b      	ldr	r3, [r7, #4]
 800832c:	f113 0f7f 	cmn.w	r3, #127	; 0x7f
 8008330:	db02      	blt.n	8008338 <MX_X_CUBE_AI_Process+0x130>
 8008332:	687b      	ldr	r3, [r7, #4]
 8008334:	b25b      	sxtb	r3, r3
 8008336:	e003      	b.n	8008340 <MX_X_CUBE_AI_Process+0x138>
 8008338:	f06f 037f 	mvn.w	r3, #127	; 0x7f
 800833c:	e000      	b.n	8008340 <MX_X_CUBE_AI_Process+0x138>
 800833e:	237f      	movs	r3, #127	; 0x7f
 8008340:	4910      	ldr	r1, [pc, #64]	; (8008384 <MX_X_CUBE_AI_Process+0x17c>)
 8008342:	6aba      	ldr	r2, [r7, #40]	; 0x28
 8008344:	440a      	add	r2, r1
 8008346:	7013      	strb	r3, [r2, #0]
        for (ai_size i=0;  i < AI_NETWORK_CNN_IN_1_SIZE; i++ ) {
 8008348:	6abb      	ldr	r3, [r7, #40]	; 0x28
 800834a:	3301      	adds	r3, #1
 800834c:	62bb      	str	r3, [r7, #40]	; 0x28
 800834e:	6abb      	ldr	r3, [r7, #40]	; 0x28
 8008350:	f5b3 6f40 	cmp.w	r3, #3072	; 0xc00
 8008354:	d39c      	bcc.n	8008290 <MX_X_CUBE_AI_Process+0x88>
            }
        }

        /* Perform the inference */
        res = aiRun(in_data, out_data);
 8008356:	490c      	ldr	r1, [pc, #48]	; (8008388 <MX_X_CUBE_AI_Process+0x180>)
 8008358:	480a      	ldr	r0, [pc, #40]	; (8008384 <MX_X_CUBE_AI_Process+0x17c>)
 800835a:	f7ff ff0b 	bl	8008174 <aiRun>
 800835e:	60f8      	str	r0, [r7, #12]
        if (res) {
 8008360:	68fb      	ldr	r3, [r7, #12]
 8008362:	2b00      	cmp	r3, #0
 8008364:	d106      	bne.n	8008374 <MX_X_CUBE_AI_Process+0x16c>
    while (--nb_run) {
 8008366:	6afb      	ldr	r3, [r7, #44]	; 0x2c
 8008368:	3b01      	subs	r3, #1
 800836a:	62fb      	str	r3, [r7, #44]	; 0x2c
 800836c:	6afb      	ldr	r3, [r7, #44]	; 0x2c
 800836e:	2b00      	cmp	r3, #0
 8008370:	d18b      	bne.n	800828a <MX_X_CUBE_AI_Process+0x82>
 8008372:	e000      	b.n	8008376 <MX_X_CUBE_AI_Process+0x16e>
            // ...
            return;
 8008374:	bf00      	nop
          printf(" %-12s%3d%%\n", class_labels[i], (int) (out_data[i] * 100));
        }
*/
    }
    /* USER CODE END 1 */
}
 8008376:	3730      	adds	r7, #48	; 0x30
 8008378:	46bd      	mov	sp, r7
 800837a:	bd80      	pop	{r7, pc}
 800837c:	20000000 	.word	0x20000000
 8008380:	4f000000 	.word	0x4f000000
 8008384:	20006428 	.word	0x20006428
 8008388:	20009428 	.word	0x20009428

0800838c <network_cnn_configure_activations>:


AI_DECLARE_STATIC
ai_bool network_cnn_configure_activations(
  ai_network* net_ctx, const ai_buffer* activation_buffer)
{
 800838c:	b480      	push	{r7}
 800838e:	b085      	sub	sp, #20
 8008390:	af00      	add	r7, sp, #0
 8008392:	6078      	str	r0, [r7, #4]
 8008394:	6039      	str	r1, [r7, #0]
  AI_ASSERT(net_ctx &&  activation_buffer && activation_buffer->data)

  ai_ptr activations = AI_PTR(AI_PTR_ALIGN(activation_buffer->data, 4));
 8008396:	683b      	ldr	r3, [r7, #0]
 8008398:	691b      	ldr	r3, [r3, #16]
 800839a:	3303      	adds	r3, #3
 800839c:	f023 0303 	bic.w	r3, r3, #3
 80083a0:	60fb      	str	r3, [r7, #12]
  AI_ASSERT(activations)
  AI_UNUSED(net_ctx)

  {
    /* Updating activations (byte) offsets */
    conv2d_9_scratch0_array.data = AI_PTR(activations + 18688);
 80083a2:	68fb      	ldr	r3, [r7, #12]
 80083a4:	f503 4392 	add.w	r3, r3, #18688	; 0x4900
 80083a8:	4a33      	ldr	r2, [pc, #204]	; (8008478 <network_cnn_configure_activations+0xec>)
 80083aa:	6093      	str	r3, [r2, #8]
    conv2d_9_scratch0_array.data_start = AI_PTR(activations + 18688);
 80083ac:	68fb      	ldr	r3, [r7, #12]
 80083ae:	f503 4392 	add.w	r3, r3, #18688	; 0x4900
 80083b2:	4a31      	ldr	r2, [pc, #196]	; (8008478 <network_cnn_configure_activations+0xec>)
 80083b4:	60d3      	str	r3, [r2, #12]
    conv2d_8_scratch0_array.data = AI_PTR(activations + 18688);
 80083b6:	68fb      	ldr	r3, [r7, #12]
 80083b8:	f503 4392 	add.w	r3, r3, #18688	; 0x4900
 80083bc:	4a2f      	ldr	r2, [pc, #188]	; (800847c <network_cnn_configure_activations+0xf0>)
 80083be:	6093      	str	r3, [r2, #8]
    conv2d_8_scratch0_array.data_start = AI_PTR(activations + 18688);
 80083c0:	68fb      	ldr	r3, [r7, #12]
 80083c2:	f503 4392 	add.w	r3, r3, #18688	; 0x4900
 80083c6:	4a2d      	ldr	r2, [pc, #180]	; (800847c <network_cnn_configure_activations+0xf0>)
 80083c8:	60d3      	str	r3, [r2, #12]
    conv2d_7_scratch0_array.data = AI_PTR(activations + 18688);
 80083ca:	68fb      	ldr	r3, [r7, #12]
 80083cc:	f503 4392 	add.w	r3, r3, #18688	; 0x4900
 80083d0:	4a2b      	ldr	r2, [pc, #172]	; (8008480 <network_cnn_configure_activations+0xf4>)
 80083d2:	6093      	str	r3, [r2, #8]
    conv2d_7_scratch0_array.data_start = AI_PTR(activations + 18688);
 80083d4:	68fb      	ldr	r3, [r7, #12]
 80083d6:	f503 4392 	add.w	r3, r3, #18688	; 0x4900
 80083da:	4a29      	ldr	r2, [pc, #164]	; (8008480 <network_cnn_configure_activations+0xf4>)
 80083dc:	60d3      	str	r3, [r2, #12]
    input_0_output_array.data = AI_PTR(NULL);
 80083de:	4b29      	ldr	r3, [pc, #164]	; (8008484 <network_cnn_configure_activations+0xf8>)
 80083e0:	2200      	movs	r2, #0
 80083e2:	609a      	str	r2, [r3, #8]
    input_0_output_array.data_start = AI_PTR(NULL);
 80083e4:	4b27      	ldr	r3, [pc, #156]	; (8008484 <network_cnn_configure_activations+0xf8>)
 80083e6:	2200      	movs	r2, #0
 80083e8:	60da      	str	r2, [r3, #12]
    conv2d_7_output_array.data = AI_PTR(activations + 2304);
 80083ea:	68fb      	ldr	r3, [r7, #12]
 80083ec:	f503 6310 	add.w	r3, r3, #2304	; 0x900
 80083f0:	4a25      	ldr	r2, [pc, #148]	; (8008488 <network_cnn_configure_activations+0xfc>)
 80083f2:	6093      	str	r3, [r2, #8]
    conv2d_7_output_array.data_start = AI_PTR(activations + 2304);
 80083f4:	68fb      	ldr	r3, [r7, #12]
 80083f6:	f503 6310 	add.w	r3, r3, #2304	; 0x900
 80083fa:	4a23      	ldr	r2, [pc, #140]	; (8008488 <network_cnn_configure_activations+0xfc>)
 80083fc:	60d3      	str	r3, [r2, #12]
    conv2d_8_output_array.data = AI_PTR(activations + 0);
 80083fe:	4a23      	ldr	r2, [pc, #140]	; (800848c <network_cnn_configure_activations+0x100>)
 8008400:	68fb      	ldr	r3, [r7, #12]
 8008402:	6093      	str	r3, [r2, #8]
    conv2d_8_output_array.data_start = AI_PTR(activations + 0);
 8008404:	4a21      	ldr	r2, [pc, #132]	; (800848c <network_cnn_configure_activations+0x100>)
 8008406:	68fb      	ldr	r3, [r7, #12]
 8008408:	60d3      	str	r3, [r2, #12]
    conv2d_9_output_array.data = AI_PTR(activations + 14592);
 800840a:	68fb      	ldr	r3, [r7, #12]
 800840c:	f503 5364 	add.w	r3, r3, #14592	; 0x3900
 8008410:	4a1f      	ldr	r2, [pc, #124]	; (8008490 <network_cnn_configure_activations+0x104>)
 8008412:	6093      	str	r3, [r2, #8]
    conv2d_9_output_array.data_start = AI_PTR(activations + 14592);
 8008414:	68fb      	ldr	r3, [r7, #12]
 8008416:	f503 5364 	add.w	r3, r3, #14592	; 0x3900
 800841a:	4a1d      	ldr	r2, [pc, #116]	; (8008490 <network_cnn_configure_activations+0x104>)
 800841c:	60d3      	str	r3, [r2, #12]
    dense_5_output_array.data = AI_PTR(activations + 14080);
 800841e:	68fb      	ldr	r3, [r7, #12]
 8008420:	f503 535c 	add.w	r3, r3, #14080	; 0x3700
 8008424:	4a1b      	ldr	r2, [pc, #108]	; (8008494 <network_cnn_configure_activations+0x108>)
 8008426:	6093      	str	r3, [r2, #8]
    dense_5_output_array.data_start = AI_PTR(activations + 14080);
 8008428:	68fb      	ldr	r3, [r7, #12]
 800842a:	f503 535c 	add.w	r3, r3, #14080	; 0x3700
 800842e:	4a19      	ldr	r2, [pc, #100]	; (8008494 <network_cnn_configure_activations+0x108>)
 8008430:	60d3      	str	r3, [r2, #12]
    dense_5_nl_output_array.data = AI_PTR(activations + 14080);
 8008432:	68fb      	ldr	r3, [r7, #12]
 8008434:	f503 535c 	add.w	r3, r3, #14080	; 0x3700
 8008438:	4a17      	ldr	r2, [pc, #92]	; (8008498 <network_cnn_configure_activations+0x10c>)
 800843a:	6093      	str	r3, [r2, #8]
    dense_5_nl_output_array.data_start = AI_PTR(activations + 14080);
 800843c:	68fb      	ldr	r3, [r7, #12]
 800843e:	f503 535c 	add.w	r3, r3, #14080	; 0x3700
 8008442:	4a15      	ldr	r2, [pc, #84]	; (8008498 <network_cnn_configure_activations+0x10c>)
 8008444:	60d3      	str	r3, [r2, #12]
    dense_6_output_array.data = AI_PTR(activations + 14068);
 8008446:	68fb      	ldr	r3, [r7, #12]
 8008448:	f503 535b 	add.w	r3, r3, #14016	; 0x36c0
 800844c:	3334      	adds	r3, #52	; 0x34
 800844e:	4a13      	ldr	r2, [pc, #76]	; (800849c <network_cnn_configure_activations+0x110>)
 8008450:	6093      	str	r3, [r2, #8]
    dense_6_output_array.data_start = AI_PTR(activations + 14068);
 8008452:	68fb      	ldr	r3, [r7, #12]
 8008454:	f503 535b 	add.w	r3, r3, #14016	; 0x36c0
 8008458:	3334      	adds	r3, #52	; 0x34
 800845a:	4a10      	ldr	r2, [pc, #64]	; (800849c <network_cnn_configure_activations+0x110>)
 800845c:	60d3      	str	r3, [r2, #12]
    dense_6_nl_output_array.data = AI_PTR(NULL);
 800845e:	4b10      	ldr	r3, [pc, #64]	; (80084a0 <network_cnn_configure_activations+0x114>)
 8008460:	2200      	movs	r2, #0
 8008462:	609a      	str	r2, [r3, #8]
    dense_6_nl_output_array.data_start = AI_PTR(NULL);
 8008464:	4b0e      	ldr	r3, [pc, #56]	; (80084a0 <network_cnn_configure_activations+0x114>)
 8008466:	2200      	movs	r2, #0
 8008468:	60da      	str	r2, [r3, #12]
    
  }
  return true;
 800846a:	2301      	movs	r3, #1
}
 800846c:	4618      	mov	r0, r3
 800846e:	3714      	adds	r7, #20
 8008470:	46bd      	mov	sp, r7
 8008472:	f85d 7b04 	ldr.w	r7, [sp], #4
 8008476:	4770      	bx	lr
 8008478:	20000088 	.word	0x20000088
 800847c:	20000098 	.word	0x20000098
 8008480:	200000a8 	.word	0x200000a8
 8008484:	20000158 	.word	0x20000158
 8008488:	20000168 	.word	0x20000168
 800848c:	20000178 	.word	0x20000178
 8008490:	20000188 	.word	0x20000188
 8008494:	20000198 	.word	0x20000198
 8008498:	200001a8 	.word	0x200001a8
 800849c:	200001b8 	.word	0x200001b8
 80084a0:	200001c8 	.word	0x200001c8

080084a4 <network_cnn_configure_weights>:


AI_DECLARE_STATIC
ai_bool network_cnn_configure_weights(
  ai_network* net_ctx, const ai_buffer* weights_buffer)
{
 80084a4:	b480      	push	{r7}
 80084a6:	b085      	sub	sp, #20
 80084a8:	af00      	add	r7, sp, #0
 80084aa:	6078      	str	r0, [r7, #4]
 80084ac:	6039      	str	r1, [r7, #0]
  AI_ASSERT(net_ctx &&  weights_buffer && weights_buffer->data)

  ai_ptr weights = AI_PTR(weights_buffer->data);
 80084ae:	683b      	ldr	r3, [r7, #0]
 80084b0:	691b      	ldr	r3, [r3, #16]
 80084b2:	60fb      	str	r3, [r7, #12]
  AI_UNUSED(net_ctx)

  {
    /* Updating weights (byte) offsets */
    
    dense_6_bias_array.format |= AI_FMT_FLAG_CONST;
 80084b4:	4b58      	ldr	r3, [pc, #352]	; (8008618 <network_cnn_configure_weights+0x174>)
 80084b6:	681b      	ldr	r3, [r3, #0]
 80084b8:	f043 4380 	orr.w	r3, r3, #1073741824	; 0x40000000
 80084bc:	4a56      	ldr	r2, [pc, #344]	; (8008618 <network_cnn_configure_weights+0x174>)
 80084be:	6013      	str	r3, [r2, #0]
    dense_6_bias_array.data = AI_PTR(weights + 161984);
 80084c0:	68fb      	ldr	r3, [r7, #12]
 80084c2:	f503 331e 	add.w	r3, r3, #161792	; 0x27800
 80084c6:	33c0      	adds	r3, #192	; 0xc0
 80084c8:	4a53      	ldr	r2, [pc, #332]	; (8008618 <network_cnn_configure_weights+0x174>)
 80084ca:	6093      	str	r3, [r2, #8]
    dense_6_bias_array.data_start = AI_PTR(weights + 161984);
 80084cc:	68fb      	ldr	r3, [r7, #12]
 80084ce:	f503 331e 	add.w	r3, r3, #161792	; 0x27800
 80084d2:	33c0      	adds	r3, #192	; 0xc0
 80084d4:	4a50      	ldr	r2, [pc, #320]	; (8008618 <network_cnn_configure_weights+0x174>)
 80084d6:	60d3      	str	r3, [r2, #12]
    dense_6_weights_array.format |= AI_FMT_FLAG_CONST;
 80084d8:	4b50      	ldr	r3, [pc, #320]	; (800861c <network_cnn_configure_weights+0x178>)
 80084da:	681b      	ldr	r3, [r3, #0]
 80084dc:	f043 4380 	orr.w	r3, r3, #1073741824	; 0x40000000
 80084e0:	4a4e      	ldr	r2, [pc, #312]	; (800861c <network_cnn_configure_weights+0x178>)
 80084e2:	6013      	str	r3, [r2, #0]
    dense_6_weights_array.data = AI_PTR(weights + 160448);
 80084e4:	68fb      	ldr	r3, [r7, #12]
 80084e6:	f503 331c 	add.w	r3, r3, #159744	; 0x27000
 80084ea:	f503 7330 	add.w	r3, r3, #704	; 0x2c0
 80084ee:	4a4b      	ldr	r2, [pc, #300]	; (800861c <network_cnn_configure_weights+0x178>)
 80084f0:	6093      	str	r3, [r2, #8]
    dense_6_weights_array.data_start = AI_PTR(weights + 160448);
 80084f2:	68fb      	ldr	r3, [r7, #12]
 80084f4:	f503 331c 	add.w	r3, r3, #159744	; 0x27000
 80084f8:	f503 7330 	add.w	r3, r3, #704	; 0x2c0
 80084fc:	4a47      	ldr	r2, [pc, #284]	; (800861c <network_cnn_configure_weights+0x178>)
 80084fe:	60d3      	str	r3, [r2, #12]
    dense_5_bias_array.format |= AI_FMT_FLAG_CONST;
 8008500:	4b47      	ldr	r3, [pc, #284]	; (8008620 <network_cnn_configure_weights+0x17c>)
 8008502:	681b      	ldr	r3, [r3, #0]
 8008504:	f043 4380 	orr.w	r3, r3, #1073741824	; 0x40000000
 8008508:	4a45      	ldr	r2, [pc, #276]	; (8008620 <network_cnn_configure_weights+0x17c>)
 800850a:	6013      	str	r3, [r2, #0]
    dense_5_bias_array.data = AI_PTR(weights + 159936);
 800850c:	68fb      	ldr	r3, [r7, #12]
 800850e:	f503 331c 	add.w	r3, r3, #159744	; 0x27000
 8008512:	33c0      	adds	r3, #192	; 0xc0
 8008514:	4a42      	ldr	r2, [pc, #264]	; (8008620 <network_cnn_configure_weights+0x17c>)
 8008516:	6093      	str	r3, [r2, #8]
    dense_5_bias_array.data_start = AI_PTR(weights + 159936);
 8008518:	68fb      	ldr	r3, [r7, #12]
 800851a:	f503 331c 	add.w	r3, r3, #159744	; 0x27000
 800851e:	33c0      	adds	r3, #192	; 0xc0
 8008520:	4a3f      	ldr	r2, [pc, #252]	; (8008620 <network_cnn_configure_weights+0x17c>)
 8008522:	60d3      	str	r3, [r2, #12]
    dense_5_weights_array.format |= AI_FMT_FLAG_CONST;
 8008524:	4b3f      	ldr	r3, [pc, #252]	; (8008624 <network_cnn_configure_weights+0x180>)
 8008526:	681b      	ldr	r3, [r3, #0]
 8008528:	f043 4380 	orr.w	r3, r3, #1073741824	; 0x40000000
 800852c:	4a3d      	ldr	r2, [pc, #244]	; (8008624 <network_cnn_configure_weights+0x180>)
 800852e:	6013      	str	r3, [r2, #0]
    dense_5_weights_array.data = AI_PTR(weights + 94400);
 8008530:	68fb      	ldr	r3, [r7, #12]
 8008532:	f503 33b8 	add.w	r3, r3, #94208	; 0x17000
 8008536:	33c0      	adds	r3, #192	; 0xc0
 8008538:	4a3a      	ldr	r2, [pc, #232]	; (8008624 <network_cnn_configure_weights+0x180>)
 800853a:	6093      	str	r3, [r2, #8]
    dense_5_weights_array.data_start = AI_PTR(weights + 94336);
 800853c:	68fb      	ldr	r3, [r7, #12]
 800853e:	f503 33b8 	add.w	r3, r3, #94208	; 0x17000
 8008542:	3380      	adds	r3, #128	; 0x80
 8008544:	4a37      	ldr	r2, [pc, #220]	; (8008624 <network_cnn_configure_weights+0x180>)
 8008546:	60d3      	str	r3, [r2, #12]
    conv2d_9_bias_array.format |= AI_FMT_FLAG_CONST;
 8008548:	4b37      	ldr	r3, [pc, #220]	; (8008628 <network_cnn_configure_weights+0x184>)
 800854a:	681b      	ldr	r3, [r3, #0]
 800854c:	f043 4380 	orr.w	r3, r3, #1073741824	; 0x40000000
 8008550:	4a35      	ldr	r2, [pc, #212]	; (8008628 <network_cnn_configure_weights+0x184>)
 8008552:	6013      	str	r3, [r2, #0]
    conv2d_9_bias_array.data = AI_PTR(weights + 94080);
 8008554:	68fb      	ldr	r3, [r7, #12]
 8008556:	f503 33b7 	add.w	r3, r3, #93696	; 0x16e00
 800855a:	f503 73c0 	add.w	r3, r3, #384	; 0x180
 800855e:	4a32      	ldr	r2, [pc, #200]	; (8008628 <network_cnn_configure_weights+0x184>)
 8008560:	6093      	str	r3, [r2, #8]
    conv2d_9_bias_array.data_start = AI_PTR(weights + 94080);
 8008562:	68fb      	ldr	r3, [r7, #12]
 8008564:	f503 33b7 	add.w	r3, r3, #93696	; 0x16e00
 8008568:	f503 73c0 	add.w	r3, r3, #384	; 0x180
 800856c:	4a2e      	ldr	r2, [pc, #184]	; (8008628 <network_cnn_configure_weights+0x184>)
 800856e:	60d3      	str	r3, [r2, #12]
    conv2d_9_weights_array.format |= AI_FMT_FLAG_CONST;
 8008570:	4b2e      	ldr	r3, [pc, #184]	; (800862c <network_cnn_configure_weights+0x188>)
 8008572:	681b      	ldr	r3, [r3, #0]
 8008574:	f043 4380 	orr.w	r3, r3, #1073741824	; 0x40000000
 8008578:	4a2c      	ldr	r2, [pc, #176]	; (800862c <network_cnn_configure_weights+0x188>)
 800857a:	6013      	str	r3, [r2, #0]
    conv2d_9_weights_array.data = AI_PTR(weights + 20352);
 800857c:	68fb      	ldr	r3, [r7, #12]
 800857e:	f503 439f 	add.w	r3, r3, #20352	; 0x4f80
 8008582:	4a2a      	ldr	r2, [pc, #168]	; (800862c <network_cnn_configure_weights+0x188>)
 8008584:	6093      	str	r3, [r2, #8]
    conv2d_9_weights_array.data_start = AI_PTR(weights + 20352);
 8008586:	68fb      	ldr	r3, [r7, #12]
 8008588:	f503 439f 	add.w	r3, r3, #20352	; 0x4f80
 800858c:	4a27      	ldr	r2, [pc, #156]	; (800862c <network_cnn_configure_weights+0x188>)
 800858e:	60d3      	str	r3, [r2, #12]
    conv2d_8_bias_array.format |= AI_FMT_FLAG_CONST;
 8008590:	4b27      	ldr	r3, [pc, #156]	; (8008630 <network_cnn_configure_weights+0x18c>)
 8008592:	681b      	ldr	r3, [r3, #0]
 8008594:	f043 4380 	orr.w	r3, r3, #1073741824	; 0x40000000
 8008598:	4a25      	ldr	r2, [pc, #148]	; (8008630 <network_cnn_configure_weights+0x18c>)
 800859a:	6013      	str	r3, [r2, #0]
    conv2d_8_bias_array.data = AI_PTR(weights + 20224);
 800859c:	68fb      	ldr	r3, [r7, #12]
 800859e:	f503 439e 	add.w	r3, r3, #20224	; 0x4f00
 80085a2:	4a23      	ldr	r2, [pc, #140]	; (8008630 <network_cnn_configure_weights+0x18c>)
 80085a4:	6093      	str	r3, [r2, #8]
    conv2d_8_bias_array.data_start = AI_PTR(weights + 20224);
 80085a6:	68fb      	ldr	r3, [r7, #12]
 80085a8:	f503 439e 	add.w	r3, r3, #20224	; 0x4f00
 80085ac:	4a20      	ldr	r2, [pc, #128]	; (8008630 <network_cnn_configure_weights+0x18c>)
 80085ae:	60d3      	str	r3, [r2, #12]
    conv2d_8_weights_array.format |= AI_FMT_FLAG_CONST;
 80085b0:	4b20      	ldr	r3, [pc, #128]	; (8008634 <network_cnn_configure_weights+0x190>)
 80085b2:	681b      	ldr	r3, [r3, #0]
 80085b4:	f043 4380 	orr.w	r3, r3, #1073741824	; 0x40000000
 80085b8:	4a1e      	ldr	r2, [pc, #120]	; (8008634 <network_cnn_configure_weights+0x190>)
 80085ba:	6013      	str	r3, [r2, #0]
    conv2d_8_weights_array.data = AI_PTR(weights + 1792);
 80085bc:	68fb      	ldr	r3, [r7, #12]
 80085be:	f503 63e0 	add.w	r3, r3, #1792	; 0x700
 80085c2:	4a1c      	ldr	r2, [pc, #112]	; (8008634 <network_cnn_configure_weights+0x190>)
 80085c4:	6093      	str	r3, [r2, #8]
    conv2d_8_weights_array.data_start = AI_PTR(weights + 1792);
 80085c6:	68fb      	ldr	r3, [r7, #12]
 80085c8:	f503 63e0 	add.w	r3, r3, #1792	; 0x700
 80085cc:	4a19      	ldr	r2, [pc, #100]	; (8008634 <network_cnn_configure_weights+0x190>)
 80085ce:	60d3      	str	r3, [r2, #12]
    conv2d_7_bias_array.format |= AI_FMT_FLAG_CONST;
 80085d0:	4b19      	ldr	r3, [pc, #100]	; (8008638 <network_cnn_configure_weights+0x194>)
 80085d2:	681b      	ldr	r3, [r3, #0]
 80085d4:	f043 4380 	orr.w	r3, r3, #1073741824	; 0x40000000
 80085d8:	4a17      	ldr	r2, [pc, #92]	; (8008638 <network_cnn_configure_weights+0x194>)
 80085da:	6013      	str	r3, [r2, #0]
    conv2d_7_bias_array.data = AI_PTR(weights + 1728);
 80085dc:	68fb      	ldr	r3, [r7, #12]
 80085de:	f503 63d8 	add.w	r3, r3, #1728	; 0x6c0
 80085e2:	4a15      	ldr	r2, [pc, #84]	; (8008638 <network_cnn_configure_weights+0x194>)
 80085e4:	6093      	str	r3, [r2, #8]
    conv2d_7_bias_array.data_start = AI_PTR(weights + 1728);
 80085e6:	68fb      	ldr	r3, [r7, #12]
 80085e8:	f503 63d8 	add.w	r3, r3, #1728	; 0x6c0
 80085ec:	4a12      	ldr	r2, [pc, #72]	; (8008638 <network_cnn_configure_weights+0x194>)
 80085ee:	60d3      	str	r3, [r2, #12]
    conv2d_7_weights_array.format |= AI_FMT_FLAG_CONST;
 80085f0:	4b12      	ldr	r3, [pc, #72]	; (800863c <network_cnn_configure_weights+0x198>)
 80085f2:	681b      	ldr	r3, [r3, #0]
 80085f4:	f043 4380 	orr.w	r3, r3, #1073741824	; 0x40000000
 80085f8:	4a10      	ldr	r2, [pc, #64]	; (800863c <network_cnn_configure_weights+0x198>)
 80085fa:	6013      	str	r3, [r2, #0]
    conv2d_7_weights_array.data = AI_PTR(weights + 0);
 80085fc:	4a0f      	ldr	r2, [pc, #60]	; (800863c <network_cnn_configure_weights+0x198>)
 80085fe:	68fb      	ldr	r3, [r7, #12]
 8008600:	6093      	str	r3, [r2, #8]
    conv2d_7_weights_array.data_start = AI_PTR(weights + 0);
 8008602:	4a0e      	ldr	r2, [pc, #56]	; (800863c <network_cnn_configure_weights+0x198>)
 8008604:	68fb      	ldr	r3, [r7, #12]
 8008606:	60d3      	str	r3, [r2, #12]
  }

  return true;
 8008608:	2301      	movs	r3, #1
}
 800860a:	4618      	mov	r0, r3
 800860c:	3714      	adds	r7, #20
 800860e:	46bd      	mov	sp, r7
 8008610:	f85d 7b04 	ldr.w	r7, [sp], #4
 8008614:	4770      	bx	lr
 8008616:	bf00      	nop
 8008618:	200000b8 	.word	0x200000b8
 800861c:	200000c8 	.word	0x200000c8
 8008620:	200000d8 	.word	0x200000d8
 8008624:	200000e8 	.word	0x200000e8
 8008628:	200000f8 	.word	0x200000f8
 800862c:	20000108 	.word	0x20000108
 8008630:	20000118 	.word	0x20000118
 8008634:	20000128 	.word	0x20000128
 8008638:	20000138 	.word	0x20000138
 800863c:	20000148 	.word	0x20000148

08008640 <ai_network_cnn_get_error>:
  return false;
}

AI_API_ENTRY
ai_error ai_network_cnn_get_error(ai_handle network)
{
 8008640:	b580      	push	{r7, lr}
 8008642:	b082      	sub	sp, #8
 8008644:	af00      	add	r7, sp, #0
 8008646:	6078      	str	r0, [r7, #4]
  return ai_platform_network_get_error(network);
 8008648:	6878      	ldr	r0, [r7, #4]
 800864a:	f7f7 febc 	bl	80003c6 <ai_platform_network_get_error>
 800864e:	4603      	mov	r3, r0
}
 8008650:	4618      	mov	r0, r3
 8008652:	3708      	adds	r7, #8
 8008654:	46bd      	mov	sp, r7
 8008656:	bd80      	pop	{r7, pc}

08008658 <ai_network_cnn_create>:

AI_API_ENTRY
ai_error ai_network_cnn_create(
  ai_handle* network, const ai_buffer* network_config)
{
 8008658:	b580      	push	{r7, lr}
 800865a:	b084      	sub	sp, #16
 800865c:	af02      	add	r7, sp, #8
 800865e:	6078      	str	r0, [r7, #4]
 8008660:	6039      	str	r1, [r7, #0]
  return ai_platform_network_create(
 8008662:	2300      	movs	r3, #0
 8008664:	9301      	str	r3, [sp, #4]
 8008666:	2303      	movs	r3, #3
 8008668:	9300      	str	r3, [sp, #0]
 800866a:	2301      	movs	r3, #1
 800866c:	4a04      	ldr	r2, [pc, #16]	; (8008680 <ai_network_cnn_create+0x28>)
 800866e:	6839      	ldr	r1, [r7, #0]
 8008670:	6878      	ldr	r0, [r7, #4]
 8008672:	f7f7 ff93 	bl	800059c <ai_platform_network_create>
 8008676:	4603      	mov	r3, r0
    network, network_config, 
    &AI_NET_OBJ_INSTANCE,
    AI_TOOLS_API_VERSION_MAJOR, AI_TOOLS_API_VERSION_MINOR, AI_TOOLS_API_VERSION_MICRO);
}
 8008678:	4618      	mov	r0, r3
 800867a:	3708      	adds	r7, #8
 800867c:	46bd      	mov	sp, r7
 800867e:	bd80      	pop	{r7, pc}
 8008680:	20000030 	.word	0x20000030

08008684 <ai_network_cnn_destroy>:

AI_API_ENTRY
ai_handle ai_network_cnn_destroy(ai_handle network)
{
 8008684:	b580      	push	{r7, lr}
 8008686:	b082      	sub	sp, #8
 8008688:	af00      	add	r7, sp, #0
 800868a:	6078      	str	r0, [r7, #4]
  return ai_platform_network_destroy(network);
 800868c:	6878      	ldr	r0, [r7, #4]
 800868e:	f7f7 ffca 	bl	8000626 <ai_platform_network_destroy>
 8008692:	4603      	mov	r3, r0
}
 8008694:	4618      	mov	r0, r3
 8008696:	3708      	adds	r7, #8
 8008698:	46bd      	mov	sp, r7
 800869a:	bd80      	pop	{r7, pc}

0800869c <ai_network_cnn_init>:

AI_API_ENTRY
ai_bool ai_network_cnn_init(
  ai_handle network, const ai_network_params* params)
{
 800869c:	b580      	push	{r7, lr}
 800869e:	b084      	sub	sp, #16
 80086a0:	af00      	add	r7, sp, #0
 80086a2:	6078      	str	r0, [r7, #4]
 80086a4:	6039      	str	r1, [r7, #0]
  ai_network* net_ctx = ai_platform_network_init(network, params);
 80086a6:	6839      	ldr	r1, [r7, #0]
 80086a8:	6878      	ldr	r0, [r7, #4]
 80086aa:	f7f7 ffdf 	bl	800066c <ai_platform_network_init>
 80086ae:	60f8      	str	r0, [r7, #12]
  if ( !net_ctx ) return false;
 80086b0:	68fb      	ldr	r3, [r7, #12]
 80086b2:	2b00      	cmp	r3, #0
 80086b4:	d101      	bne.n	80086ba <ai_network_cnn_init+0x1e>
 80086b6:	2300      	movs	r3, #0
 80086b8:	e01f      	b.n	80086fa <ai_network_cnn_init+0x5e>

  ai_bool ok = true;
 80086ba:	2301      	movs	r3, #1
 80086bc:	72fb      	strb	r3, [r7, #11]
  ok &= network_cnn_configure_weights(net_ctx, &params->params);
 80086be:	683b      	ldr	r3, [r7, #0]
 80086c0:	4619      	mov	r1, r3
 80086c2:	68f8      	ldr	r0, [r7, #12]
 80086c4:	f7ff feee 	bl	80084a4 <network_cnn_configure_weights>
 80086c8:	4603      	mov	r3, r0
 80086ca:	461a      	mov	r2, r3
 80086cc:	7afb      	ldrb	r3, [r7, #11]
 80086ce:	4013      	ands	r3, r2
 80086d0:	2b00      	cmp	r3, #0
 80086d2:	bf14      	ite	ne
 80086d4:	2301      	movne	r3, #1
 80086d6:	2300      	moveq	r3, #0
 80086d8:	72fb      	strb	r3, [r7, #11]
  ok &= network_cnn_configure_activations(net_ctx, &params->activations);
 80086da:	683b      	ldr	r3, [r7, #0]
 80086dc:	3318      	adds	r3, #24
 80086de:	4619      	mov	r1, r3
 80086e0:	68f8      	ldr	r0, [r7, #12]
 80086e2:	f7ff fe53 	bl	800838c <network_cnn_configure_activations>
 80086e6:	4603      	mov	r3, r0
 80086e8:	461a      	mov	r2, r3
 80086ea:	7afb      	ldrb	r3, [r7, #11]
 80086ec:	4013      	ands	r3, r2
 80086ee:	2b00      	cmp	r3, #0
 80086f0:	bf14      	ite	ne
 80086f2:	2301      	movne	r3, #1
 80086f4:	2300      	moveq	r3, #0
 80086f6:	72fb      	strb	r3, [r7, #11]

  return ok;
 80086f8:	7afb      	ldrb	r3, [r7, #11]
}
 80086fa:	4618      	mov	r0, r3
 80086fc:	3710      	adds	r7, #16
 80086fe:	46bd      	mov	sp, r7
 8008700:	bd80      	pop	{r7, pc}

08008702 <ai_network_cnn_run>:


AI_API_ENTRY
ai_i32 ai_network_cnn_run(
  ai_handle network, const ai_buffer* input, ai_buffer* output)
{
 8008702:	b580      	push	{r7, lr}
 8008704:	b084      	sub	sp, #16
 8008706:	af00      	add	r7, sp, #0
 8008708:	60f8      	str	r0, [r7, #12]
 800870a:	60b9      	str	r1, [r7, #8]
 800870c:	607a      	str	r2, [r7, #4]
  return ai_platform_network_process(network, input, output);
 800870e:	687a      	ldr	r2, [r7, #4]
 8008710:	68b9      	ldr	r1, [r7, #8]
 8008712:	68f8      	ldr	r0, [r7, #12]
 8008714:	f7f8 f806 	bl	8000724 <ai_platform_network_process>
 8008718:	4603      	mov	r3, r0
}
 800871a:	4618      	mov	r0, r3
 800871c:	3710      	adds	r7, #16
 800871e:	46bd      	mov	sp, r7
 8008720:	bd80      	pop	{r7, pc}
	...

08008724 <ai_network_cnn_data_weights_get>:
#include "network_cnn_data.h"

ai_handle ai_network_cnn_data_weights_get(void)
{
 8008724:	b480      	push	{r7}
 8008726:	af00      	add	r7, sp, #0
    0xcb, 0x71, 0x3d, 0xfe, 0x96, 0xed, 0xbd, 0x18, 0xf4,
    0xee, 0xbd, 0x82, 0x0c, 0x38, 0x3d, 0xa6, 0x1e, 0x39,
    0x3d, 0x6f, 0x38, 0x81, 0xbd, 0x60, 0xa1, 0xd0, 0x3c
  };

  return AI_HANDLE_PTR(s_network_cnn_weights);
 8008728:	4b02      	ldr	r3, [pc, #8]	; (8008734 <ai_network_cnn_data_weights_get+0x10>)

}
 800872a:	4618      	mov	r0, r3
 800872c:	46bd      	mov	sp, r7
 800872e:	f85d 7b04 	ldr.w	r7, [sp], #4
 8008732:	4770      	bx	lr
 8008734:	0800bf54 	.word	0x0800bf54

08008738 <EXTI9_5_IRQHandler>:
//
//=====================================================================
#include "../08_NosPrg/includes.h"

void EXTI9_5_IRQHandler(void)
{
 8008738:	b480      	push	{r7}
 800873a:	af00      	add	r7, sp, #0
  \details Disables IRQ interrupts by setting the I-bit in the CPSR.
           Can only be executed in Privileged modes.
 */
__STATIC_FORCEINLINE void __disable_irq(void)
{
  __ASM volatile ("cpsid i" : : : "memory");
 800873c:	b672      	cpsid	i
  __ASM volatile ("cpsie i" : : : "memory");
 800873e:	b662      	cpsie	i
	

	       
   //------------------------------------------------------------------
	ENABLE_INTERRUPTS;    
}
 8008740:	bf00      	nop
 8008742:	46bd      	mov	sp, r7
 8008744:	f85d 7b04 	ldr.w	r7, [sp], #4
 8008748:	4770      	bx	lr
	...

0800874c <WWDG_IRQHandler>:




void WWDG_IRQHandler(void)
{
 800874c:	b580      	push	{r7, lr}
 800874e:	af00      	add	r7, sp, #0
	WWDG->SR=0X00;    //
 8008750:	4b03      	ldr	r3, [pc, #12]	; (8008760 <WWDG_IRQHandler+0x14>)
 8008752:	2200      	movs	r2, #0
 8008754:	609a      	str	r2, [r3, #8]
	printf("");
 8008756:	4803      	ldr	r0, [pc, #12]	; (8008764 <WWDG_IRQHandler+0x18>)
 8008758:	f7ff fc74 	bl	8008044 <myprintf>
}
 800875c:	bf00      	nop
 800875e:	bd80      	pop	{r7, pc}
 8008760:	40002c00 	.word	0x40002c00
 8008764:	0800be64 	.word	0x0800be64

08008768 <main>:
  

//----------------------------------------------------------------------
//
int main(void)
{
 8008768:	b580      	push	{r7, lr}
 800876a:	af00      	add	r7, sp, #0
  __ASM volatile ("cpsid i" : : : "memory");
 800876c:	b672      	cpsid	i


//1.4

//1.5
   	MX_X_CUBE_AI_Init();	//
 800876e:	f7ff fd41 	bl	80081f4 <MX_X_CUBE_AI_Init>
	Delay_ms(200);
 8008772:	20c8      	movs	r0, #200	; 0xc8
 8008774:	f7ff fc84 	bl	8008080 <Delay_ms>
  __ASM volatile ("cpsie i" : : : "memory");
 8008778:	b662      	cpsie	i
//2==============================================
	for(;;)
	{
		
	//(2.1)
		MX_X_CUBE_AI_Process();
 800877a:	f7ff fd45 	bl	8008208 <MX_X_CUBE_AI_Process>
 800877e:	e7fc      	b.n	800877a <main+0x12>

08008780 <__aeabi_memclr>:
 8008780:	2200      	movs	r2, #0
 8008782:	f7fd bd39 	b.w	80061f8 <__aeabi_memset>

08008786 <__aeabi_memcpy>:
 8008786:	f000 b834 	b.w	80087f2 <memcpy>
	...

0800878c <__libc_init_array>:
 800878c:	b570      	push	{r4, r5, r6, lr}
 800878e:	4e0d      	ldr	r6, [pc, #52]	; (80087c4 <__libc_init_array+0x38>)
 8008790:	4c0d      	ldr	r4, [pc, #52]	; (80087c8 <__libc_init_array+0x3c>)
 8008792:	1ba4      	subs	r4, r4, r6
 8008794:	10a4      	asrs	r4, r4, #2
 8008796:	2500      	movs	r5, #0
 8008798:	42a5      	cmp	r5, r4
 800879a:	d109      	bne.n	80087b0 <__libc_init_array+0x24>
 800879c:	4e0b      	ldr	r6, [pc, #44]	; (80087cc <__libc_init_array+0x40>)
 800879e:	4c0c      	ldr	r4, [pc, #48]	; (80087d0 <__libc_init_array+0x44>)
 80087a0:	f003 fb54 	bl	800be4c <_init>
 80087a4:	1ba4      	subs	r4, r4, r6
 80087a6:	10a4      	asrs	r4, r4, #2
 80087a8:	2500      	movs	r5, #0
 80087aa:	42a5      	cmp	r5, r4
 80087ac:	d105      	bne.n	80087ba <__libc_init_array+0x2e>
 80087ae:	bd70      	pop	{r4, r5, r6, pc}
 80087b0:	f856 3025 	ldr.w	r3, [r6, r5, lsl #2]
 80087b4:	4798      	blx	r3
 80087b6:	3501      	adds	r5, #1
 80087b8:	e7ee      	b.n	8008798 <__libc_init_array+0xc>
 80087ba:	f856 3025 	ldr.w	r3, [r6, r5, lsl #2]
 80087be:	4798      	blx	r3
 80087c0:	3501      	adds	r5, #1
 80087c2:	e7f2      	b.n	80087aa <__libc_init_array+0x1e>
 80087c4:	08033c90 	.word	0x08033c90
 80087c8:	08033c90 	.word	0x08033c90
 80087cc:	08033c90 	.word	0x08033c90
 80087d0:	08033c94 	.word	0x08033c94

080087d4 <memcmp>:
 80087d4:	b530      	push	{r4, r5, lr}
 80087d6:	2400      	movs	r4, #0
 80087d8:	42a2      	cmp	r2, r4
 80087da:	d101      	bne.n	80087e0 <memcmp+0xc>
 80087dc:	2000      	movs	r0, #0
 80087de:	e007      	b.n	80087f0 <memcmp+0x1c>
 80087e0:	5d03      	ldrb	r3, [r0, r4]
 80087e2:	3401      	adds	r4, #1
 80087e4:	190d      	adds	r5, r1, r4
 80087e6:	f815 5c01 	ldrb.w	r5, [r5, #-1]
 80087ea:	42ab      	cmp	r3, r5
 80087ec:	d0f4      	beq.n	80087d8 <memcmp+0x4>
 80087ee:	1b58      	subs	r0, r3, r5
 80087f0:	bd30      	pop	{r4, r5, pc}

080087f2 <memcpy>:
 80087f2:	b510      	push	{r4, lr}
 80087f4:	1e43      	subs	r3, r0, #1
 80087f6:	440a      	add	r2, r1
 80087f8:	4291      	cmp	r1, r2
 80087fa:	d100      	bne.n	80087fe <memcpy+0xc>
 80087fc:	bd10      	pop	{r4, pc}
 80087fe:	f811 4b01 	ldrb.w	r4, [r1], #1
 8008802:	f803 4f01 	strb.w	r4, [r3, #1]!
 8008806:	e7f7      	b.n	80087f8 <memcpy+0x6>

08008808 <memset>:
 8008808:	4402      	add	r2, r0
 800880a:	4603      	mov	r3, r0
 800880c:	4293      	cmp	r3, r2
 800880e:	d100      	bne.n	8008812 <memset+0xa>
 8008810:	4770      	bx	lr
 8008812:	f803 1b01 	strb.w	r1, [r3], #1
 8008816:	e7f9      	b.n	800880c <memset+0x4>

08008818 <rand>:
 8008818:	b538      	push	{r3, r4, r5, lr}
 800881a:	4b13      	ldr	r3, [pc, #76]	; (8008868 <rand+0x50>)
 800881c:	681c      	ldr	r4, [r3, #0]
 800881e:	6ba3      	ldr	r3, [r4, #56]	; 0x38
 8008820:	b97b      	cbnz	r3, 8008842 <rand+0x2a>
 8008822:	2018      	movs	r0, #24
 8008824:	f000 f82c 	bl	8008880 <malloc>
 8008828:	4a10      	ldr	r2, [pc, #64]	; (800886c <rand+0x54>)
 800882a:	4b11      	ldr	r3, [pc, #68]	; (8008870 <rand+0x58>)
 800882c:	63a0      	str	r0, [r4, #56]	; 0x38
 800882e:	e9c0 2300 	strd	r2, r3, [r0]
 8008832:	4b10      	ldr	r3, [pc, #64]	; (8008874 <rand+0x5c>)
 8008834:	6083      	str	r3, [r0, #8]
 8008836:	230b      	movs	r3, #11
 8008838:	8183      	strh	r3, [r0, #12]
 800883a:	2201      	movs	r2, #1
 800883c:	2300      	movs	r3, #0
 800883e:	e9c0 2304 	strd	r2, r3, [r0, #16]
 8008842:	6ba1      	ldr	r1, [r4, #56]	; 0x38
 8008844:	480c      	ldr	r0, [pc, #48]	; (8008878 <rand+0x60>)
 8008846:	690a      	ldr	r2, [r1, #16]
 8008848:	694b      	ldr	r3, [r1, #20]
 800884a:	4c0c      	ldr	r4, [pc, #48]	; (800887c <rand+0x64>)
 800884c:	4350      	muls	r0, r2
 800884e:	fb04 0003 	mla	r0, r4, r3, r0
 8008852:	fba2 2304 	umull	r2, r3, r2, r4
 8008856:	4403      	add	r3, r0
 8008858:	1c54      	adds	r4, r2, #1
 800885a:	f143 0500 	adc.w	r5, r3, #0
 800885e:	e9c1 4504 	strd	r4, r5, [r1, #16]
 8008862:	f025 4000 	bic.w	r0, r5, #2147483648	; 0x80000000
 8008866:	bd38      	pop	{r3, r4, r5, pc}
 8008868:	20000aa0 	.word	0x20000aa0
 800886c:	abcd330e 	.word	0xabcd330e
 8008870:	e66d1234 	.word	0xe66d1234
 8008874:	0005deec 	.word	0x0005deec
 8008878:	5851f42d 	.word	0x5851f42d
 800887c:	4c957f2d 	.word	0x4c957f2d

08008880 <malloc>:
 8008880:	4b02      	ldr	r3, [pc, #8]	; (800888c <malloc+0xc>)
 8008882:	4601      	mov	r1, r0
 8008884:	6818      	ldr	r0, [r3, #0]
 8008886:	f000 b803 	b.w	8008890 <_malloc_r>
 800888a:	bf00      	nop
 800888c:	20000aa0 	.word	0x20000aa0

08008890 <_malloc_r>:
 8008890:	b570      	push	{r4, r5, r6, lr}
 8008892:	1ccd      	adds	r5, r1, #3
 8008894:	f025 0503 	bic.w	r5, r5, #3
 8008898:	3508      	adds	r5, #8
 800889a:	2d0c      	cmp	r5, #12
 800889c:	bf38      	it	cc
 800889e:	250c      	movcc	r5, #12
 80088a0:	2d00      	cmp	r5, #0
 80088a2:	4606      	mov	r6, r0
 80088a4:	db01      	blt.n	80088aa <_malloc_r+0x1a>
 80088a6:	42a9      	cmp	r1, r5
 80088a8:	d903      	bls.n	80088b2 <_malloc_r+0x22>
 80088aa:	230c      	movs	r3, #12
 80088ac:	6033      	str	r3, [r6, #0]
 80088ae:	2000      	movs	r0, #0
 80088b0:	bd70      	pop	{r4, r5, r6, pc}
 80088b2:	f000 f857 	bl	8008964 <__malloc_lock>
 80088b6:	4a21      	ldr	r2, [pc, #132]	; (800893c <_malloc_r+0xac>)
 80088b8:	6814      	ldr	r4, [r2, #0]
 80088ba:	4621      	mov	r1, r4
 80088bc:	b991      	cbnz	r1, 80088e4 <_malloc_r+0x54>
 80088be:	4c20      	ldr	r4, [pc, #128]	; (8008940 <_malloc_r+0xb0>)
 80088c0:	6823      	ldr	r3, [r4, #0]
 80088c2:	b91b      	cbnz	r3, 80088cc <_malloc_r+0x3c>
 80088c4:	4630      	mov	r0, r6
 80088c6:	f000 f83d 	bl	8008944 <_sbrk_r>
 80088ca:	6020      	str	r0, [r4, #0]
 80088cc:	4629      	mov	r1, r5
 80088ce:	4630      	mov	r0, r6
 80088d0:	f000 f838 	bl	8008944 <_sbrk_r>
 80088d4:	1c43      	adds	r3, r0, #1
 80088d6:	d124      	bne.n	8008922 <_malloc_r+0x92>
 80088d8:	230c      	movs	r3, #12
 80088da:	6033      	str	r3, [r6, #0]
 80088dc:	4630      	mov	r0, r6
 80088de:	f000 f842 	bl	8008966 <__malloc_unlock>
 80088e2:	e7e4      	b.n	80088ae <_malloc_r+0x1e>
 80088e4:	680b      	ldr	r3, [r1, #0]
 80088e6:	1b5b      	subs	r3, r3, r5
 80088e8:	d418      	bmi.n	800891c <_malloc_r+0x8c>
 80088ea:	2b0b      	cmp	r3, #11
 80088ec:	d90f      	bls.n	800890e <_malloc_r+0x7e>
 80088ee:	600b      	str	r3, [r1, #0]
 80088f0:	50cd      	str	r5, [r1, r3]
 80088f2:	18cc      	adds	r4, r1, r3
 80088f4:	4630      	mov	r0, r6
 80088f6:	f000 f836 	bl	8008966 <__malloc_unlock>
 80088fa:	f104 000b 	add.w	r0, r4, #11
 80088fe:	1d23      	adds	r3, r4, #4
 8008900:	f020 0007 	bic.w	r0, r0, #7
 8008904:	1ac3      	subs	r3, r0, r3
 8008906:	d0d3      	beq.n	80088b0 <_malloc_r+0x20>
 8008908:	425a      	negs	r2, r3
 800890a:	50e2      	str	r2, [r4, r3]
 800890c:	e7d0      	b.n	80088b0 <_malloc_r+0x20>
 800890e:	428c      	cmp	r4, r1
 8008910:	684b      	ldr	r3, [r1, #4]
 8008912:	bf16      	itet	ne
 8008914:	6063      	strne	r3, [r4, #4]
 8008916:	6013      	streq	r3, [r2, #0]
 8008918:	460c      	movne	r4, r1
 800891a:	e7eb      	b.n	80088f4 <_malloc_r+0x64>
 800891c:	460c      	mov	r4, r1
 800891e:	6849      	ldr	r1, [r1, #4]
 8008920:	e7cc      	b.n	80088bc <_malloc_r+0x2c>
 8008922:	1cc4      	adds	r4, r0, #3
 8008924:	f024 0403 	bic.w	r4, r4, #3
 8008928:	42a0      	cmp	r0, r4
 800892a:	d005      	beq.n	8008938 <_malloc_r+0xa8>
 800892c:	1a21      	subs	r1, r4, r0
 800892e:	4630      	mov	r0, r6
 8008930:	f000 f808 	bl	8008944 <_sbrk_r>
 8008934:	3001      	adds	r0, #1
 8008936:	d0cf      	beq.n	80088d8 <_malloc_r+0x48>
 8008938:	6025      	str	r5, [r4, #0]
 800893a:	e7db      	b.n	80088f4 <_malloc_r+0x64>
 800893c:	200094dc 	.word	0x200094dc
 8008940:	200094e0 	.word	0x200094e0

08008944 <_sbrk_r>:
 8008944:	b538      	push	{r3, r4, r5, lr}
 8008946:	4c06      	ldr	r4, [pc, #24]	; (8008960 <_sbrk_r+0x1c>)
 8008948:	2300      	movs	r3, #0
 800894a:	4605      	mov	r5, r0
 800894c:	4608      	mov	r0, r1
 800894e:	6023      	str	r3, [r4, #0]
 8008950:	f003 fa6e 	bl	800be30 <_sbrk>
 8008954:	1c43      	adds	r3, r0, #1
 8008956:	d102      	bne.n	800895e <_sbrk_r+0x1a>
 8008958:	6823      	ldr	r3, [r4, #0]
 800895a:	b103      	cbz	r3, 800895e <_sbrk_r+0x1a>
 800895c:	602b      	str	r3, [r5, #0]
 800895e:	bd38      	pop	{r3, r4, r5, pc}
 8008960:	200094ec 	.word	0x200094ec

08008964 <__malloc_lock>:
 8008964:	4770      	bx	lr

08008966 <__malloc_unlock>:
 8008966:	4770      	bx	lr

08008968 <asinhf>:
 8008968:	b510      	push	{r4, lr}
 800896a:	ee10 4a10 	vmov	r4, s0
 800896e:	f024 4300 	bic.w	r3, r4, #2147483648	; 0x80000000
 8008972:	f1b3 4fff 	cmp.w	r3, #2139095040	; 0x7f800000
 8008976:	ed2d 8b04 	vpush	{d8-d9}
 800897a:	eeb0 8a40 	vmov.f32	s16, s0
 800897e:	db06      	blt.n	800898e <asinhf+0x26>
 8008980:	ee30 8a00 	vadd.f32	s16, s0, s0
 8008984:	eeb0 0a48 	vmov.f32	s0, s16
 8008988:	ecbd 8b04 	vpop	{d8-d9}
 800898c:	bd10      	pop	{r4, pc}
 800898e:	f1b3 5f46 	cmp.w	r3, #830472192	; 0x31800000
 8008992:	da21      	bge.n	80089d8 <asinhf+0x70>
 8008994:	eddf 7a26 	vldr	s15, [pc, #152]	; 8008a30 <asinhf+0xc8>
 8008998:	ee70 7a27 	vadd.f32	s15, s0, s15
 800899c:	eeb7 7a00 	vmov.f32	s14, #112	; 0x3f800000  1.0
 80089a0:	eef4 7ac7 	vcmpe.f32	s15, s14
 80089a4:	eef1 fa10 	vmrs	APSR_nzcv, fpscr
 80089a8:	dcec      	bgt.n	8008984 <asinhf+0x1c>
 80089aa:	eeb0 0a48 	vmov.f32	s0, s16
 80089ae:	f000 fb77 	bl	80090a0 <fabsf>
 80089b2:	ee68 8a08 	vmul.f32	s17, s16, s16
 80089b6:	eeb7 8a00 	vmov.f32	s16, #112	; 0x3f800000  1.0
 80089ba:	eeb0 9a40 	vmov.f32	s18, s0
 80089be:	ee38 0a88 	vadd.f32	s0, s17, s16
 80089c2:	f002 fc11 	bl	800b1e8 <__ieee754_sqrtf>
 80089c6:	ee30 8a08 	vadd.f32	s16, s0, s16
 80089ca:	ee88 0a88 	vdiv.f32	s0, s17, s16
 80089ce:	ee30 0a09 	vadd.f32	s0, s0, s18
 80089d2:	f000 fbaf 	bl	8009134 <log1pf>
 80089d6:	e028      	b.n	8008a2a <asinhf+0xc2>
 80089d8:	f1b3 4f9b 	cmp.w	r3, #1300234240	; 0x4d800000
 80089dc:	dd0c      	ble.n	80089f8 <asinhf+0x90>
 80089de:	f000 fb5f 	bl	80090a0 <fabsf>
 80089e2:	f001 feb9 	bl	800a758 <__ieee754_logf>
 80089e6:	ed9f 8a13 	vldr	s16, [pc, #76]	; 8008a34 <asinhf+0xcc>
 80089ea:	ee30 8a08 	vadd.f32	s16, s0, s16
 80089ee:	2c00      	cmp	r4, #0
 80089f0:	bfd8      	it	le
 80089f2:	eeb1 8a48 	vnegle.f32	s16, s16
 80089f6:	e7c5      	b.n	8008984 <asinhf+0x1c>
 80089f8:	f1b3 4f80 	cmp.w	r3, #1073741824	; 0x40000000
 80089fc:	ddd5      	ble.n	80089aa <asinhf+0x42>
 80089fe:	f000 fb4f 	bl	80090a0 <fabsf>
 8008a02:	eeb7 9a00 	vmov.f32	s18, #112	; 0x3f800000  1.0
 8008a06:	eef0 8a40 	vmov.f32	s17, s0
 8008a0a:	eeb0 0a49 	vmov.f32	s0, s18
 8008a0e:	eea8 0a08 	vfma.f32	s0, s16, s16
 8008a12:	f002 fbe9 	bl	800b1e8 <__ieee754_sqrtf>
 8008a16:	ee70 7a28 	vadd.f32	s15, s0, s17
 8008a1a:	ee89 0a27 	vdiv.f32	s0, s18, s15
 8008a1e:	eef0 7a00 	vmov.f32	s15, #0	; 0x40000000  2.0
 8008a22:	eea8 0aa7 	vfma.f32	s0, s17, s15
 8008a26:	f001 fe97 	bl	800a758 <__ieee754_logf>
 8008a2a:	eeb0 8a40 	vmov.f32	s16, s0
 8008a2e:	e7de      	b.n	80089ee <asinhf+0x86>
 8008a30:	7149f2ca 	.word	0x7149f2ca
 8008a34:	3f317218 	.word	0x3f317218

08008a38 <atanf>:
 8008a38:	b538      	push	{r3, r4, r5, lr}
 8008a3a:	ee10 5a10 	vmov	r5, s0
 8008a3e:	f025 4400 	bic.w	r4, r5, #2147483648	; 0x80000000
 8008a42:	f1b4 4fa1 	cmp.w	r4, #1350565888	; 0x50800000
 8008a46:	eef0 7a40 	vmov.f32	s15, s0
 8008a4a:	db10      	blt.n	8008a6e <atanf+0x36>
 8008a4c:	f1b4 4fff 	cmp.w	r4, #2139095040	; 0x7f800000
 8008a50:	dd04      	ble.n	8008a5c <atanf+0x24>
 8008a52:	ee70 7a00 	vadd.f32	s15, s0, s0
 8008a56:	eeb0 0a67 	vmov.f32	s0, s15
 8008a5a:	bd38      	pop	{r3, r4, r5, pc}
 8008a5c:	ed9f 7a4d 	vldr	s14, [pc, #308]	; 8008b94 <atanf+0x15c>
 8008a60:	eddf 7a4d 	vldr	s15, [pc, #308]	; 8008b98 <atanf+0x160>
 8008a64:	2d00      	cmp	r5, #0
 8008a66:	bfd8      	it	le
 8008a68:	eef0 7a47 	vmovle.f32	s15, s14
 8008a6c:	e7f3      	b.n	8008a56 <atanf+0x1e>
 8008a6e:	4b4b      	ldr	r3, [pc, #300]	; (8008b9c <atanf+0x164>)
 8008a70:	429c      	cmp	r4, r3
 8008a72:	dc10      	bgt.n	8008a96 <atanf+0x5e>
 8008a74:	f1b4 5f44 	cmp.w	r4, #822083584	; 0x31000000
 8008a78:	da0a      	bge.n	8008a90 <atanf+0x58>
 8008a7a:	ed9f 7a49 	vldr	s14, [pc, #292]	; 8008ba0 <atanf+0x168>
 8008a7e:	ee30 7a07 	vadd.f32	s14, s0, s14
 8008a82:	eef7 6a00 	vmov.f32	s13, #112	; 0x3f800000  1.0
 8008a86:	eeb4 7ae6 	vcmpe.f32	s14, s13
 8008a8a:	eef1 fa10 	vmrs	APSR_nzcv, fpscr
 8008a8e:	dce2      	bgt.n	8008a56 <atanf+0x1e>
 8008a90:	f04f 33ff 	mov.w	r3, #4294967295
 8008a94:	e013      	b.n	8008abe <atanf+0x86>
 8008a96:	f000 fb03 	bl	80090a0 <fabsf>
 8008a9a:	4b42      	ldr	r3, [pc, #264]	; (8008ba4 <atanf+0x16c>)
 8008a9c:	429c      	cmp	r4, r3
 8008a9e:	dc4f      	bgt.n	8008b40 <atanf+0x108>
 8008aa0:	f5a3 03d0 	sub.w	r3, r3, #6815744	; 0x680000
 8008aa4:	429c      	cmp	r4, r3
 8008aa6:	dc41      	bgt.n	8008b2c <atanf+0xf4>
 8008aa8:	eef0 7a00 	vmov.f32	s15, #0	; 0x40000000  2.0
 8008aac:	eebf 7a00 	vmov.f32	s14, #240	; 0xbf800000 -1.0
 8008ab0:	eea0 7a27 	vfma.f32	s14, s0, s15
 8008ab4:	2300      	movs	r3, #0
 8008ab6:	ee30 0a27 	vadd.f32	s0, s0, s15
 8008aba:	eec7 7a00 	vdiv.f32	s15, s14, s0
 8008abe:	1c5a      	adds	r2, r3, #1
 8008ac0:	ee27 6aa7 	vmul.f32	s12, s15, s15
 8008ac4:	ed9f 7a38 	vldr	s14, [pc, #224]	; 8008ba8 <atanf+0x170>
 8008ac8:	eddf 5a38 	vldr	s11, [pc, #224]	; 8008bac <atanf+0x174>
 8008acc:	ed9f 5a38 	vldr	s10, [pc, #224]	; 8008bb0 <atanf+0x178>
 8008ad0:	ee66 6a06 	vmul.f32	s13, s12, s12
 8008ad4:	eee6 5a87 	vfma.f32	s11, s13, s14
 8008ad8:	ed9f 7a36 	vldr	s14, [pc, #216]	; 8008bb4 <atanf+0x17c>
 8008adc:	eea5 7aa6 	vfma.f32	s14, s11, s13
 8008ae0:	eddf 5a35 	vldr	s11, [pc, #212]	; 8008bb8 <atanf+0x180>
 8008ae4:	eee7 5a26 	vfma.f32	s11, s14, s13
 8008ae8:	ed9f 7a34 	vldr	s14, [pc, #208]	; 8008bbc <atanf+0x184>
 8008aec:	eea5 7aa6 	vfma.f32	s14, s11, s13
 8008af0:	eddf 5a33 	vldr	s11, [pc, #204]	; 8008bc0 <atanf+0x188>
 8008af4:	eee7 5a26 	vfma.f32	s11, s14, s13
 8008af8:	ed9f 7a32 	vldr	s14, [pc, #200]	; 8008bc4 <atanf+0x18c>
 8008afc:	eea6 5a87 	vfma.f32	s10, s13, s14
 8008b00:	ed9f 7a31 	vldr	s14, [pc, #196]	; 8008bc8 <atanf+0x190>
 8008b04:	eea5 7a26 	vfma.f32	s14, s10, s13
 8008b08:	ed9f 5a30 	vldr	s10, [pc, #192]	; 8008bcc <atanf+0x194>
 8008b0c:	eea7 5a26 	vfma.f32	s10, s14, s13
 8008b10:	ed9f 7a2f 	vldr	s14, [pc, #188]	; 8008bd0 <atanf+0x198>
 8008b14:	eea5 7a26 	vfma.f32	s14, s10, s13
 8008b18:	ee27 7a26 	vmul.f32	s14, s14, s13
 8008b1c:	eea5 7a86 	vfma.f32	s14, s11, s12
 8008b20:	ee27 7a27 	vmul.f32	s14, s14, s15
 8008b24:	d121      	bne.n	8008b6a <atanf+0x132>
 8008b26:	ee77 7ac7 	vsub.f32	s15, s15, s14
 8008b2a:	e794      	b.n	8008a56 <atanf+0x1e>
 8008b2c:	eef7 7a00 	vmov.f32	s15, #112	; 0x3f800000  1.0
 8008b30:	ee30 7a67 	vsub.f32	s14, s0, s15
 8008b34:	ee30 0a27 	vadd.f32	s0, s0, s15
 8008b38:	2301      	movs	r3, #1
 8008b3a:	eec7 7a00 	vdiv.f32	s15, s14, s0
 8008b3e:	e7be      	b.n	8008abe <atanf+0x86>
 8008b40:	4b24      	ldr	r3, [pc, #144]	; (8008bd4 <atanf+0x19c>)
 8008b42:	429c      	cmp	r4, r3
 8008b44:	dc0b      	bgt.n	8008b5e <atanf+0x126>
 8008b46:	eef7 7a08 	vmov.f32	s15, #120	; 0x3fc00000  1.5
 8008b4a:	eeb7 7a00 	vmov.f32	s14, #112	; 0x3f800000  1.0
 8008b4e:	eea0 7a27 	vfma.f32	s14, s0, s15
 8008b52:	2302      	movs	r3, #2
 8008b54:	ee70 6a67 	vsub.f32	s13, s0, s15
 8008b58:	eec6 7a87 	vdiv.f32	s15, s13, s14
 8008b5c:	e7af      	b.n	8008abe <atanf+0x86>
 8008b5e:	eebf 7a00 	vmov.f32	s14, #240	; 0xbf800000 -1.0
 8008b62:	eec7 7a00 	vdiv.f32	s15, s14, s0
 8008b66:	2303      	movs	r3, #3
 8008b68:	e7a9      	b.n	8008abe <atanf+0x86>
 8008b6a:	4a1b      	ldr	r2, [pc, #108]	; (8008bd8 <atanf+0x1a0>)
 8008b6c:	491b      	ldr	r1, [pc, #108]	; (8008bdc <atanf+0x1a4>)
 8008b6e:	009b      	lsls	r3, r3, #2
 8008b70:	441a      	add	r2, r3
 8008b72:	440b      	add	r3, r1
 8008b74:	edd3 6a00 	vldr	s13, [r3]
 8008b78:	ee37 7a66 	vsub.f32	s14, s14, s13
 8008b7c:	2d00      	cmp	r5, #0
 8008b7e:	ee77 7a67 	vsub.f32	s15, s14, s15
 8008b82:	ed92 7a00 	vldr	s14, [r2]
 8008b86:	ee77 7a67 	vsub.f32	s15, s14, s15
 8008b8a:	bfb8      	it	lt
 8008b8c:	eef1 7a67 	vneglt.f32	s15, s15
 8008b90:	e761      	b.n	8008a56 <atanf+0x1e>
 8008b92:	bf00      	nop
 8008b94:	bfc90fdb 	.word	0xbfc90fdb
 8008b98:	3fc90fdb 	.word	0x3fc90fdb
 8008b9c:	3edfffff 	.word	0x3edfffff
 8008ba0:	7149f2ca 	.word	0x7149f2ca
 8008ba4:	3f97ffff 	.word	0x3f97ffff
 8008ba8:	3c8569d7 	.word	0x3c8569d7
 8008bac:	3d4bda59 	.word	0x3d4bda59
 8008bb0:	bd6ef16b 	.word	0xbd6ef16b
 8008bb4:	3d886b35 	.word	0x3d886b35
 8008bb8:	3dba2e6e 	.word	0x3dba2e6e
 8008bbc:	3e124925 	.word	0x3e124925
 8008bc0:	3eaaaaab 	.word	0x3eaaaaab
 8008bc4:	bd15a221 	.word	0xbd15a221
 8008bc8:	bd9d8795 	.word	0xbd9d8795
 8008bcc:	bde38e38 	.word	0xbde38e38
 8008bd0:	be4ccccd 	.word	0xbe4ccccd
 8008bd4:	401bffff 	.word	0x401bffff
 8008bd8:	08033820 	.word	0x08033820
 8008bdc:	08033830 	.word	0x08033830

08008be0 <ceilf>:
 8008be0:	ee10 3a10 	vmov	r3, s0
 8008be4:	f023 4100 	bic.w	r1, r3, #2147483648	; 0x80000000
 8008be8:	0dca      	lsrs	r2, r1, #23
 8008bea:	3a7f      	subs	r2, #127	; 0x7f
 8008bec:	2a16      	cmp	r2, #22
 8008bee:	dc2a      	bgt.n	8008c46 <ceilf+0x66>
 8008bf0:	2a00      	cmp	r2, #0
 8008bf2:	da11      	bge.n	8008c18 <ceilf+0x38>
 8008bf4:	eddf 7a18 	vldr	s15, [pc, #96]	; 8008c58 <ceilf+0x78>
 8008bf8:	ee30 0a27 	vadd.f32	s0, s0, s15
 8008bfc:	eeb5 0ac0 	vcmpe.f32	s0, #0.0
 8008c00:	eef1 fa10 	vmrs	APSR_nzcv, fpscr
 8008c04:	dd05      	ble.n	8008c12 <ceilf+0x32>
 8008c06:	2b00      	cmp	r3, #0
 8008c08:	db23      	blt.n	8008c52 <ceilf+0x72>
 8008c0a:	2900      	cmp	r1, #0
 8008c0c:	bf18      	it	ne
 8008c0e:	f04f 537e 	movne.w	r3, #1065353216	; 0x3f800000
 8008c12:	ee00 3a10 	vmov	s0, r3
 8008c16:	4770      	bx	lr
 8008c18:	4910      	ldr	r1, [pc, #64]	; (8008c5c <ceilf+0x7c>)
 8008c1a:	4111      	asrs	r1, r2
 8008c1c:	420b      	tst	r3, r1
 8008c1e:	d0fa      	beq.n	8008c16 <ceilf+0x36>
 8008c20:	eddf 7a0d 	vldr	s15, [pc, #52]	; 8008c58 <ceilf+0x78>
 8008c24:	ee30 0a27 	vadd.f32	s0, s0, s15
 8008c28:	eeb5 0ac0 	vcmpe.f32	s0, #0.0
 8008c2c:	eef1 fa10 	vmrs	APSR_nzcv, fpscr
 8008c30:	ddef      	ble.n	8008c12 <ceilf+0x32>
 8008c32:	2b00      	cmp	r3, #0
 8008c34:	bfc2      	ittt	gt
 8008c36:	f44f 0000 	movgt.w	r0, #8388608	; 0x800000
 8008c3a:	fa40 f202 	asrgt.w	r2, r0, r2
 8008c3e:	189b      	addgt	r3, r3, r2
 8008c40:	ea23 0301 	bic.w	r3, r3, r1
 8008c44:	e7e5      	b.n	8008c12 <ceilf+0x32>
 8008c46:	f1b1 4fff 	cmp.w	r1, #2139095040	; 0x7f800000
 8008c4a:	d3e4      	bcc.n	8008c16 <ceilf+0x36>
 8008c4c:	ee30 0a00 	vadd.f32	s0, s0, s0
 8008c50:	4770      	bx	lr
 8008c52:	f04f 4300 	mov.w	r3, #2147483648	; 0x80000000
 8008c56:	e7dc      	b.n	8008c12 <ceilf+0x32>
 8008c58:	7149f2ca 	.word	0x7149f2ca
 8008c5c:	007fffff 	.word	0x007fffff

08008c60 <cosf>:
 8008c60:	ee10 3a10 	vmov	r3, s0
 8008c64:	b507      	push	{r0, r1, r2, lr}
 8008c66:	4a1c      	ldr	r2, [pc, #112]	; (8008cd8 <cosf+0x78>)
 8008c68:	f023 4300 	bic.w	r3, r3, #2147483648	; 0x80000000
 8008c6c:	4293      	cmp	r3, r2
 8008c6e:	dc04      	bgt.n	8008c7a <cosf+0x1a>
 8008c70:	eddf 0a1a 	vldr	s1, [pc, #104]	; 8008cdc <cosf+0x7c>
 8008c74:	f002 fabc 	bl	800b1f0 <__kernel_cosf>
 8008c78:	e004      	b.n	8008c84 <cosf+0x24>
 8008c7a:	f1b3 4fff 	cmp.w	r3, #2139095040	; 0x7f800000
 8008c7e:	db04      	blt.n	8008c8a <cosf+0x2a>
 8008c80:	ee30 0a40 	vsub.f32	s0, s0, s0
 8008c84:	b003      	add	sp, #12
 8008c86:	f85d fb04 	ldr.w	pc, [sp], #4
 8008c8a:	4668      	mov	r0, sp
 8008c8c:	f002 f912 	bl	800aeb4 <__ieee754_rem_pio2f>
 8008c90:	f000 0003 	and.w	r0, r0, #3
 8008c94:	2801      	cmp	r0, #1
 8008c96:	d007      	beq.n	8008ca8 <cosf+0x48>
 8008c98:	2802      	cmp	r0, #2
 8008c9a:	d00e      	beq.n	8008cba <cosf+0x5a>
 8008c9c:	b9a0      	cbnz	r0, 8008cc8 <cosf+0x68>
 8008c9e:	eddd 0a01 	vldr	s1, [sp, #4]
 8008ca2:	ed9d 0a00 	vldr	s0, [sp]
 8008ca6:	e7e5      	b.n	8008c74 <cosf+0x14>
 8008ca8:	eddd 0a01 	vldr	s1, [sp, #4]
 8008cac:	ed9d 0a00 	vldr	s0, [sp]
 8008cb0:	f002 fd7e 	bl	800b7b0 <__kernel_sinf>
 8008cb4:	eeb1 0a40 	vneg.f32	s0, s0
 8008cb8:	e7e4      	b.n	8008c84 <cosf+0x24>
 8008cba:	eddd 0a01 	vldr	s1, [sp, #4]
 8008cbe:	ed9d 0a00 	vldr	s0, [sp]
 8008cc2:	f002 fa95 	bl	800b1f0 <__kernel_cosf>
 8008cc6:	e7f5      	b.n	8008cb4 <cosf+0x54>
 8008cc8:	2001      	movs	r0, #1
 8008cca:	eddd 0a01 	vldr	s1, [sp, #4]
 8008cce:	ed9d 0a00 	vldr	s0, [sp]
 8008cd2:	f002 fd6d 	bl	800b7b0 <__kernel_sinf>
 8008cd6:	e7d5      	b.n	8008c84 <cosf+0x24>
 8008cd8:	3f490fd8 	.word	0x3f490fd8
 8008cdc:	00000000 	.word	0x00000000

08008ce0 <erff>:
 8008ce0:	b538      	push	{r3, r4, r5, lr}
 8008ce2:	ee10 4a10 	vmov	r4, s0
 8008ce6:	f024 4500 	bic.w	r5, r4, #2147483648	; 0x80000000
 8008cea:	f1b5 4fff 	cmp.w	r5, #2139095040	; 0x7f800000
 8008cee:	ed2d 8b06 	vpush	{d8-d10}
 8008cf2:	eef0 7a40 	vmov.f32	s15, s0
 8008cf6:	db12      	blt.n	8008d1e <erff+0x3e>
 8008cf8:	eef7 6a00 	vmov.f32	s13, #112	; 0x3f800000  1.0
 8008cfc:	ee86 7aa7 	vdiv.f32	s14, s13, s15
 8008d00:	0fe4      	lsrs	r4, r4, #31
 8008d02:	0064      	lsls	r4, r4, #1
 8008d04:	f1c4 0301 	rsb	r3, r4, #1
 8008d08:	ee00 3a10 	vmov	s0, r3
 8008d0c:	eeb8 0ac0 	vcvt.f32.s32	s0, s0
 8008d10:	ee70 7a07 	vadd.f32	s15, s0, s14
 8008d14:	ecbd 8b06 	vpop	{d8-d10}
 8008d18:	eeb0 0a67 	vmov.f32	s0, s15
 8008d1c:	bd38      	pop	{r3, r4, r5, pc}
 8008d1e:	4ba4      	ldr	r3, [pc, #656]	; (8008fb0 <erff+0x2d0>)
 8008d20:	429d      	cmp	r5, r3
 8008d22:	dc4a      	bgt.n	8008dba <erff+0xda>
 8008d24:	f1b5 5f46 	cmp.w	r5, #830472192	; 0x31800000
 8008d28:	da16      	bge.n	8008d58 <erff+0x78>
 8008d2a:	f1b5 6f80 	cmp.w	r5, #67108864	; 0x4000000
 8008d2e:	da0e      	bge.n	8008d4e <erff+0x6e>
 8008d30:	ed9f 0aa0 	vldr	s0, [pc, #640]	; 8008fb4 <erff+0x2d4>
 8008d34:	ee27 0a80 	vmul.f32	s0, s15, s0
 8008d38:	eeb2 7a00 	vmov.f32	s14, #32	; 0x41000000  8.0
 8008d3c:	eea7 0a87 	vfma.f32	s0, s15, s14
 8008d40:	eef0 7a40 	vmov.f32	s15, s0
 8008d44:	eeb4 0a00 	vmov.f32	s0, #64	; 0x3e000000  0.125
 8008d48:	ee67 7a80 	vmul.f32	s15, s15, s0
 8008d4c:	e7e2      	b.n	8008d14 <erff+0x34>
 8008d4e:	ed9f 7a9a 	vldr	s14, [pc, #616]	; 8008fb8 <erff+0x2d8>
 8008d52:	eee0 7a07 	vfma.f32	s15, s0, s14
 8008d56:	e7dd      	b.n	8008d14 <erff+0x34>
 8008d58:	ee20 7a00 	vmul.f32	s14, s0, s0
 8008d5c:	ed9f 6a97 	vldr	s12, [pc, #604]	; 8008fbc <erff+0x2dc>
 8008d60:	eddf 6a97 	vldr	s13, [pc, #604]	; 8008fc0 <erff+0x2e0>
 8008d64:	eddf 5a97 	vldr	s11, [pc, #604]	; 8008fc4 <erff+0x2e4>
 8008d68:	eee7 6a06 	vfma.f32	s13, s14, s12
 8008d6c:	ed9f 6a96 	vldr	s12, [pc, #600]	; 8008fc8 <erff+0x2e8>
 8008d70:	eea6 6a87 	vfma.f32	s12, s13, s14
 8008d74:	eddf 6a95 	vldr	s13, [pc, #596]	; 8008fcc <erff+0x2ec>
 8008d78:	eee6 6a07 	vfma.f32	s13, s12, s14
 8008d7c:	ed9f 6a8e 	vldr	s12, [pc, #568]	; 8008fb8 <erff+0x2d8>
 8008d80:	eea6 6a87 	vfma.f32	s12, s13, s14
 8008d84:	eddf 6a92 	vldr	s13, [pc, #584]	; 8008fd0 <erff+0x2f0>
 8008d88:	eee7 6a25 	vfma.f32	s13, s14, s11
 8008d8c:	eddf 5a91 	vldr	s11, [pc, #580]	; 8008fd4 <erff+0x2f4>
 8008d90:	eee6 5a87 	vfma.f32	s11, s13, s14
 8008d94:	eddf 6a90 	vldr	s13, [pc, #576]	; 8008fd8 <erff+0x2f8>
 8008d98:	eee5 6a87 	vfma.f32	s13, s11, s14
 8008d9c:	eddf 5a8f 	vldr	s11, [pc, #572]	; 8008fdc <erff+0x2fc>
 8008da0:	eee6 5a87 	vfma.f32	s11, s13, s14
 8008da4:	eef7 6a00 	vmov.f32	s13, #112	; 0x3f800000  1.0
 8008da8:	eee5 6a87 	vfma.f32	s13, s11, s14
 8008dac:	eeb0 7a66 	vmov.f32	s14, s13
 8008db0:	eec6 6a07 	vdiv.f32	s13, s12, s14
 8008db4:	eee0 7a26 	vfma.f32	s15, s0, s13
 8008db8:	e7ac      	b.n	8008d14 <erff+0x34>
 8008dba:	4b89      	ldr	r3, [pc, #548]	; (8008fe0 <erff+0x300>)
 8008dbc:	429d      	cmp	r5, r3
 8008dbe:	dc44      	bgt.n	8008e4a <erff+0x16a>
 8008dc0:	f000 f96e 	bl	80090a0 <fabsf>
 8008dc4:	eef7 7a00 	vmov.f32	s15, #112	; 0x3f800000  1.0
 8008dc8:	ee30 0a67 	vsub.f32	s0, s0, s15
 8008dcc:	ed9f 7a85 	vldr	s14, [pc, #532]	; 8008fe4 <erff+0x304>
 8008dd0:	eddf 6a85 	vldr	s13, [pc, #532]	; 8008fe8 <erff+0x308>
 8008dd4:	ed9f 6a85 	vldr	s12, [pc, #532]	; 8008fec <erff+0x30c>
 8008dd8:	eee0 6a07 	vfma.f32	s13, s0, s14
 8008ddc:	2c00      	cmp	r4, #0
 8008dde:	ed9f 7a84 	vldr	s14, [pc, #528]	; 8008ff0 <erff+0x310>
 8008de2:	eea6 7a80 	vfma.f32	s14, s13, s0
 8008de6:	eddf 6a83 	vldr	s13, [pc, #524]	; 8008ff4 <erff+0x314>
 8008dea:	eee7 6a00 	vfma.f32	s13, s14, s0
 8008dee:	ed9f 7a82 	vldr	s14, [pc, #520]	; 8008ff8 <erff+0x318>
 8008df2:	eea6 7a80 	vfma.f32	s14, s13, s0
 8008df6:	eddf 6a81 	vldr	s13, [pc, #516]	; 8008ffc <erff+0x31c>
 8008dfa:	eee7 6a00 	vfma.f32	s13, s14, s0
 8008dfe:	ed9f 7a80 	vldr	s14, [pc, #512]	; 8009000 <erff+0x320>
 8008e02:	eea6 7a80 	vfma.f32	s14, s13, s0
 8008e06:	eddf 6a7f 	vldr	s13, [pc, #508]	; 8009004 <erff+0x324>
 8008e0a:	eee0 6a06 	vfma.f32	s13, s0, s12
 8008e0e:	ed9f 6a7e 	vldr	s12, [pc, #504]	; 8009008 <erff+0x328>
 8008e12:	eea6 6a80 	vfma.f32	s12, s13, s0
 8008e16:	eddf 6a7d 	vldr	s13, [pc, #500]	; 800900c <erff+0x32c>
 8008e1a:	eee6 6a00 	vfma.f32	s13, s12, s0
 8008e1e:	ed9f 6a7c 	vldr	s12, [pc, #496]	; 8009010 <erff+0x330>
 8008e22:	eea6 6a80 	vfma.f32	s12, s13, s0
 8008e26:	eddf 6a7b 	vldr	s13, [pc, #492]	; 8009014 <erff+0x334>
 8008e2a:	eee6 6a00 	vfma.f32	s13, s12, s0
 8008e2e:	eee6 7a80 	vfma.f32	s15, s13, s0
 8008e32:	ee87 0a27 	vdiv.f32	s0, s14, s15
 8008e36:	bfab      	itete	ge
 8008e38:	eddf 7a77 	vldrge	s15, [pc, #476]	; 8009018 <erff+0x338>
 8008e3c:	eddf 7a77 	vldrlt	s15, [pc, #476]	; 800901c <erff+0x33c>
 8008e40:	ee70 7a27 	vaddge.f32	s15, s0, s15
 8008e44:	ee77 7ac0 	vsublt.f32	s15, s15, s0
 8008e48:	e764      	b.n	8008d14 <erff+0x34>
 8008e4a:	4b75      	ldr	r3, [pc, #468]	; (8009020 <erff+0x340>)
 8008e4c:	429d      	cmp	r5, r3
 8008e4e:	dd08      	ble.n	8008e62 <erff+0x182>
 8008e50:	2c00      	cmp	r4, #0
 8008e52:	eeb7 0a00 	vmov.f32	s0, #112	; 0x3f800000  1.0
 8008e56:	eeff 7a00 	vmov.f32	s15, #240	; 0xbf800000 -1.0
 8008e5a:	bfa8      	it	ge
 8008e5c:	eef0 7a40 	vmovge.f32	s15, s0
 8008e60:	e758      	b.n	8008d14 <erff+0x34>
 8008e62:	f000 f91d 	bl	80090a0 <fabsf>
 8008e66:	4b6f      	ldr	r3, [pc, #444]	; (8009024 <erff+0x344>)
 8008e68:	ee60 7a00 	vmul.f32	s15, s0, s0
 8008e6c:	eeb0 9a40 	vmov.f32	s18, s0
 8008e70:	429d      	cmp	r5, r3
 8008e72:	eeb7 0a00 	vmov.f32	s0, #112	; 0x3f800000  1.0
 8008e76:	ee80 7a27 	vdiv.f32	s14, s0, s15
 8008e7a:	eef0 8a40 	vmov.f32	s17, s0
 8008e7e:	dc64      	bgt.n	8008f4a <erff+0x26a>
 8008e80:	eddf 7a69 	vldr	s15, [pc, #420]	; 8009028 <erff+0x348>
 8008e84:	eddf 6a69 	vldr	s13, [pc, #420]	; 800902c <erff+0x34c>
 8008e88:	eddf 9a69 	vldr	s19, [pc, #420]	; 8009030 <erff+0x350>
 8008e8c:	eee7 6a27 	vfma.f32	s13, s14, s15
 8008e90:	eddf 7a68 	vldr	s15, [pc, #416]	; 8009034 <erff+0x354>
 8008e94:	eee6 7a87 	vfma.f32	s15, s13, s14
 8008e98:	eddf 6a67 	vldr	s13, [pc, #412]	; 8009038 <erff+0x358>
 8008e9c:	eee7 6a87 	vfma.f32	s13, s15, s14
 8008ea0:	eddf 7a66 	vldr	s15, [pc, #408]	; 800903c <erff+0x35c>
 8008ea4:	eee6 7a87 	vfma.f32	s15, s13, s14
 8008ea8:	eddf 6a65 	vldr	s13, [pc, #404]	; 8009040 <erff+0x360>
 8008eac:	eee7 6a87 	vfma.f32	s13, s15, s14
 8008eb0:	eddf 7a64 	vldr	s15, [pc, #400]	; 8009044 <erff+0x364>
 8008eb4:	eee6 7a87 	vfma.f32	s15, s13, s14
 8008eb8:	eddf 6a63 	vldr	s13, [pc, #396]	; 8009048 <erff+0x368>
 8008ebc:	eee7 9a87 	vfma.f32	s19, s15, s14
 8008ec0:	eddf 7a62 	vldr	s15, [pc, #392]	; 800904c <erff+0x36c>
 8008ec4:	eee7 7a26 	vfma.f32	s15, s14, s13
 8008ec8:	eddf 6a61 	vldr	s13, [pc, #388]	; 8009050 <erff+0x370>
 8008ecc:	eee7 6a87 	vfma.f32	s13, s15, s14
 8008ed0:	eddf 7a60 	vldr	s15, [pc, #384]	; 8009054 <erff+0x374>
 8008ed4:	eee6 7a87 	vfma.f32	s15, s13, s14
 8008ed8:	eddf 6a5f 	vldr	s13, [pc, #380]	; 8009058 <erff+0x378>
 8008edc:	eee7 6a87 	vfma.f32	s13, s15, s14
 8008ee0:	eddf 7a5e 	vldr	s15, [pc, #376]	; 800905c <erff+0x37c>
 8008ee4:	eee6 7a87 	vfma.f32	s15, s13, s14
 8008ee8:	eddf 6a5d 	vldr	s13, [pc, #372]	; 8009060 <erff+0x380>
 8008eec:	eee7 6a87 	vfma.f32	s13, s15, s14
 8008ef0:	eddf 7a5c 	vldr	s15, [pc, #368]	; 8009064 <erff+0x384>
 8008ef4:	ee19 3a10 	vmov	r3, s18
 8008ef8:	eee6 7a87 	vfma.f32	s15, s13, s14
 8008efc:	f423 637f 	bic.w	r3, r3, #4080	; 0xff0
 8008f00:	f023 030f 	bic.w	r3, r3, #15
 8008f04:	ee08 3a10 	vmov	s16, r3
 8008f08:	eef0 aa68 	vmov.f32	s21, s17
 8008f0c:	eebe 0a02 	vmov.f32	s0, #226	; 0xbf100000 -0.5625000
 8008f10:	eee7 aa87 	vfma.f32	s21, s15, s14
 8008f14:	eea8 0a48 	vfms.f32	s0, s16, s16
 8008f18:	f001 fac2 	bl	800a4a0 <__ieee754_expf>
 8008f1c:	eeb0 aa40 	vmov.f32	s20, s0
 8008f20:	ee89 0aaa 	vdiv.f32	s0, s19, s21
 8008f24:	ee78 7a49 	vsub.f32	s15, s16, s18
 8008f28:	ee38 8a09 	vadd.f32	s16, s16, s18
 8008f2c:	eea7 0a88 	vfma.f32	s0, s15, s16
 8008f30:	f001 fab6 	bl	800a4a0 <__ieee754_expf>
 8008f34:	ee2a 0a00 	vmul.f32	s0, s20, s0
 8008f38:	2c00      	cmp	r4, #0
 8008f3a:	eec0 7a09 	vdiv.f32	s15, s0, s18
 8008f3e:	bfac      	ite	ge
 8008f40:	ee78 7ae7 	vsubge.f32	s15, s17, s15
 8008f44:	ee77 7ae8 	vsublt.f32	s15, s15, s17
 8008f48:	e6e4      	b.n	8008d14 <erff+0x34>
 8008f4a:	eddf 6a47 	vldr	s13, [pc, #284]	; 8009068 <erff+0x388>
 8008f4e:	eddf 7a47 	vldr	s15, [pc, #284]	; 800906c <erff+0x38c>
 8008f52:	eddf 9a47 	vldr	s19, [pc, #284]	; 8009070 <erff+0x390>
 8008f56:	eee7 7a26 	vfma.f32	s15, s14, s13
 8008f5a:	eddf 6a46 	vldr	s13, [pc, #280]	; 8009074 <erff+0x394>
 8008f5e:	eee7 6a87 	vfma.f32	s13, s15, s14
 8008f62:	eddf 7a45 	vldr	s15, [pc, #276]	; 8009078 <erff+0x398>
 8008f66:	eee6 7a87 	vfma.f32	s15, s13, s14
 8008f6a:	eddf 6a44 	vldr	s13, [pc, #272]	; 800907c <erff+0x39c>
 8008f6e:	eee7 6a87 	vfma.f32	s13, s15, s14
 8008f72:	eddf 7a43 	vldr	s15, [pc, #268]	; 8009080 <erff+0x3a0>
 8008f76:	eee6 7a87 	vfma.f32	s15, s13, s14
 8008f7a:	eddf 6a42 	vldr	s13, [pc, #264]	; 8009084 <erff+0x3a4>
 8008f7e:	eee7 9a87 	vfma.f32	s19, s15, s14
 8008f82:	eddf 7a41 	vldr	s15, [pc, #260]	; 8009088 <erff+0x3a8>
 8008f86:	eee7 6a27 	vfma.f32	s13, s14, s15
 8008f8a:	eddf 7a40 	vldr	s15, [pc, #256]	; 800908c <erff+0x3ac>
 8008f8e:	eee6 7a87 	vfma.f32	s15, s13, s14
 8008f92:	eddf 6a3f 	vldr	s13, [pc, #252]	; 8009090 <erff+0x3b0>
 8008f96:	eee7 6a87 	vfma.f32	s13, s15, s14
 8008f9a:	eddf 7a3e 	vldr	s15, [pc, #248]	; 8009094 <erff+0x3b4>
 8008f9e:	eee6 7a87 	vfma.f32	s15, s13, s14
 8008fa2:	eddf 6a3d 	vldr	s13, [pc, #244]	; 8009098 <erff+0x3b8>
 8008fa6:	eee7 6a87 	vfma.f32	s13, s15, s14
 8008faa:	eddf 7a3c 	vldr	s15, [pc, #240]	; 800909c <erff+0x3bc>
 8008fae:	e7a1      	b.n	8008ef4 <erff+0x214>
 8008fb0:	3f57ffff 	.word	0x3f57ffff
 8008fb4:	3f8375d4 	.word	0x3f8375d4
 8008fb8:	3e0375d4 	.word	0x3e0375d4
 8008fbc:	b7c756b1 	.word	0xb7c756b1
 8008fc0:	bbbd1489 	.word	0xbbbd1489
 8008fc4:	b684e21a 	.word	0xb684e21a
 8008fc8:	bce9528f 	.word	0xbce9528f
 8008fcc:	bea66beb 	.word	0xbea66beb
 8008fd0:	390aee49 	.word	0x390aee49
 8008fd4:	3ba68116 	.word	0x3ba68116
 8008fd8:	3d852a63 	.word	0x3d852a63
 8008fdc:	3ecbbbce 	.word	0x3ecbbbce
 8008fe0:	3f9fffff 	.word	0x3f9fffff
 8008fe4:	bb0df9c0 	.word	0xbb0df9c0
 8008fe8:	3d1151b3 	.word	0x3d1151b3
 8008fec:	3c445aa3 	.word	0x3c445aa3
 8008ff0:	bde31cc2 	.word	0xbde31cc2
 8008ff4:	3ea2fe54 	.word	0x3ea2fe54
 8008ff8:	bebe9208 	.word	0xbebe9208
 8008ffc:	3ed46805 	.word	0x3ed46805
 8009000:	bb1acdc6 	.word	0xbb1acdc6
 8009004:	3c5f6e13 	.word	0x3c5f6e13
 8009008:	3e013307 	.word	0x3e013307
 800900c:	3d931ae7 	.word	0x3d931ae7
 8009010:	3f0a5785 	.word	0x3f0a5785
 8009014:	3dd9f331 	.word	0x3dd9f331
 8009018:	3f58560b 	.word	0x3f58560b
 800901c:	bf58560b 	.word	0xbf58560b
 8009020:	40bfffff 	.word	0x40bfffff
 8009024:	4036db6d 	.word	0x4036db6d
 8009028:	c11d077e 	.word	0xc11d077e
 800902c:	c2a2932b 	.word	0xc2a2932b
 8009030:	bc21a093 	.word	0xbc21a093
 8009034:	c3389ae7 	.word	0xc3389ae7
 8009038:	c322658c 	.word	0xc322658c
 800903c:	c2798057 	.word	0xc2798057
 8009040:	c128f022 	.word	0xc128f022
 8009044:	bf31a0b7 	.word	0xbf31a0b7
 8009048:	bd777f97 	.word	0xbd777f97
 800904c:	40d23f7c 	.word	0x40d23f7c
 8009050:	42d9451f 	.word	0x42d9451f
 8009054:	43d6810b 	.word	0x43d6810b
 8009058:	442158c9 	.word	0x442158c9
 800905c:	43d9486f 	.word	0x43d9486f
 8009060:	4309a863 	.word	0x4309a863
 8009064:	419d35ce 	.word	0x419d35ce
 8009068:	c3f1c275 	.word	0xc3f1c275
 800906c:	c480230b 	.word	0xc480230b
 8009070:	bc21a092 	.word	0xbc21a092
 8009074:	c41f6441 	.word	0xc41f6441
 8009078:	c320a2ea 	.word	0xc320a2ea
 800907c:	c18e104b 	.word	0xc18e104b
 8009080:	bf4c9dd4 	.word	0xbf4c9dd4
 8009084:	43ed43a7 	.word	0x43ed43a7
 8009088:	c1b38712 	.word	0xc1b38712
 800908c:	451f90ce 	.word	0x451f90ce
 8009090:	4547fdbb 	.word	0x4547fdbb
 8009094:	44c01759 	.word	0x44c01759
 8009098:	43a2e571 	.word	0x43a2e571
 800909c:	41f2b459 	.word	0x41f2b459

080090a0 <fabsf>:
 80090a0:	ee10 3a10 	vmov	r3, s0
 80090a4:	f023 4300 	bic.w	r3, r3, #2147483648	; 0x80000000
 80090a8:	ee00 3a10 	vmov	s0, r3
 80090ac:	4770      	bx	lr
	...

080090b0 <floorf>:
 80090b0:	ee10 3a10 	vmov	r3, s0
 80090b4:	f023 4100 	bic.w	r1, r3, #2147483648	; 0x80000000
 80090b8:	0dca      	lsrs	r2, r1, #23
 80090ba:	3a7f      	subs	r2, #127	; 0x7f
 80090bc:	2a16      	cmp	r2, #22
 80090be:	dc2a      	bgt.n	8009116 <floorf+0x66>
 80090c0:	2a00      	cmp	r2, #0
 80090c2:	da11      	bge.n	80090e8 <floorf+0x38>
 80090c4:	eddf 7a18 	vldr	s15, [pc, #96]	; 8009128 <floorf+0x78>
 80090c8:	ee30 0a27 	vadd.f32	s0, s0, s15
 80090cc:	eeb5 0ac0 	vcmpe.f32	s0, #0.0
 80090d0:	eef1 fa10 	vmrs	APSR_nzcv, fpscr
 80090d4:	dd05      	ble.n	80090e2 <floorf+0x32>
 80090d6:	2b00      	cmp	r3, #0
 80090d8:	da23      	bge.n	8009122 <floorf+0x72>
 80090da:	4a14      	ldr	r2, [pc, #80]	; (800912c <floorf+0x7c>)
 80090dc:	2900      	cmp	r1, #0
 80090de:	bf18      	it	ne
 80090e0:	4613      	movne	r3, r2
 80090e2:	ee00 3a10 	vmov	s0, r3
 80090e6:	4770      	bx	lr
 80090e8:	4911      	ldr	r1, [pc, #68]	; (8009130 <floorf+0x80>)
 80090ea:	4111      	asrs	r1, r2
 80090ec:	420b      	tst	r3, r1
 80090ee:	d0fa      	beq.n	80090e6 <floorf+0x36>
 80090f0:	eddf 7a0d 	vldr	s15, [pc, #52]	; 8009128 <floorf+0x78>
 80090f4:	ee30 0a27 	vadd.f32	s0, s0, s15
 80090f8:	eeb5 0ac0 	vcmpe.f32	s0, #0.0
 80090fc:	eef1 fa10 	vmrs	APSR_nzcv, fpscr
 8009100:	ddef      	ble.n	80090e2 <floorf+0x32>
 8009102:	2b00      	cmp	r3, #0
 8009104:	bfbe      	ittt	lt
 8009106:	f44f 0000 	movlt.w	r0, #8388608	; 0x800000
 800910a:	fa40 f202 	asrlt.w	r2, r0, r2
 800910e:	189b      	addlt	r3, r3, r2
 8009110:	ea23 0301 	bic.w	r3, r3, r1
 8009114:	e7e5      	b.n	80090e2 <floorf+0x32>
 8009116:	f1b1 4fff 	cmp.w	r1, #2139095040	; 0x7f800000
 800911a:	d3e4      	bcc.n	80090e6 <floorf+0x36>
 800911c:	ee30 0a00 	vadd.f32	s0, s0, s0
 8009120:	4770      	bx	lr
 8009122:	2300      	movs	r3, #0
 8009124:	e7dd      	b.n	80090e2 <floorf+0x32>
 8009126:	bf00      	nop
 8009128:	7149f2ca 	.word	0x7149f2ca
 800912c:	bf800000 	.word	0xbf800000
 8009130:	007fffff 	.word	0x007fffff

08009134 <log1pf>:
 8009134:	ee10 2a10 	vmov	r2, s0
 8009138:	f1b2 4fff 	cmp.w	r2, #2139095040	; 0x7f800000
 800913c:	db02      	blt.n	8009144 <log1pf+0x10>
 800913e:	ee30 0a00 	vadd.f32	s0, s0, s0
 8009142:	4770      	bx	lr
 8009144:	4b70      	ldr	r3, [pc, #448]	; (8009308 <log1pf+0x1d4>)
 8009146:	429a      	cmp	r2, r3
 8009148:	dc78      	bgt.n	800923c <log1pf+0x108>
 800914a:	f022 4300 	bic.w	r3, r2, #2147483648	; 0x80000000
 800914e:	f1b3 5f7e 	cmp.w	r3, #1065353216	; 0x3f800000
 8009152:	db12      	blt.n	800917a <log1pf+0x46>
 8009154:	eeff 7a00 	vmov.f32	s15, #240	; 0xbf800000 -1.0
 8009158:	eeb4 0a67 	vcmp.f32	s0, s15
 800915c:	eef1 fa10 	vmrs	APSR_nzcv, fpscr
 8009160:	bf05      	ittet	eq
 8009162:	ed9f 7a6a 	vldreq	s14, [pc, #424]	; 800930c <log1pf+0x1d8>
 8009166:	eddf 7a6a 	vldreq	s15, [pc, #424]	; 8009310 <log1pf+0x1dc>
 800916a:	ee70 7a40 	vsubne.f32	s15, s0, s0
 800916e:	ee87 0a27 	vdiveq.f32	s0, s14, s15
 8009172:	bf18      	it	ne
 8009174:	ee87 0aa7 	vdivne.f32	s0, s15, s15
 8009178:	4770      	bx	lr
 800917a:	f1b3 5f44 	cmp.w	r3, #822083584	; 0x31000000
 800917e:	da13      	bge.n	80091a8 <log1pf+0x74>
 8009180:	eddf 7a64 	vldr	s15, [pc, #400]	; 8009314 <log1pf+0x1e0>
 8009184:	ee70 7a27 	vadd.f32	s15, s0, s15
 8009188:	eef5 7ac0 	vcmpe.f32	s15, #0.0
 800918c:	eef1 fa10 	vmrs	APSR_nzcv, fpscr
 8009190:	dd03      	ble.n	800919a <log1pf+0x66>
 8009192:	f1b3 5f12 	cmp.w	r3, #612368384	; 0x24800000
 8009196:	f2c0 80b6 	blt.w	8009306 <log1pf+0x1d2>
 800919a:	ee20 7a40 	vnmul.f32	s14, s0, s0
 800919e:	eef6 7a00 	vmov.f32	s15, #96	; 0x3f000000  0.5
 80091a2:	eea7 0a27 	vfma.f32	s0, s14, s15
 80091a6:	4770      	bx	lr
 80091a8:	4b5b      	ldr	r3, [pc, #364]	; (8009318 <log1pf+0x1e4>)
 80091aa:	441a      	add	r2, r3
 80091ac:	429a      	cmp	r2, r3
 80091ae:	d84d      	bhi.n	800924c <log1pf+0x118>
 80091b0:	eef7 7a00 	vmov.f32	s15, #112	; 0x3f800000  1.0
 80091b4:	ee30 7a27 	vadd.f32	s14, s0, s15
 80091b8:	ee17 2a10 	vmov	r2, s14
 80091bc:	15d3      	asrs	r3, r2, #23
 80091be:	3b7f      	subs	r3, #127	; 0x7f
 80091c0:	2b00      	cmp	r3, #0
 80091c2:	bfcb      	itete	gt
 80091c4:	ee37 0a40 	vsubgt.f32	s0, s14, s0
 80091c8:	ee77 7a67 	vsuble.f32	s15, s14, s15
 80091cc:	ee37 0ac0 	vsubgt.f32	s0, s15, s0
 80091d0:	ee30 0a67 	vsuble.f32	s0, s0, s15
 80091d4:	eec0 6a07 	vdiv.f32	s13, s0, s14
 80091d8:	4950      	ldr	r1, [pc, #320]	; (800931c <log1pf+0x1e8>)
 80091da:	f3c2 0216 	ubfx	r2, r2, #0, #23
 80091de:	428a      	cmp	r2, r1
 80091e0:	bfc9      	itett	gt
 80091e2:	f042 517c 	orrgt.w	r1, r2, #1056964608	; 0x3f000000
 80091e6:	f042 517e 	orrle.w	r1, r2, #1065353216	; 0x3f800000
 80091ea:	f5c2 0200 	rsbgt	r2, r2, #8388608	; 0x800000
 80091ee:	3301      	addgt	r3, #1
 80091f0:	bfc8      	it	gt
 80091f2:	1092      	asrgt	r2, r2, #2
 80091f4:	ee07 1a90 	vmov	s15, r1
 80091f8:	eeb7 0a00 	vmov.f32	s0, #112	; 0x3f800000  1.0
 80091fc:	ee37 0ac0 	vsub.f32	s0, s15, s0
 8009200:	eeb6 7a00 	vmov.f32	s14, #96	; 0x3f000000  0.5
 8009204:	ee20 7a07 	vmul.f32	s14, s0, s14
 8009208:	ee27 7a00 	vmul.f32	s14, s14, s0
 800920c:	2a00      	cmp	r2, #0
 800920e:	d13d      	bne.n	800928c <log1pf+0x158>
 8009210:	eeb5 0a40 	vcmp.f32	s0, #0.0
 8009214:	eef1 fa10 	vmrs	APSR_nzcv, fpscr
 8009218:	d11b      	bne.n	8009252 <log1pf+0x11e>
 800921a:	2b00      	cmp	r3, #0
 800921c:	d071      	beq.n	8009302 <log1pf+0x1ce>
 800921e:	ee07 3a90 	vmov	s15, r3
 8009222:	ed9f 7a3f 	vldr	s14, [pc, #252]	; 8009320 <log1pf+0x1ec>
 8009226:	eef8 7ae7 	vcvt.f32.s32	s15, s15
 800922a:	eee7 6a87 	vfma.f32	s13, s15, s14
 800922e:	ed9f 7a3d 	vldr	s14, [pc, #244]	; 8009324 <log1pf+0x1f0>
 8009232:	eeb0 0a66 	vmov.f32	s0, s13
 8009236:	eea7 0a87 	vfma.f32	s0, s15, s14
 800923a:	4770      	bx	lr
 800923c:	f1b2 4fb4 	cmp.w	r2, #1509949440	; 0x5a000000
 8009240:	dbb6      	blt.n	80091b0 <log1pf+0x7c>
 8009242:	15d3      	asrs	r3, r2, #23
 8009244:	3b7f      	subs	r3, #127	; 0x7f
 8009246:	eddf 6a32 	vldr	s13, [pc, #200]	; 8009310 <log1pf+0x1dc>
 800924a:	e7c5      	b.n	80091d8 <log1pf+0xa4>
 800924c:	2201      	movs	r2, #1
 800924e:	2300      	movs	r3, #0
 8009250:	e7d6      	b.n	8009200 <log1pf+0xcc>
 8009252:	eddf 7a35 	vldr	s15, [pc, #212]	; 8009328 <log1pf+0x1f4>
 8009256:	eeb7 6a00 	vmov.f32	s12, #112	; 0x3f800000  1.0
 800925a:	eea0 6a67 	vfms.f32	s12, s0, s15
 800925e:	ee26 6a07 	vmul.f32	s12, s12, s14
 8009262:	b913      	cbnz	r3, 800926a <log1pf+0x136>
 8009264:	ee30 0a46 	vsub.f32	s0, s0, s12
 8009268:	4770      	bx	lr
 800926a:	ee07 3a90 	vmov	s15, r3
 800926e:	ed9f 7a2c 	vldr	s14, [pc, #176]	; 8009320 <log1pf+0x1ec>
 8009272:	eef8 7ae7 	vcvt.f32.s32	s15, s15
 8009276:	eee7 6a87 	vfma.f32	s13, s15, s14
 800927a:	ee36 7a66 	vsub.f32	s14, s12, s13
 800927e:	ee37 0a40 	vsub.f32	s0, s14, s0
 8009282:	ed9f 7a28 	vldr	s14, [pc, #160]	; 8009324 <log1pf+0x1f0>
 8009286:	ee97 0a87 	vfnms.f32	s0, s15, s14
 800928a:	4770      	bx	lr
 800928c:	eef0 7a00 	vmov.f32	s15, #0	; 0x40000000  2.0
 8009290:	ee70 7a27 	vadd.f32	s15, s0, s15
 8009294:	ed9f 6a25 	vldr	s12, [pc, #148]	; 800932c <log1pf+0x1f8>
 8009298:	ed9f 5a25 	vldr	s10, [pc, #148]	; 8009330 <log1pf+0x1fc>
 800929c:	eec0 5a27 	vdiv.f32	s11, s0, s15
 80092a0:	ee65 7aa5 	vmul.f32	s15, s11, s11
 80092a4:	eea7 5a86 	vfma.f32	s10, s15, s12
 80092a8:	ed9f 6a22 	vldr	s12, [pc, #136]	; 8009334 <log1pf+0x200>
 80092ac:	eea5 6a27 	vfma.f32	s12, s10, s15
 80092b0:	ed9f 5a21 	vldr	s10, [pc, #132]	; 8009338 <log1pf+0x204>
 80092b4:	eea6 5a27 	vfma.f32	s10, s12, s15
 80092b8:	ed9f 6a20 	vldr	s12, [pc, #128]	; 800933c <log1pf+0x208>
 80092bc:	eea5 6a27 	vfma.f32	s12, s10, s15
 80092c0:	ed9f 5a1f 	vldr	s10, [pc, #124]	; 8009340 <log1pf+0x20c>
 80092c4:	eea6 5a27 	vfma.f32	s10, s12, s15
 80092c8:	ed9f 6a17 	vldr	s12, [pc, #92]	; 8009328 <log1pf+0x1f4>
 80092cc:	eea5 6a27 	vfma.f32	s12, s10, s15
 80092d0:	eeb0 5a47 	vmov.f32	s10, s14
 80092d4:	eea6 5a27 	vfma.f32	s10, s12, s15
 80092d8:	ee25 6a25 	vmul.f32	s12, s10, s11
 80092dc:	b923      	cbnz	r3, 80092e8 <log1pf+0x1b4>
 80092de:	ee37 7a46 	vsub.f32	s14, s14, s12
 80092e2:	ee30 0a47 	vsub.f32	s0, s0, s14
 80092e6:	4770      	bx	lr
 80092e8:	ee07 3a90 	vmov	s15, r3
 80092ec:	eddf 5a0c 	vldr	s11, [pc, #48]	; 8009320 <log1pf+0x1ec>
 80092f0:	eef8 7ae7 	vcvt.f32.s32	s15, s15
 80092f4:	eee7 6aa5 	vfma.f32	s13, s15, s11
 80092f8:	ee76 6a86 	vadd.f32	s13, s13, s12
 80092fc:	ee37 7a66 	vsub.f32	s14, s14, s13
 8009300:	e7bd      	b.n	800927e <log1pf+0x14a>
 8009302:	ed9f 0a03 	vldr	s0, [pc, #12]	; 8009310 <log1pf+0x1dc>
 8009306:	4770      	bx	lr
 8009308:	3ed413d6 	.word	0x3ed413d6
 800930c:	cc000000 	.word	0xcc000000
 8009310:	00000000 	.word	0x00000000
 8009314:	4c000000 	.word	0x4c000000
 8009318:	416a09e0 	.word	0x416a09e0
 800931c:	003504f6 	.word	0x003504f6
 8009320:	3717f7d1 	.word	0x3717f7d1
 8009324:	3f317180 	.word	0x3f317180
 8009328:	3f2aaaab 	.word	0x3f2aaaab
 800932c:	3e178897 	.word	0x3e178897
 8009330:	3e1cd04f 	.word	0x3e1cd04f
 8009334:	3e3a3325 	.word	0x3e3a3325
 8009338:	3e638e29 	.word	0x3e638e29
 800933c:	3e924925 	.word	0x3e924925
 8009340:	3ecccccd 	.word	0x3ecccccd

08009344 <roundf>:
 8009344:	ee10 0a10 	vmov	r0, s0
 8009348:	f3c0 53c7 	ubfx	r3, r0, #23, #8
 800934c:	f1a3 027f 	sub.w	r2, r3, #127	; 0x7f
 8009350:	2a16      	cmp	r2, #22
 8009352:	dc15      	bgt.n	8009380 <roundf+0x3c>
 8009354:	2a00      	cmp	r2, #0
 8009356:	da08      	bge.n	800936a <roundf+0x26>
 8009358:	3201      	adds	r2, #1
 800935a:	f000 4300 	and.w	r3, r0, #2147483648	; 0x80000000
 800935e:	d101      	bne.n	8009364 <roundf+0x20>
 8009360:	f043 537e 	orr.w	r3, r3, #1065353216	; 0x3f800000
 8009364:	ee00 3a10 	vmov	s0, r3
 8009368:	4770      	bx	lr
 800936a:	4908      	ldr	r1, [pc, #32]	; (800938c <roundf+0x48>)
 800936c:	4111      	asrs	r1, r2
 800936e:	4208      	tst	r0, r1
 8009370:	d0fa      	beq.n	8009368 <roundf+0x24>
 8009372:	f44f 0380 	mov.w	r3, #4194304	; 0x400000
 8009376:	4113      	asrs	r3, r2
 8009378:	4403      	add	r3, r0
 800937a:	ea23 0301 	bic.w	r3, r3, r1
 800937e:	e7f1      	b.n	8009364 <roundf+0x20>
 8009380:	2a80      	cmp	r2, #128	; 0x80
 8009382:	d1f1      	bne.n	8009368 <roundf+0x24>
 8009384:	ee30 0a00 	vadd.f32	s0, s0, s0
 8009388:	4770      	bx	lr
 800938a:	bf00      	nop
 800938c:	007fffff 	.word	0x007fffff

08009390 <sinf>:
 8009390:	ee10 3a10 	vmov	r3, s0
 8009394:	b507      	push	{r0, r1, r2, lr}
 8009396:	4a1d      	ldr	r2, [pc, #116]	; (800940c <sinf+0x7c>)
 8009398:	f023 4300 	bic.w	r3, r3, #2147483648	; 0x80000000
 800939c:	4293      	cmp	r3, r2
 800939e:	dc05      	bgt.n	80093ac <sinf+0x1c>
 80093a0:	eddf 0a1b 	vldr	s1, [pc, #108]	; 8009410 <sinf+0x80>
 80093a4:	2000      	movs	r0, #0
 80093a6:	f002 fa03 	bl	800b7b0 <__kernel_sinf>
 80093aa:	e004      	b.n	80093b6 <sinf+0x26>
 80093ac:	f1b3 4fff 	cmp.w	r3, #2139095040	; 0x7f800000
 80093b0:	db04      	blt.n	80093bc <sinf+0x2c>
 80093b2:	ee30 0a40 	vsub.f32	s0, s0, s0
 80093b6:	b003      	add	sp, #12
 80093b8:	f85d fb04 	ldr.w	pc, [sp], #4
 80093bc:	4668      	mov	r0, sp
 80093be:	f001 fd79 	bl	800aeb4 <__ieee754_rem_pio2f>
 80093c2:	f000 0003 	and.w	r0, r0, #3
 80093c6:	2801      	cmp	r0, #1
 80093c8:	d008      	beq.n	80093dc <sinf+0x4c>
 80093ca:	2802      	cmp	r0, #2
 80093cc:	d00d      	beq.n	80093ea <sinf+0x5a>
 80093ce:	b9b0      	cbnz	r0, 80093fe <sinf+0x6e>
 80093d0:	2001      	movs	r0, #1
 80093d2:	eddd 0a01 	vldr	s1, [sp, #4]
 80093d6:	ed9d 0a00 	vldr	s0, [sp]
 80093da:	e7e4      	b.n	80093a6 <sinf+0x16>
 80093dc:	eddd 0a01 	vldr	s1, [sp, #4]
 80093e0:	ed9d 0a00 	vldr	s0, [sp]
 80093e4:	f001 ff04 	bl	800b1f0 <__kernel_cosf>
 80093e8:	e7e5      	b.n	80093b6 <sinf+0x26>
 80093ea:	2001      	movs	r0, #1
 80093ec:	eddd 0a01 	vldr	s1, [sp, #4]
 80093f0:	ed9d 0a00 	vldr	s0, [sp]
 80093f4:	f002 f9dc 	bl	800b7b0 <__kernel_sinf>
 80093f8:	eeb1 0a40 	vneg.f32	s0, s0
 80093fc:	e7db      	b.n	80093b6 <sinf+0x26>
 80093fe:	eddd 0a01 	vldr	s1, [sp, #4]
 8009402:	ed9d 0a00 	vldr	s0, [sp]
 8009406:	f001 fef3 	bl	800b1f0 <__kernel_cosf>
 800940a:	e7f5      	b.n	80093f8 <sinf+0x68>
 800940c:	3f490fd8 	.word	0x3f490fd8
 8009410:	00000000 	.word	0x00000000

08009414 <tanf>:
 8009414:	ee10 3a10 	vmov	r3, s0
 8009418:	b507      	push	{r0, r1, r2, lr}
 800941a:	4a10      	ldr	r2, [pc, #64]	; (800945c <tanf+0x48>)
 800941c:	f023 4300 	bic.w	r3, r3, #2147483648	; 0x80000000
 8009420:	4293      	cmp	r3, r2
 8009422:	dc05      	bgt.n	8009430 <tanf+0x1c>
 8009424:	eddf 0a0e 	vldr	s1, [pc, #56]	; 8009460 <tanf+0x4c>
 8009428:	2001      	movs	r0, #1
 800942a:	f002 fa09 	bl	800b840 <__kernel_tanf>
 800942e:	e004      	b.n	800943a <tanf+0x26>
 8009430:	f1b3 4fff 	cmp.w	r3, #2139095040	; 0x7f800000
 8009434:	db04      	blt.n	8009440 <tanf+0x2c>
 8009436:	ee30 0a40 	vsub.f32	s0, s0, s0
 800943a:	b003      	add	sp, #12
 800943c:	f85d fb04 	ldr.w	pc, [sp], #4
 8009440:	4668      	mov	r0, sp
 8009442:	f001 fd37 	bl	800aeb4 <__ieee754_rem_pio2f>
 8009446:	0040      	lsls	r0, r0, #1
 8009448:	f000 0002 	and.w	r0, r0, #2
 800944c:	f1c0 0001 	rsb	r0, r0, #1
 8009450:	eddd 0a01 	vldr	s1, [sp, #4]
 8009454:	ed9d 0a00 	vldr	s0, [sp]
 8009458:	e7e7      	b.n	800942a <tanf+0x16>
 800945a:	bf00      	nop
 800945c:	3f490fda 	.word	0x3f490fda
 8009460:	00000000 	.word	0x00000000

08009464 <tanhf>:
 8009464:	b510      	push	{r4, lr}
 8009466:	ee10 4a10 	vmov	r4, s0
 800946a:	f024 4300 	bic.w	r3, r4, #2147483648	; 0x80000000
 800946e:	f1b3 4fff 	cmp.w	r3, #2139095040	; 0x7f800000
 8009472:	ed2d 8b02 	vpush	{d8}
 8009476:	eef0 7a40 	vmov.f32	s15, s0
 800947a:	db0c      	blt.n	8009496 <tanhf+0x32>
 800947c:	eeb7 7a00 	vmov.f32	s14, #112	; 0x3f800000  1.0
 8009480:	ee87 0a27 	vdiv.f32	s0, s14, s15
 8009484:	2c00      	cmp	r4, #0
 8009486:	bfac      	ite	ge
 8009488:	ee30 0a07 	vaddge.f32	s0, s0, s14
 800948c:	ee30 0a47 	vsublt.f32	s0, s0, s14
 8009490:	ecbd 8b02 	vpop	{d8}
 8009494:	bd10      	pop	{r4, pc}
 8009496:	4a1b      	ldr	r2, [pc, #108]	; (8009504 <tanhf+0xa0>)
 8009498:	4293      	cmp	r3, r2
 800949a:	dc30      	bgt.n	80094fe <tanhf+0x9a>
 800949c:	f1b3 5f10 	cmp.w	r3, #603979776	; 0x24000000
 80094a0:	da06      	bge.n	80094b0 <tanhf+0x4c>
 80094a2:	eeb7 0a00 	vmov.f32	s0, #112	; 0x3f800000  1.0
 80094a6:	ee37 0a80 	vadd.f32	s0, s15, s0
 80094aa:	ee20 0a27 	vmul.f32	s0, s0, s15
 80094ae:	e7ef      	b.n	8009490 <tanhf+0x2c>
 80094b0:	f1b3 5f7e 	cmp.w	r3, #1065353216	; 0x3f800000
 80094b4:	eeb0 8a00 	vmov.f32	s16, #0	; 0x40000000  2.0
 80094b8:	db12      	blt.n	80094e0 <tanhf+0x7c>
 80094ba:	f7ff fdf1 	bl	80090a0 <fabsf>
 80094be:	ee30 0a00 	vadd.f32	s0, s0, s0
 80094c2:	f002 faad 	bl	800ba20 <expm1f>
 80094c6:	ee30 0a08 	vadd.f32	s0, s0, s16
 80094ca:	eec8 7a00 	vdiv.f32	s15, s16, s0
 80094ce:	eeb7 0a00 	vmov.f32	s0, #112	; 0x3f800000  1.0
 80094d2:	ee30 0a67 	vsub.f32	s0, s0, s15
 80094d6:	2c00      	cmp	r4, #0
 80094d8:	bfb8      	it	lt
 80094da:	eeb1 0a40 	vneglt.f32	s0, s0
 80094de:	e7d7      	b.n	8009490 <tanhf+0x2c>
 80094e0:	f7ff fdde 	bl	80090a0 <fabsf>
 80094e4:	eef8 7a00 	vmov.f32	s15, #128	; 0xc0000000 -2.0
 80094e8:	ee20 0a27 	vmul.f32	s0, s0, s15
 80094ec:	f002 fa98 	bl	800ba20 <expm1f>
 80094f0:	ee70 7a08 	vadd.f32	s15, s0, s16
 80094f4:	eeb1 7a40 	vneg.f32	s14, s0
 80094f8:	ee87 0a27 	vdiv.f32	s0, s14, s15
 80094fc:	e7eb      	b.n	80094d6 <tanhf+0x72>
 80094fe:	eeb7 0a00 	vmov.f32	s0, #112	; 0x3f800000  1.0
 8009502:	e7e8      	b.n	80094d6 <tanhf+0x72>
 8009504:	41afffff 	.word	0x41afffff

08009508 <acosf>:
 8009508:	b510      	push	{r4, lr}
 800950a:	ed2d 8b02 	vpush	{d8}
 800950e:	4c27      	ldr	r4, [pc, #156]	; (80095ac <acosf+0xa4>)
 8009510:	b08a      	sub	sp, #40	; 0x28
 8009512:	eeb0 8a40 	vmov.f32	s16, s0
 8009516:	f000 fce1 	bl	8009edc <__ieee754_acosf>
 800951a:	f994 3000 	ldrsb.w	r3, [r4]
 800951e:	3301      	adds	r3, #1
 8009520:	eef0 8a40 	vmov.f32	s17, s0
 8009524:	d03c      	beq.n	80095a0 <acosf+0x98>
 8009526:	eeb4 8a48 	vcmp.f32	s16, s16
 800952a:	eef1 fa10 	vmrs	APSR_nzcv, fpscr
 800952e:	d637      	bvs.n	80095a0 <acosf+0x98>
 8009530:	eeb0 0a48 	vmov.f32	s0, s16
 8009534:	f7ff fdb4 	bl	80090a0 <fabsf>
 8009538:	eef7 7a00 	vmov.f32	s15, #112	; 0x3f800000  1.0
 800953c:	eeb4 0ae7 	vcmpe.f32	s0, s15
 8009540:	eef1 fa10 	vmrs	APSR_nzcv, fpscr
 8009544:	dd2c      	ble.n	80095a0 <acosf+0x98>
 8009546:	2301      	movs	r3, #1
 8009548:	9300      	str	r3, [sp, #0]
 800954a:	4b19      	ldr	r3, [pc, #100]	; (80095b0 <acosf+0xa8>)
 800954c:	9301      	str	r3, [sp, #4]
 800954e:	ee18 0a10 	vmov	r0, s16
 8009552:	2300      	movs	r3, #0
 8009554:	9308      	str	r3, [sp, #32]
 8009556:	f7fd f809 	bl	800656c <__aeabi_f2d>
 800955a:	e9cd 0104 	strd	r0, r1, [sp, #16]
 800955e:	e9cd 0102 	strd	r0, r1, [sp, #8]
 8009562:	4814      	ldr	r0, [pc, #80]	; (80095b4 <acosf+0xac>)
 8009564:	f002 fa54 	bl	800ba10 <nan>
 8009568:	f994 3000 	ldrsb.w	r3, [r4]
 800956c:	2b02      	cmp	r3, #2
 800956e:	ed8d 0b06 	vstr	d0, [sp, #24]
 8009572:	d104      	bne.n	800957e <acosf+0x76>
 8009574:	f002 fc56 	bl	800be24 <__errno>
 8009578:	2321      	movs	r3, #33	; 0x21
 800957a:	6003      	str	r3, [r0, #0]
 800957c:	e004      	b.n	8009588 <acosf+0x80>
 800957e:	4668      	mov	r0, sp
 8009580:	f002 fa42 	bl	800ba08 <matherr>
 8009584:	2800      	cmp	r0, #0
 8009586:	d0f5      	beq.n	8009574 <acosf+0x6c>
 8009588:	9b08      	ldr	r3, [sp, #32]
 800958a:	b11b      	cbz	r3, 8009594 <acosf+0x8c>
 800958c:	f002 fc4a 	bl	800be24 <__errno>
 8009590:	9b08      	ldr	r3, [sp, #32]
 8009592:	6003      	str	r3, [r0, #0]
 8009594:	e9dd 0106 	ldrd	r0, r1, [sp, #24]
 8009598:	f7fd fafa 	bl	8006b90 <__aeabi_d2f>
 800959c:	ee08 0a90 	vmov	s17, r0
 80095a0:	eeb0 0a68 	vmov.f32	s0, s17
 80095a4:	b00a      	add	sp, #40	; 0x28
 80095a6:	ecbd 8b02 	vpop	{d8}
 80095aa:	bd10      	pop	{r4, pc}
 80095ac:	20000b04 	.word	0x20000b04
 80095b0:	08033840 	.word	0x08033840
 80095b4:	08033864 	.word	0x08033864

080095b8 <acoshf>:
 80095b8:	b510      	push	{r4, lr}
 80095ba:	ed2d 8b02 	vpush	{d8}
 80095be:	b08a      	sub	sp, #40	; 0x28
 80095c0:	eeb0 8a40 	vmov.f32	s16, s0
 80095c4:	f000 fd86 	bl	800a0d4 <__ieee754_acoshf>
 80095c8:	4b21      	ldr	r3, [pc, #132]	; (8009650 <acoshf+0x98>)
 80095ca:	f993 4000 	ldrsb.w	r4, [r3]
 80095ce:	1c63      	adds	r3, r4, #1
 80095d0:	d039      	beq.n	8009646 <acoshf+0x8e>
 80095d2:	eeb4 8a48 	vcmp.f32	s16, s16
 80095d6:	eef1 fa10 	vmrs	APSR_nzcv, fpscr
 80095da:	d634      	bvs.n	8009646 <acoshf+0x8e>
 80095dc:	eef7 7a00 	vmov.f32	s15, #112	; 0x3f800000  1.0
 80095e0:	eeb4 8ae7 	vcmpe.f32	s16, s15
 80095e4:	eef1 fa10 	vmrs	APSR_nzcv, fpscr
 80095e8:	d52d      	bpl.n	8009646 <acoshf+0x8e>
 80095ea:	2301      	movs	r3, #1
 80095ec:	9300      	str	r3, [sp, #0]
 80095ee:	4b19      	ldr	r3, [pc, #100]	; (8009654 <acoshf+0x9c>)
 80095f0:	9301      	str	r3, [sp, #4]
 80095f2:	ee18 0a10 	vmov	r0, s16
 80095f6:	2300      	movs	r3, #0
 80095f8:	9308      	str	r3, [sp, #32]
 80095fa:	f7fc ffb7 	bl	800656c <__aeabi_f2d>
 80095fe:	2200      	movs	r2, #0
 8009600:	2300      	movs	r3, #0
 8009602:	e9cd 0104 	strd	r0, r1, [sp, #16]
 8009606:	e9cd 0102 	strd	r0, r1, [sp, #8]
 800960a:	4610      	mov	r0, r2
 800960c:	4619      	mov	r1, r3
 800960e:	f7fd f92f 	bl	8006870 <__aeabi_ddiv>
 8009612:	2c02      	cmp	r4, #2
 8009614:	e9cd 0106 	strd	r0, r1, [sp, #24]
 8009618:	d104      	bne.n	8009624 <acoshf+0x6c>
 800961a:	f002 fc03 	bl	800be24 <__errno>
 800961e:	2321      	movs	r3, #33	; 0x21
 8009620:	6003      	str	r3, [r0, #0]
 8009622:	e004      	b.n	800962e <acoshf+0x76>
 8009624:	4668      	mov	r0, sp
 8009626:	f002 f9ef 	bl	800ba08 <matherr>
 800962a:	2800      	cmp	r0, #0
 800962c:	d0f5      	beq.n	800961a <acoshf+0x62>
 800962e:	9b08      	ldr	r3, [sp, #32]
 8009630:	b11b      	cbz	r3, 800963a <acoshf+0x82>
 8009632:	f002 fbf7 	bl	800be24 <__errno>
 8009636:	9b08      	ldr	r3, [sp, #32]
 8009638:	6003      	str	r3, [r0, #0]
 800963a:	e9dd 0106 	ldrd	r0, r1, [sp, #24]
 800963e:	f7fd faa7 	bl	8006b90 <__aeabi_d2f>
 8009642:	ee00 0a10 	vmov	s0, r0
 8009646:	b00a      	add	sp, #40	; 0x28
 8009648:	ecbd 8b02 	vpop	{d8}
 800964c:	bd10      	pop	{r4, pc}
 800964e:	bf00      	nop
 8009650:	20000b04 	.word	0x20000b04
 8009654:	08033846 	.word	0x08033846

08009658 <asinf>:
 8009658:	b510      	push	{r4, lr}
 800965a:	ed2d 8b02 	vpush	{d8}
 800965e:	4c27      	ldr	r4, [pc, #156]	; (80096fc <asinf+0xa4>)
 8009660:	b08a      	sub	sp, #40	; 0x28
 8009662:	eeb0 8a40 	vmov.f32	s16, s0
 8009666:	f000 fd89 	bl	800a17c <__ieee754_asinf>
 800966a:	f994 3000 	ldrsb.w	r3, [r4]
 800966e:	3301      	adds	r3, #1
 8009670:	eef0 8a40 	vmov.f32	s17, s0
 8009674:	d03c      	beq.n	80096f0 <asinf+0x98>
 8009676:	eeb4 8a48 	vcmp.f32	s16, s16
 800967a:	eef1 fa10 	vmrs	APSR_nzcv, fpscr
 800967e:	d637      	bvs.n	80096f0 <asinf+0x98>
 8009680:	eeb0 0a48 	vmov.f32	s0, s16
 8009684:	f7ff fd0c 	bl	80090a0 <fabsf>
 8009688:	eef7 7a00 	vmov.f32	s15, #112	; 0x3f800000  1.0
 800968c:	eeb4 0ae7 	vcmpe.f32	s0, s15
 8009690:	eef1 fa10 	vmrs	APSR_nzcv, fpscr
 8009694:	dd2c      	ble.n	80096f0 <asinf+0x98>
 8009696:	2301      	movs	r3, #1
 8009698:	9300      	str	r3, [sp, #0]
 800969a:	4b19      	ldr	r3, [pc, #100]	; (8009700 <asinf+0xa8>)
 800969c:	9301      	str	r3, [sp, #4]
 800969e:	ee18 0a10 	vmov	r0, s16
 80096a2:	2300      	movs	r3, #0
 80096a4:	9308      	str	r3, [sp, #32]
 80096a6:	f7fc ff61 	bl	800656c <__aeabi_f2d>
 80096aa:	e9cd 0104 	strd	r0, r1, [sp, #16]
 80096ae:	e9cd 0102 	strd	r0, r1, [sp, #8]
 80096b2:	4814      	ldr	r0, [pc, #80]	; (8009704 <asinf+0xac>)
 80096b4:	f002 f9ac 	bl	800ba10 <nan>
 80096b8:	f994 3000 	ldrsb.w	r3, [r4]
 80096bc:	2b02      	cmp	r3, #2
 80096be:	ed8d 0b06 	vstr	d0, [sp, #24]
 80096c2:	d104      	bne.n	80096ce <asinf+0x76>
 80096c4:	f002 fbae 	bl	800be24 <__errno>
 80096c8:	2321      	movs	r3, #33	; 0x21
 80096ca:	6003      	str	r3, [r0, #0]
 80096cc:	e004      	b.n	80096d8 <asinf+0x80>
 80096ce:	4668      	mov	r0, sp
 80096d0:	f002 f99a 	bl	800ba08 <matherr>
 80096d4:	2800      	cmp	r0, #0
 80096d6:	d0f5      	beq.n	80096c4 <asinf+0x6c>
 80096d8:	9b08      	ldr	r3, [sp, #32]
 80096da:	b11b      	cbz	r3, 80096e4 <asinf+0x8c>
 80096dc:	f002 fba2 	bl	800be24 <__errno>
 80096e0:	9b08      	ldr	r3, [sp, #32]
 80096e2:	6003      	str	r3, [r0, #0]
 80096e4:	e9dd 0106 	ldrd	r0, r1, [sp, #24]
 80096e8:	f7fd fa52 	bl	8006b90 <__aeabi_d2f>
 80096ec:	ee08 0a90 	vmov	s17, r0
 80096f0:	eeb0 0a68 	vmov.f32	s0, s17
 80096f4:	b00a      	add	sp, #40	; 0x28
 80096f6:	ecbd 8b02 	vpop	{d8}
 80096fa:	bd10      	pop	{r4, pc}
 80096fc:	20000b04 	.word	0x20000b04
 8009700:	0803384d 	.word	0x0803384d
 8009704:	08033864 	.word	0x08033864

08009708 <atanhf>:
 8009708:	b570      	push	{r4, r5, r6, lr}
 800970a:	ed2d 8b04 	vpush	{d8-d9}
 800970e:	4c36      	ldr	r4, [pc, #216]	; (80097e8 <atanhf+0xe0>)
 8009710:	b08a      	sub	sp, #40	; 0x28
 8009712:	eeb0 8a40 	vmov.f32	s16, s0
 8009716:	f000 fe19 	bl	800a34c <__ieee754_atanhf>
 800971a:	f994 3000 	ldrsb.w	r3, [r4]
 800971e:	3301      	adds	r3, #1
 8009720:	eef0 8a40 	vmov.f32	s17, s0
 8009724:	d059      	beq.n	80097da <atanhf+0xd2>
 8009726:	eeb4 8a48 	vcmp.f32	s16, s16
 800972a:	eef1 fa10 	vmrs	APSR_nzcv, fpscr
 800972e:	d654      	bvs.n	80097da <atanhf+0xd2>
 8009730:	eeb0 0a48 	vmov.f32	s0, s16
 8009734:	f7ff fcb4 	bl	80090a0 <fabsf>
 8009738:	eeb7 9a00 	vmov.f32	s18, #112	; 0x3f800000  1.0
 800973c:	eeb4 0ac9 	vcmpe.f32	s0, s18
 8009740:	eef1 fa10 	vmrs	APSR_nzcv, fpscr
 8009744:	eef0 9a40 	vmov.f32	s19, s0
 8009748:	db47      	blt.n	80097da <atanhf+0xd2>
 800974a:	ee18 0a10 	vmov	r0, s16
 800974e:	f7fc ff0d 	bl	800656c <__aeabi_f2d>
 8009752:	eef4 9ac9 	vcmpe.f32	s19, s18
 8009756:	eef1 fa10 	vmrs	APSR_nzcv, fpscr
 800975a:	4602      	mov	r2, r0
 800975c:	460b      	mov	r3, r1
 800975e:	f994 4000 	ldrsb.w	r4, [r4]
 8009762:	4d22      	ldr	r5, [pc, #136]	; (80097ec <atanhf+0xe4>)
 8009764:	dd17      	ble.n	8009796 <atanhf+0x8e>
 8009766:	2101      	movs	r1, #1
 8009768:	e9cd 2304 	strd	r2, r3, [sp, #16]
 800976c:	e9cd 2302 	strd	r2, r3, [sp, #8]
 8009770:	e9cd 1500 	strd	r1, r5, [sp]
 8009774:	2200      	movs	r2, #0
 8009776:	2100      	movs	r1, #0
 8009778:	2300      	movs	r3, #0
 800977a:	9108      	str	r1, [sp, #32]
 800977c:	4610      	mov	r0, r2
 800977e:	4619      	mov	r1, r3
 8009780:	f7fd f876 	bl	8006870 <__aeabi_ddiv>
 8009784:	e9cd 0106 	strd	r0, r1, [sp, #24]
 8009788:	2c02      	cmp	r4, #2
 800978a:	d115      	bne.n	80097b8 <atanhf+0xb0>
 800978c:	f002 fb4a 	bl	800be24 <__errno>
 8009790:	2321      	movs	r3, #33	; 0x21
 8009792:	6003      	str	r3, [r0, #0]
 8009794:	e015      	b.n	80097c2 <atanhf+0xba>
 8009796:	2602      	movs	r6, #2
 8009798:	e9cd 2304 	strd	r2, r3, [sp, #16]
 800979c:	e9cd 2302 	strd	r2, r3, [sp, #8]
 80097a0:	e9cd 6500 	strd	r6, r5, [sp]
 80097a4:	2200      	movs	r2, #0
 80097a6:	2500      	movs	r5, #0
 80097a8:	2300      	movs	r3, #0
 80097aa:	9508      	str	r5, [sp, #32]
 80097ac:	f7fd f860 	bl	8006870 <__aeabi_ddiv>
 80097b0:	42b4      	cmp	r4, r6
 80097b2:	e9cd 0106 	strd	r0, r1, [sp, #24]
 80097b6:	e7e8      	b.n	800978a <atanhf+0x82>
 80097b8:	4668      	mov	r0, sp
 80097ba:	f002 f925 	bl	800ba08 <matherr>
 80097be:	2800      	cmp	r0, #0
 80097c0:	d0e4      	beq.n	800978c <atanhf+0x84>
 80097c2:	9b08      	ldr	r3, [sp, #32]
 80097c4:	b11b      	cbz	r3, 80097ce <atanhf+0xc6>
 80097c6:	f002 fb2d 	bl	800be24 <__errno>
 80097ca:	9b08      	ldr	r3, [sp, #32]
 80097cc:	6003      	str	r3, [r0, #0]
 80097ce:	e9dd 0106 	ldrd	r0, r1, [sp, #24]
 80097d2:	f7fd f9dd 	bl	8006b90 <__aeabi_d2f>
 80097d6:	ee08 0a90 	vmov	s17, r0
 80097da:	eeb0 0a68 	vmov.f32	s0, s17
 80097de:	b00a      	add	sp, #40	; 0x28
 80097e0:	ecbd 8b04 	vpop	{d8-d9}
 80097e4:	bd70      	pop	{r4, r5, r6, pc}
 80097e6:	bf00      	nop
 80097e8:	20000b04 	.word	0x20000b04
 80097ec:	08033853 	.word	0x08033853

080097f0 <coshf>:
 80097f0:	b510      	push	{r4, lr}
 80097f2:	ed2d 8b02 	vpush	{d8}
 80097f6:	4c29      	ldr	r4, [pc, #164]	; (800989c <coshf+0xac>)
 80097f8:	b08a      	sub	sp, #40	; 0x28
 80097fa:	eeb0 8a40 	vmov.f32	s16, s0
 80097fe:	f000 fdeb 	bl	800a3d8 <__ieee754_coshf>
 8009802:	f994 3000 	ldrsb.w	r3, [r4]
 8009806:	3301      	adds	r3, #1
 8009808:	eef0 8a40 	vmov.f32	s17, s0
 800980c:	d035      	beq.n	800987a <coshf+0x8a>
 800980e:	eeb4 8a48 	vcmp.f32	s16, s16
 8009812:	eef1 fa10 	vmrs	APSR_nzcv, fpscr
 8009816:	d630      	bvs.n	800987a <coshf+0x8a>
 8009818:	eeb0 0a48 	vmov.f32	s0, s16
 800981c:	f7ff fc40 	bl	80090a0 <fabsf>
 8009820:	eddf 7a1f 	vldr	s15, [pc, #124]	; 80098a0 <coshf+0xb0>
 8009824:	eeb4 0ae7 	vcmpe.f32	s0, s15
 8009828:	eef1 fa10 	vmrs	APSR_nzcv, fpscr
 800982c:	dd25      	ble.n	800987a <coshf+0x8a>
 800982e:	2303      	movs	r3, #3
 8009830:	9300      	str	r3, [sp, #0]
 8009832:	4b1c      	ldr	r3, [pc, #112]	; (80098a4 <coshf+0xb4>)
 8009834:	9301      	str	r3, [sp, #4]
 8009836:	ee18 0a10 	vmov	r0, s16
 800983a:	2300      	movs	r3, #0
 800983c:	9308      	str	r3, [sp, #32]
 800983e:	f7fc fe95 	bl	800656c <__aeabi_f2d>
 8009842:	f994 3000 	ldrsb.w	r3, [r4]
 8009846:	e9cd 0104 	strd	r0, r1, [sp, #16]
 800984a:	e9cd 0102 	strd	r0, r1, [sp, #8]
 800984e:	b9d3      	cbnz	r3, 8009886 <coshf+0x96>
 8009850:	4b15      	ldr	r3, [pc, #84]	; (80098a8 <coshf+0xb8>)
 8009852:	f04f 4260 	mov.w	r2, #3758096384	; 0xe0000000
 8009856:	e9cd 2306 	strd	r2, r3, [sp, #24]
 800985a:	4668      	mov	r0, sp
 800985c:	f002 f8d4 	bl	800ba08 <matherr>
 8009860:	b1b8      	cbz	r0, 8009892 <coshf+0xa2>
 8009862:	9b08      	ldr	r3, [sp, #32]
 8009864:	b11b      	cbz	r3, 800986e <coshf+0x7e>
 8009866:	f002 fadd 	bl	800be24 <__errno>
 800986a:	9b08      	ldr	r3, [sp, #32]
 800986c:	6003      	str	r3, [r0, #0]
 800986e:	e9dd 0106 	ldrd	r0, r1, [sp, #24]
 8009872:	f7fd f98d 	bl	8006b90 <__aeabi_d2f>
 8009876:	ee08 0a90 	vmov	s17, r0
 800987a:	eeb0 0a68 	vmov.f32	s0, s17
 800987e:	b00a      	add	sp, #40	; 0x28
 8009880:	ecbd 8b02 	vpop	{d8}
 8009884:	bd10      	pop	{r4, pc}
 8009886:	4909      	ldr	r1, [pc, #36]	; (80098ac <coshf+0xbc>)
 8009888:	2000      	movs	r0, #0
 800988a:	2b02      	cmp	r3, #2
 800988c:	e9cd 0106 	strd	r0, r1, [sp, #24]
 8009890:	d1e3      	bne.n	800985a <coshf+0x6a>
 8009892:	f002 fac7 	bl	800be24 <__errno>
 8009896:	2322      	movs	r3, #34	; 0x22
 8009898:	6003      	str	r3, [r0, #0]
 800989a:	e7e2      	b.n	8009862 <coshf+0x72>
 800989c:	20000b04 	.word	0x20000b04
 80098a0:	42b2d4fc 	.word	0x42b2d4fc
 80098a4:	08033847 	.word	0x08033847
 80098a8:	47efffff 	.word	0x47efffff
 80098ac:	7ff00000 	.word	0x7ff00000

080098b0 <expf>:
 80098b0:	b530      	push	{r4, r5, lr}
 80098b2:	ed2d 8b02 	vpush	{d8}
 80098b6:	4d35      	ldr	r5, [pc, #212]	; (800998c <expf+0xdc>)
 80098b8:	b08b      	sub	sp, #44	; 0x2c
 80098ba:	eeb0 8a40 	vmov.f32	s16, s0
 80098be:	f000 fdef 	bl	800a4a0 <__ieee754_expf>
 80098c2:	f995 3000 	ldrsb.w	r3, [r5]
 80098c6:	3301      	adds	r3, #1
 80098c8:	ee10 4a10 	vmov	r4, s0
 80098cc:	d030      	beq.n	8009930 <expf+0x80>
 80098ce:	eeb0 0a48 	vmov.f32	s0, s16
 80098d2:	f002 f9d1 	bl	800bc78 <finitef>
 80098d6:	b358      	cbz	r0, 8009930 <expf+0x80>
 80098d8:	eddf 7a2d 	vldr	s15, [pc, #180]	; 8009990 <expf+0xe0>
 80098dc:	eeb4 8ae7 	vcmpe.f32	s16, s15
 80098e0:	eef1 fa10 	vmrs	APSR_nzcv, fpscr
 80098e4:	dd35      	ble.n	8009952 <expf+0xa2>
 80098e6:	2303      	movs	r3, #3
 80098e8:	9300      	str	r3, [sp, #0]
 80098ea:	4b2a      	ldr	r3, [pc, #168]	; (8009994 <expf+0xe4>)
 80098ec:	9301      	str	r3, [sp, #4]
 80098ee:	ee18 0a10 	vmov	r0, s16
 80098f2:	2300      	movs	r3, #0
 80098f4:	9308      	str	r3, [sp, #32]
 80098f6:	f7fc fe39 	bl	800656c <__aeabi_f2d>
 80098fa:	f995 3000 	ldrsb.w	r3, [r5]
 80098fe:	e9cd 0104 	strd	r0, r1, [sp, #16]
 8009902:	e9cd 0102 	strd	r0, r1, [sp, #8]
 8009906:	b9cb      	cbnz	r3, 800993c <expf+0x8c>
 8009908:	4b23      	ldr	r3, [pc, #140]	; (8009998 <expf+0xe8>)
 800990a:	f04f 4260 	mov.w	r2, #3758096384	; 0xe0000000
 800990e:	e9cd 2306 	strd	r2, r3, [sp, #24]
 8009912:	4668      	mov	r0, sp
 8009914:	f002 f878 	bl	800ba08 <matherr>
 8009918:	b1b0      	cbz	r0, 8009948 <expf+0x98>
 800991a:	9b08      	ldr	r3, [sp, #32]
 800991c:	b11b      	cbz	r3, 8009926 <expf+0x76>
 800991e:	f002 fa81 	bl	800be24 <__errno>
 8009922:	9b08      	ldr	r3, [sp, #32]
 8009924:	6003      	str	r3, [r0, #0]
 8009926:	e9dd 0106 	ldrd	r0, r1, [sp, #24]
 800992a:	f7fd f931 	bl	8006b90 <__aeabi_d2f>
 800992e:	4604      	mov	r4, r0
 8009930:	ee00 4a10 	vmov	s0, r4
 8009934:	b00b      	add	sp, #44	; 0x2c
 8009936:	ecbd 8b02 	vpop	{d8}
 800993a:	bd30      	pop	{r4, r5, pc}
 800993c:	4917      	ldr	r1, [pc, #92]	; (800999c <expf+0xec>)
 800993e:	2000      	movs	r0, #0
 8009940:	e9cd 0106 	strd	r0, r1, [sp, #24]
 8009944:	2b02      	cmp	r3, #2
 8009946:	d1e4      	bne.n	8009912 <expf+0x62>
 8009948:	f002 fa6c 	bl	800be24 <__errno>
 800994c:	2322      	movs	r3, #34	; 0x22
 800994e:	6003      	str	r3, [r0, #0]
 8009950:	e7e3      	b.n	800991a <expf+0x6a>
 8009952:	eddf 7a13 	vldr	s15, [pc, #76]	; 80099a0 <expf+0xf0>
 8009956:	eeb4 8ae7 	vcmpe.f32	s16, s15
 800995a:	eef1 fa10 	vmrs	APSR_nzcv, fpscr
 800995e:	d5e7      	bpl.n	8009930 <expf+0x80>
 8009960:	2304      	movs	r3, #4
 8009962:	9300      	str	r3, [sp, #0]
 8009964:	4b0b      	ldr	r3, [pc, #44]	; (8009994 <expf+0xe4>)
 8009966:	9301      	str	r3, [sp, #4]
 8009968:	ee18 0a10 	vmov	r0, s16
 800996c:	2300      	movs	r3, #0
 800996e:	9308      	str	r3, [sp, #32]
 8009970:	f7fc fdfc 	bl	800656c <__aeabi_f2d>
 8009974:	2300      	movs	r3, #0
 8009976:	2200      	movs	r2, #0
 8009978:	e9cd 2306 	strd	r2, r3, [sp, #24]
 800997c:	e9cd 0104 	strd	r0, r1, [sp, #16]
 8009980:	e9cd 0102 	strd	r0, r1, [sp, #8]
 8009984:	f995 3000 	ldrsb.w	r3, [r5]
 8009988:	e7dc      	b.n	8009944 <expf+0x94>
 800998a:	bf00      	nop
 800998c:	20000b04 	.word	0x20000b04
 8009990:	42b17180 	.word	0x42b17180
 8009994:	0803385a 	.word	0x0803385a
 8009998:	47efffff 	.word	0x47efffff
 800999c:	7ff00000 	.word	0x7ff00000
 80099a0:	c2cff1b5 	.word	0xc2cff1b5

080099a4 <fmodf>:
 80099a4:	b5d0      	push	{r4, r6, r7, lr}
 80099a6:	ed2d 8b02 	vpush	{d8}
 80099aa:	b08a      	sub	sp, #40	; 0x28
 80099ac:	eef0 8a40 	vmov.f32	s17, s0
 80099b0:	eeb0 8a60 	vmov.f32	s16, s1
 80099b4:	f000 fe48 	bl	800a648 <__ieee754_fmodf>
 80099b8:	4b26      	ldr	r3, [pc, #152]	; (8009a54 <fmodf+0xb0>)
 80099ba:	f993 4000 	ldrsb.w	r4, [r3]
 80099be:	1c63      	adds	r3, r4, #1
 80099c0:	d035      	beq.n	8009a2e <fmodf+0x8a>
 80099c2:	eeb4 8a48 	vcmp.f32	s16, s16
 80099c6:	eef1 fa10 	vmrs	APSR_nzcv, fpscr
 80099ca:	d630      	bvs.n	8009a2e <fmodf+0x8a>
 80099cc:	eef4 8a68 	vcmp.f32	s17, s17
 80099d0:	eef1 fa10 	vmrs	APSR_nzcv, fpscr
 80099d4:	d62b      	bvs.n	8009a2e <fmodf+0x8a>
 80099d6:	eeb5 8a40 	vcmp.f32	s16, #0.0
 80099da:	eef1 fa10 	vmrs	APSR_nzcv, fpscr
 80099de:	d126      	bne.n	8009a2e <fmodf+0x8a>
 80099e0:	2301      	movs	r3, #1
 80099e2:	9300      	str	r3, [sp, #0]
 80099e4:	4b1c      	ldr	r3, [pc, #112]	; (8009a58 <fmodf+0xb4>)
 80099e6:	9301      	str	r3, [sp, #4]
 80099e8:	ee18 0a90 	vmov	r0, s17
 80099ec:	2300      	movs	r3, #0
 80099ee:	9308      	str	r3, [sp, #32]
 80099f0:	f7fc fdbc 	bl	800656c <__aeabi_f2d>
 80099f4:	4606      	mov	r6, r0
 80099f6:	460f      	mov	r7, r1
 80099f8:	ee18 0a10 	vmov	r0, s16
 80099fc:	e9cd 6702 	strd	r6, r7, [sp, #8]
 8009a00:	f7fc fdb4 	bl	800656c <__aeabi_f2d>
 8009a04:	e9cd 0104 	strd	r0, r1, [sp, #16]
 8009a08:	b9ac      	cbnz	r4, 8009a36 <fmodf+0x92>
 8009a0a:	e9cd 6706 	strd	r6, r7, [sp, #24]
 8009a0e:	4668      	mov	r0, sp
 8009a10:	f001 fffa 	bl	800ba08 <matherr>
 8009a14:	b1c8      	cbz	r0, 8009a4a <fmodf+0xa6>
 8009a16:	9b08      	ldr	r3, [sp, #32]
 8009a18:	b11b      	cbz	r3, 8009a22 <fmodf+0x7e>
 8009a1a:	f002 fa03 	bl	800be24 <__errno>
 8009a1e:	9b08      	ldr	r3, [sp, #32]
 8009a20:	6003      	str	r3, [r0, #0]
 8009a22:	e9dd 0106 	ldrd	r0, r1, [sp, #24]
 8009a26:	f7fd f8b3 	bl	8006b90 <__aeabi_d2f>
 8009a2a:	ee00 0a10 	vmov	s0, r0
 8009a2e:	b00a      	add	sp, #40	; 0x28
 8009a30:	ecbd 8b02 	vpop	{d8}
 8009a34:	bdd0      	pop	{r4, r6, r7, pc}
 8009a36:	2200      	movs	r2, #0
 8009a38:	2300      	movs	r3, #0
 8009a3a:	4610      	mov	r0, r2
 8009a3c:	4619      	mov	r1, r3
 8009a3e:	f7fc ff17 	bl	8006870 <__aeabi_ddiv>
 8009a42:	2c02      	cmp	r4, #2
 8009a44:	e9cd 0106 	strd	r0, r1, [sp, #24]
 8009a48:	d1e1      	bne.n	8009a0e <fmodf+0x6a>
 8009a4a:	f002 f9eb 	bl	800be24 <__errno>
 8009a4e:	2321      	movs	r3, #33	; 0x21
 8009a50:	6003      	str	r3, [r0, #0]
 8009a52:	e7e0      	b.n	8009a16 <fmodf+0x72>
 8009a54:	20000b04 	.word	0x20000b04
 8009a58:	0803385f 	.word	0x0803385f

08009a5c <logf>:
 8009a5c:	b510      	push	{r4, lr}
 8009a5e:	ed2d 8b02 	vpush	{d8}
 8009a62:	b08a      	sub	sp, #40	; 0x28
 8009a64:	eeb0 8a40 	vmov.f32	s16, s0
 8009a68:	f000 fe76 	bl	800a758 <__ieee754_logf>
 8009a6c:	4b31      	ldr	r3, [pc, #196]	; (8009b34 <logf+0xd8>)
 8009a6e:	f993 4000 	ldrsb.w	r4, [r3]
 8009a72:	1c63      	adds	r3, r4, #1
 8009a74:	d059      	beq.n	8009b2a <logf+0xce>
 8009a76:	eeb4 8a48 	vcmp.f32	s16, s16
 8009a7a:	eef1 fa10 	vmrs	APSR_nzcv, fpscr
 8009a7e:	d654      	bvs.n	8009b2a <logf+0xce>
 8009a80:	eeb5 8ac0 	vcmpe.f32	s16, #0.0
 8009a84:	eef1 fa10 	vmrs	APSR_nzcv, fpscr
 8009a88:	dc4f      	bgt.n	8009b2a <logf+0xce>
 8009a8a:	4b2b      	ldr	r3, [pc, #172]	; (8009b38 <logf+0xdc>)
 8009a8c:	9301      	str	r3, [sp, #4]
 8009a8e:	ee18 0a10 	vmov	r0, s16
 8009a92:	2300      	movs	r3, #0
 8009a94:	9308      	str	r3, [sp, #32]
 8009a96:	f7fc fd69 	bl	800656c <__aeabi_f2d>
 8009a9a:	e9cd 0104 	strd	r0, r1, [sp, #16]
 8009a9e:	e9cd 0102 	strd	r0, r1, [sp, #8]
 8009aa2:	b994      	cbnz	r4, 8009aca <logf+0x6e>
 8009aa4:	4b25      	ldr	r3, [pc, #148]	; (8009b3c <logf+0xe0>)
 8009aa6:	eeb5 8a40 	vcmp.f32	s16, #0.0
 8009aaa:	f04f 4260 	mov.w	r2, #3758096384	; 0xe0000000
 8009aae:	eef1 fa10 	vmrs	APSR_nzcv, fpscr
 8009ab2:	e9cd 2306 	strd	r2, r3, [sp, #24]
 8009ab6:	d025      	beq.n	8009b04 <logf+0xa8>
 8009ab8:	2301      	movs	r3, #1
 8009aba:	2c02      	cmp	r4, #2
 8009abc:	9300      	str	r3, [sp, #0]
 8009abe:	d116      	bne.n	8009aee <logf+0x92>
 8009ac0:	f002 f9b0 	bl	800be24 <__errno>
 8009ac4:	2321      	movs	r3, #33	; 0x21
 8009ac6:	6003      	str	r3, [r0, #0]
 8009ac8:	e016      	b.n	8009af8 <logf+0x9c>
 8009aca:	4b1d      	ldr	r3, [pc, #116]	; (8009b40 <logf+0xe4>)
 8009acc:	eeb5 8a40 	vcmp.f32	s16, #0.0
 8009ad0:	2200      	movs	r2, #0
 8009ad2:	eef1 fa10 	vmrs	APSR_nzcv, fpscr
 8009ad6:	e9cd 2306 	strd	r2, r3, [sp, #24]
 8009ada:	d1ed      	bne.n	8009ab8 <logf+0x5c>
 8009adc:	2302      	movs	r3, #2
 8009ade:	429c      	cmp	r4, r3
 8009ae0:	9300      	str	r3, [sp, #0]
 8009ae2:	d111      	bne.n	8009b08 <logf+0xac>
 8009ae4:	f002 f99e 	bl	800be24 <__errno>
 8009ae8:	2322      	movs	r3, #34	; 0x22
 8009aea:	6003      	str	r3, [r0, #0]
 8009aec:	e011      	b.n	8009b12 <logf+0xb6>
 8009aee:	4668      	mov	r0, sp
 8009af0:	f001 ff8a 	bl	800ba08 <matherr>
 8009af4:	2800      	cmp	r0, #0
 8009af6:	d0e3      	beq.n	8009ac0 <logf+0x64>
 8009af8:	4812      	ldr	r0, [pc, #72]	; (8009b44 <logf+0xe8>)
 8009afa:	f001 ff89 	bl	800ba10 <nan>
 8009afe:	ed8d 0b06 	vstr	d0, [sp, #24]
 8009b02:	e006      	b.n	8009b12 <logf+0xb6>
 8009b04:	2302      	movs	r3, #2
 8009b06:	9300      	str	r3, [sp, #0]
 8009b08:	4668      	mov	r0, sp
 8009b0a:	f001 ff7d 	bl	800ba08 <matherr>
 8009b0e:	2800      	cmp	r0, #0
 8009b10:	d0e8      	beq.n	8009ae4 <logf+0x88>
 8009b12:	9b08      	ldr	r3, [sp, #32]
 8009b14:	b11b      	cbz	r3, 8009b1e <logf+0xc2>
 8009b16:	f002 f985 	bl	800be24 <__errno>
 8009b1a:	9b08      	ldr	r3, [sp, #32]
 8009b1c:	6003      	str	r3, [r0, #0]
 8009b1e:	e9dd 0106 	ldrd	r0, r1, [sp, #24]
 8009b22:	f7fd f835 	bl	8006b90 <__aeabi_d2f>
 8009b26:	ee00 0a10 	vmov	s0, r0
 8009b2a:	b00a      	add	sp, #40	; 0x28
 8009b2c:	ecbd 8b02 	vpop	{d8}
 8009b30:	bd10      	pop	{r4, pc}
 8009b32:	bf00      	nop
 8009b34:	20000b04 	.word	0x20000b04
 8009b38:	08033865 	.word	0x08033865
 8009b3c:	c7efffff 	.word	0xc7efffff
 8009b40:	fff00000 	.word	0xfff00000
 8009b44:	08033864 	.word	0x08033864

08009b48 <powf>:
 8009b48:	e92d 4370 	stmdb	sp!, {r4, r5, r6, r8, r9, lr}
 8009b4c:	ed2d 8b04 	vpush	{d8-d9}
 8009b50:	4ca7      	ldr	r4, [pc, #668]	; (8009df0 <powf+0x2a8>)
 8009b52:	b08a      	sub	sp, #40	; 0x28
 8009b54:	eef0 8a40 	vmov.f32	s17, s0
 8009b58:	eeb0 8a60 	vmov.f32	s16, s1
 8009b5c:	f000 feea 	bl	800a934 <__ieee754_powf>
 8009b60:	f994 5000 	ldrsb.w	r5, [r4]
 8009b64:	1c6b      	adds	r3, r5, #1
 8009b66:	eeb0 9a40 	vmov.f32	s18, s0
 8009b6a:	4626      	mov	r6, r4
 8009b6c:	d05f      	beq.n	8009c2e <powf+0xe6>
 8009b6e:	eeb4 8a48 	vcmp.f32	s16, s16
 8009b72:	eef1 fa10 	vmrs	APSR_nzcv, fpscr
 8009b76:	d65a      	bvs.n	8009c2e <powf+0xe6>
 8009b78:	eef4 8a68 	vcmp.f32	s17, s17
 8009b7c:	eef1 fa10 	vmrs	APSR_nzcv, fpscr
 8009b80:	d721      	bvc.n	8009bc6 <powf+0x7e>
 8009b82:	eeb5 8a40 	vcmp.f32	s16, #0.0
 8009b86:	eef1 fa10 	vmrs	APSR_nzcv, fpscr
 8009b8a:	d150      	bne.n	8009c2e <powf+0xe6>
 8009b8c:	2301      	movs	r3, #1
 8009b8e:	9300      	str	r3, [sp, #0]
 8009b90:	4b98      	ldr	r3, [pc, #608]	; (8009df4 <powf+0x2ac>)
 8009b92:	9301      	str	r3, [sp, #4]
 8009b94:	ee18 0a90 	vmov	r0, s17
 8009b98:	2300      	movs	r3, #0
 8009b9a:	9308      	str	r3, [sp, #32]
 8009b9c:	f7fc fce6 	bl	800656c <__aeabi_f2d>
 8009ba0:	e9cd 0102 	strd	r0, r1, [sp, #8]
 8009ba4:	ee18 0a10 	vmov	r0, s16
 8009ba8:	f7fc fce0 	bl	800656c <__aeabi_f2d>
 8009bac:	4b92      	ldr	r3, [pc, #584]	; (8009df8 <powf+0x2b0>)
 8009bae:	2200      	movs	r2, #0
 8009bb0:	2d02      	cmp	r5, #2
 8009bb2:	e9cd 0104 	strd	r0, r1, [sp, #16]
 8009bb6:	e9cd 2306 	strd	r2, r3, [sp, #24]
 8009bba:	d032      	beq.n	8009c22 <powf+0xda>
 8009bbc:	4668      	mov	r0, sp
 8009bbe:	f001 ff23 	bl	800ba08 <matherr>
 8009bc2:	bb40      	cbnz	r0, 8009c16 <powf+0xce>
 8009bc4:	e065      	b.n	8009c92 <powf+0x14a>
 8009bc6:	eddf 9a8d 	vldr	s19, [pc, #564]	; 8009dfc <powf+0x2b4>
 8009bca:	eef4 8a69 	vcmp.f32	s17, s19
 8009bce:	eef1 fa10 	vmrs	APSR_nzcv, fpscr
 8009bd2:	d163      	bne.n	8009c9c <powf+0x154>
 8009bd4:	eeb4 8a69 	vcmp.f32	s16, s19
 8009bd8:	eef1 fa10 	vmrs	APSR_nzcv, fpscr
 8009bdc:	d12e      	bne.n	8009c3c <powf+0xf4>
 8009bde:	2301      	movs	r3, #1
 8009be0:	9300      	str	r3, [sp, #0]
 8009be2:	4b84      	ldr	r3, [pc, #528]	; (8009df4 <powf+0x2ac>)
 8009be4:	9301      	str	r3, [sp, #4]
 8009be6:	ee18 0a90 	vmov	r0, s17
 8009bea:	2300      	movs	r3, #0
 8009bec:	9308      	str	r3, [sp, #32]
 8009bee:	f7fc fcbd 	bl	800656c <__aeabi_f2d>
 8009bf2:	e9cd 0102 	strd	r0, r1, [sp, #8]
 8009bf6:	ee18 0a10 	vmov	r0, s16
 8009bfa:	f7fc fcb7 	bl	800656c <__aeabi_f2d>
 8009bfe:	2200      	movs	r2, #0
 8009c00:	2300      	movs	r3, #0
 8009c02:	e9cd 0104 	strd	r0, r1, [sp, #16]
 8009c06:	e9cd 2306 	strd	r2, r3, [sp, #24]
 8009c0a:	2d00      	cmp	r5, #0
 8009c0c:	d0d6      	beq.n	8009bbc <powf+0x74>
 8009c0e:	4b7a      	ldr	r3, [pc, #488]	; (8009df8 <powf+0x2b0>)
 8009c10:	2200      	movs	r2, #0
 8009c12:	e9cd 2306 	strd	r2, r3, [sp, #24]
 8009c16:	9b08      	ldr	r3, [sp, #32]
 8009c18:	b11b      	cbz	r3, 8009c22 <powf+0xda>
 8009c1a:	f002 f903 	bl	800be24 <__errno>
 8009c1e:	9b08      	ldr	r3, [sp, #32]
 8009c20:	6003      	str	r3, [r0, #0]
 8009c22:	e9dd 0106 	ldrd	r0, r1, [sp, #24]
 8009c26:	f7fc ffb3 	bl	8006b90 <__aeabi_d2f>
 8009c2a:	ee09 0a10 	vmov	s18, r0
 8009c2e:	eeb0 0a49 	vmov.f32	s0, s18
 8009c32:	b00a      	add	sp, #40	; 0x28
 8009c34:	ecbd 8b04 	vpop	{d8-d9}
 8009c38:	e8bd 8370 	ldmia.w	sp!, {r4, r5, r6, r8, r9, pc}
 8009c3c:	eeb0 0a48 	vmov.f32	s0, s16
 8009c40:	f002 f81a 	bl	800bc78 <finitef>
 8009c44:	2800      	cmp	r0, #0
 8009c46:	d0f2      	beq.n	8009c2e <powf+0xe6>
 8009c48:	eeb5 8ac0 	vcmpe.f32	s16, #0.0
 8009c4c:	eef1 fa10 	vmrs	APSR_nzcv, fpscr
 8009c50:	d5ed      	bpl.n	8009c2e <powf+0xe6>
 8009c52:	2301      	movs	r3, #1
 8009c54:	9300      	str	r3, [sp, #0]
 8009c56:	4b67      	ldr	r3, [pc, #412]	; (8009df4 <powf+0x2ac>)
 8009c58:	9301      	str	r3, [sp, #4]
 8009c5a:	ee18 0a90 	vmov	r0, s17
 8009c5e:	2300      	movs	r3, #0
 8009c60:	9308      	str	r3, [sp, #32]
 8009c62:	f7fc fc83 	bl	800656c <__aeabi_f2d>
 8009c66:	e9cd 0102 	strd	r0, r1, [sp, #8]
 8009c6a:	ee18 0a10 	vmov	r0, s16
 8009c6e:	f7fc fc7d 	bl	800656c <__aeabi_f2d>
 8009c72:	f994 3000 	ldrsb.w	r3, [r4]
 8009c76:	e9cd 0104 	strd	r0, r1, [sp, #16]
 8009c7a:	b923      	cbnz	r3, 8009c86 <powf+0x13e>
 8009c7c:	2200      	movs	r2, #0
 8009c7e:	2300      	movs	r3, #0
 8009c80:	e9cd 2306 	strd	r2, r3, [sp, #24]
 8009c84:	e79a      	b.n	8009bbc <powf+0x74>
 8009c86:	495e      	ldr	r1, [pc, #376]	; (8009e00 <powf+0x2b8>)
 8009c88:	2000      	movs	r0, #0
 8009c8a:	e9cd 0106 	strd	r0, r1, [sp, #24]
 8009c8e:	2b02      	cmp	r3, #2
 8009c90:	d194      	bne.n	8009bbc <powf+0x74>
 8009c92:	f002 f8c7 	bl	800be24 <__errno>
 8009c96:	2321      	movs	r3, #33	; 0x21
 8009c98:	6003      	str	r3, [r0, #0]
 8009c9a:	e7bc      	b.n	8009c16 <powf+0xce>
 8009c9c:	f001 ffec 	bl	800bc78 <finitef>
 8009ca0:	4605      	mov	r5, r0
 8009ca2:	2800      	cmp	r0, #0
 8009ca4:	d173      	bne.n	8009d8e <powf+0x246>
 8009ca6:	eeb0 0a68 	vmov.f32	s0, s17
 8009caa:	f001 ffe5 	bl	800bc78 <finitef>
 8009cae:	2800      	cmp	r0, #0
 8009cb0:	d06d      	beq.n	8009d8e <powf+0x246>
 8009cb2:	eeb0 0a48 	vmov.f32	s0, s16
 8009cb6:	f001 ffdf 	bl	800bc78 <finitef>
 8009cba:	2800      	cmp	r0, #0
 8009cbc:	d067      	beq.n	8009d8e <powf+0x246>
 8009cbe:	ee18 0a90 	vmov	r0, s17
 8009cc2:	f7fc fc53 	bl	800656c <__aeabi_f2d>
 8009cc6:	4680      	mov	r8, r0
 8009cc8:	ee18 0a10 	vmov	r0, s16
 8009ccc:	4689      	mov	r9, r1
 8009cce:	f7fc fc4d 	bl	800656c <__aeabi_f2d>
 8009cd2:	eeb4 9a49 	vcmp.f32	s18, s18
 8009cd6:	eef1 fa10 	vmrs	APSR_nzcv, fpscr
 8009cda:	f994 4000 	ldrsb.w	r4, [r4]
 8009cde:	4b45      	ldr	r3, [pc, #276]	; (8009df4 <powf+0x2ac>)
 8009ce0:	d713      	bvc.n	8009d0a <powf+0x1c2>
 8009ce2:	2201      	movs	r2, #1
 8009ce4:	e9cd 2300 	strd	r2, r3, [sp]
 8009ce8:	9508      	str	r5, [sp, #32]
 8009cea:	e9cd 8902 	strd	r8, r9, [sp, #8]
 8009cee:	e9cd 0104 	strd	r0, r1, [sp, #16]
 8009cf2:	2c00      	cmp	r4, #0
 8009cf4:	d0c2      	beq.n	8009c7c <powf+0x134>
 8009cf6:	eec9 7aa9 	vdiv.f32	s15, s19, s19
 8009cfa:	ee17 0a90 	vmov	r0, s15
 8009cfe:	f7fc fc35 	bl	800656c <__aeabi_f2d>
 8009d02:	2c02      	cmp	r4, #2
 8009d04:	e9cd 0106 	strd	r0, r1, [sp, #24]
 8009d08:	e7c2      	b.n	8009c90 <powf+0x148>
 8009d0a:	2203      	movs	r2, #3
 8009d0c:	eef6 7a00 	vmov.f32	s15, #96	; 0x3f000000  0.5
 8009d10:	e9cd 2300 	strd	r2, r3, [sp]
 8009d14:	9508      	str	r5, [sp, #32]
 8009d16:	e9cd 8902 	strd	r8, r9, [sp, #8]
 8009d1a:	e9cd 0104 	strd	r0, r1, [sp, #16]
 8009d1e:	ee28 8a27 	vmul.f32	s16, s16, s15
 8009d22:	b9fc      	cbnz	r4, 8009d64 <powf+0x21c>
 8009d24:	4b37      	ldr	r3, [pc, #220]	; (8009e04 <powf+0x2bc>)
 8009d26:	eef5 8ac0 	vcmpe.f32	s17, #0.0
 8009d2a:	f04f 4260 	mov.w	r2, #3758096384	; 0xe0000000
 8009d2e:	eef1 fa10 	vmrs	APSR_nzcv, fpscr
 8009d32:	e9cd 2306 	strd	r2, r3, [sp, #24]
 8009d36:	d553      	bpl.n	8009de0 <powf+0x298>
 8009d38:	eeb0 0a48 	vmov.f32	s0, s16
 8009d3c:	f001 ffac 	bl	800bc98 <rintf>
 8009d40:	eeb4 0a48 	vcmp.f32	s0, s16
 8009d44:	eef1 fa10 	vmrs	APSR_nzcv, fpscr
 8009d48:	d004      	beq.n	8009d54 <powf+0x20c>
 8009d4a:	4b2f      	ldr	r3, [pc, #188]	; (8009e08 <powf+0x2c0>)
 8009d4c:	f04f 4260 	mov.w	r2, #3758096384	; 0xe0000000
 8009d50:	e9cd 2306 	strd	r2, r3, [sp, #24]
 8009d54:	f996 3000 	ldrsb.w	r3, [r6]
 8009d58:	2b02      	cmp	r3, #2
 8009d5a:	d141      	bne.n	8009de0 <powf+0x298>
 8009d5c:	f002 f862 	bl	800be24 <__errno>
 8009d60:	2322      	movs	r3, #34	; 0x22
 8009d62:	e799      	b.n	8009c98 <powf+0x150>
 8009d64:	4b29      	ldr	r3, [pc, #164]	; (8009e0c <powf+0x2c4>)
 8009d66:	eef5 8ac0 	vcmpe.f32	s17, #0.0
 8009d6a:	2200      	movs	r2, #0
 8009d6c:	eef1 fa10 	vmrs	APSR_nzcv, fpscr
 8009d70:	e9cd 2306 	strd	r2, r3, [sp, #24]
 8009d74:	d5ee      	bpl.n	8009d54 <powf+0x20c>
 8009d76:	eeb0 0a48 	vmov.f32	s0, s16
 8009d7a:	f001 ff8d 	bl	800bc98 <rintf>
 8009d7e:	eeb4 0a48 	vcmp.f32	s0, s16
 8009d82:	eef1 fa10 	vmrs	APSR_nzcv, fpscr
 8009d86:	d0e5      	beq.n	8009d54 <powf+0x20c>
 8009d88:	2200      	movs	r2, #0
 8009d8a:	4b1d      	ldr	r3, [pc, #116]	; (8009e00 <powf+0x2b8>)
 8009d8c:	e7e0      	b.n	8009d50 <powf+0x208>
 8009d8e:	eeb5 9a40 	vcmp.f32	s18, #0.0
 8009d92:	eef1 fa10 	vmrs	APSR_nzcv, fpscr
 8009d96:	f47f af4a 	bne.w	8009c2e <powf+0xe6>
 8009d9a:	eeb0 0a68 	vmov.f32	s0, s17
 8009d9e:	f001 ff6b 	bl	800bc78 <finitef>
 8009da2:	2800      	cmp	r0, #0
 8009da4:	f43f af43 	beq.w	8009c2e <powf+0xe6>
 8009da8:	eeb0 0a48 	vmov.f32	s0, s16
 8009dac:	f001 ff64 	bl	800bc78 <finitef>
 8009db0:	2800      	cmp	r0, #0
 8009db2:	f43f af3c 	beq.w	8009c2e <powf+0xe6>
 8009db6:	2304      	movs	r3, #4
 8009db8:	9300      	str	r3, [sp, #0]
 8009dba:	4b0e      	ldr	r3, [pc, #56]	; (8009df4 <powf+0x2ac>)
 8009dbc:	9301      	str	r3, [sp, #4]
 8009dbe:	ee18 0a90 	vmov	r0, s17
 8009dc2:	2300      	movs	r3, #0
 8009dc4:	9308      	str	r3, [sp, #32]
 8009dc6:	f7fc fbd1 	bl	800656c <__aeabi_f2d>
 8009dca:	e9cd 0102 	strd	r0, r1, [sp, #8]
 8009dce:	ee18 0a10 	vmov	r0, s16
 8009dd2:	f7fc fbcb 	bl	800656c <__aeabi_f2d>
 8009dd6:	2200      	movs	r2, #0
 8009dd8:	e9cd 0104 	strd	r0, r1, [sp, #16]
 8009ddc:	2300      	movs	r3, #0
 8009dde:	e7b7      	b.n	8009d50 <powf+0x208>
 8009de0:	4668      	mov	r0, sp
 8009de2:	f001 fe11 	bl	800ba08 <matherr>
 8009de6:	2800      	cmp	r0, #0
 8009de8:	f47f af15 	bne.w	8009c16 <powf+0xce>
 8009dec:	e7b6      	b.n	8009d5c <powf+0x214>
 8009dee:	bf00      	nop
 8009df0:	20000b04 	.word	0x20000b04
 8009df4:	0803386a 	.word	0x0803386a
 8009df8:	3ff00000 	.word	0x3ff00000
 8009dfc:	00000000 	.word	0x00000000
 8009e00:	fff00000 	.word	0xfff00000
 8009e04:	47efffff 	.word	0x47efffff
 8009e08:	c7efffff 	.word	0xc7efffff
 8009e0c:	7ff00000 	.word	0x7ff00000

08009e10 <sinhf>:
 8009e10:	b530      	push	{r4, r5, lr}
 8009e12:	ed2d 8b02 	vpush	{d8}
 8009e16:	4c2b      	ldr	r4, [pc, #172]	; (8009ec4 <sinhf+0xb4>)
 8009e18:	b08b      	sub	sp, #44	; 0x2c
 8009e1a:	eeb0 8a40 	vmov.f32	s16, s0
 8009e1e:	f001 f975 	bl	800b10c <__ieee754_sinhf>
 8009e22:	f994 3000 	ldrsb.w	r3, [r4]
 8009e26:	3301      	adds	r3, #1
 8009e28:	eef0 8a40 	vmov.f32	s17, s0
 8009e2c:	d034      	beq.n	8009e98 <sinhf+0x88>
 8009e2e:	f001 ff23 	bl	800bc78 <finitef>
 8009e32:	4605      	mov	r5, r0
 8009e34:	2800      	cmp	r0, #0
 8009e36:	d12f      	bne.n	8009e98 <sinhf+0x88>
 8009e38:	eeb0 0a48 	vmov.f32	s0, s16
 8009e3c:	f001 ff1c 	bl	800bc78 <finitef>
 8009e40:	b350      	cbz	r0, 8009e98 <sinhf+0x88>
 8009e42:	2303      	movs	r3, #3
 8009e44:	9300      	str	r3, [sp, #0]
 8009e46:	ee18 0a10 	vmov	r0, s16
 8009e4a:	4b1f      	ldr	r3, [pc, #124]	; (8009ec8 <sinhf+0xb8>)
 8009e4c:	9301      	str	r3, [sp, #4]
 8009e4e:	9508      	str	r5, [sp, #32]
 8009e50:	f7fc fb8c 	bl	800656c <__aeabi_f2d>
 8009e54:	f994 3000 	ldrsb.w	r3, [r4]
 8009e58:	e9cd 0104 	strd	r0, r1, [sp, #16]
 8009e5c:	e9cd 0102 	strd	r0, r1, [sp, #8]
 8009e60:	eeb5 8ac0 	vcmpe.f32	s16, #0.0
 8009e64:	b9f3      	cbnz	r3, 8009ea4 <sinhf+0x94>
 8009e66:	eef1 fa10 	vmrs	APSR_nzcv, fpscr
 8009e6a:	bfd4      	ite	le
 8009e6c:	4b17      	ldrle	r3, [pc, #92]	; (8009ecc <sinhf+0xbc>)
 8009e6e:	4b18      	ldrgt	r3, [pc, #96]	; (8009ed0 <sinhf+0xc0>)
 8009e70:	f04f 4260 	mov.w	r2, #3758096384	; 0xe0000000
 8009e74:	e9cd 2306 	strd	r2, r3, [sp, #24]
 8009e78:	4668      	mov	r0, sp
 8009e7a:	f001 fdc5 	bl	800ba08 <matherr>
 8009e7e:	b1d8      	cbz	r0, 8009eb8 <sinhf+0xa8>
 8009e80:	9b08      	ldr	r3, [sp, #32]
 8009e82:	b11b      	cbz	r3, 8009e8c <sinhf+0x7c>
 8009e84:	f001 ffce 	bl	800be24 <__errno>
 8009e88:	9b08      	ldr	r3, [sp, #32]
 8009e8a:	6003      	str	r3, [r0, #0]
 8009e8c:	e9dd 0106 	ldrd	r0, r1, [sp, #24]
 8009e90:	f7fc fe7e 	bl	8006b90 <__aeabi_d2f>
 8009e94:	ee08 0a90 	vmov	s17, r0
 8009e98:	eeb0 0a68 	vmov.f32	s0, s17
 8009e9c:	b00b      	add	sp, #44	; 0x2c
 8009e9e:	ecbd 8b02 	vpop	{d8}
 8009ea2:	bd30      	pop	{r4, r5, pc}
 8009ea4:	eef1 fa10 	vmrs	APSR_nzcv, fpscr
 8009ea8:	bfd4      	ite	le
 8009eaa:	490a      	ldrle	r1, [pc, #40]	; (8009ed4 <sinhf+0xc4>)
 8009eac:	490a      	ldrgt	r1, [pc, #40]	; (8009ed8 <sinhf+0xc8>)
 8009eae:	2000      	movs	r0, #0
 8009eb0:	2b02      	cmp	r3, #2
 8009eb2:	e9cd 0106 	strd	r0, r1, [sp, #24]
 8009eb6:	d1df      	bne.n	8009e78 <sinhf+0x68>
 8009eb8:	f001 ffb4 	bl	800be24 <__errno>
 8009ebc:	2322      	movs	r3, #34	; 0x22
 8009ebe:	6003      	str	r3, [r0, #0]
 8009ec0:	e7de      	b.n	8009e80 <sinhf+0x70>
 8009ec2:	bf00      	nop
 8009ec4:	20000b04 	.word	0x20000b04
 8009ec8:	0803386f 	.word	0x0803386f
 8009ecc:	c7efffff 	.word	0xc7efffff
 8009ed0:	47efffff 	.word	0x47efffff
 8009ed4:	fff00000 	.word	0xfff00000
 8009ed8:	7ff00000 	.word	0x7ff00000

08009edc <__ieee754_acosf>:
 8009edc:	b508      	push	{r3, lr}
 8009ede:	ee10 3a10 	vmov	r3, s0
 8009ee2:	f023 4200 	bic.w	r2, r3, #2147483648	; 0x80000000
 8009ee6:	f1b2 5f7e 	cmp.w	r2, #1065353216	; 0x3f800000
 8009eea:	ed2d 8b0c 	vpush	{d8-d13}
 8009eee:	d10a      	bne.n	8009f06 <__ieee754_acosf+0x2a>
 8009ef0:	ed9f 0a67 	vldr	s0, [pc, #412]	; 800a090 <__ieee754_acosf+0x1b4>
 8009ef4:	ed9f 8a67 	vldr	s16, [pc, #412]	; 800a094 <__ieee754_acosf+0x1b8>
 8009ef8:	2b00      	cmp	r3, #0
 8009efa:	bfd8      	it	le
 8009efc:	eeb0 0a48 	vmovle.f32	s0, s16
 8009f00:	ecbd 8b0c 	vpop	{d8-d13}
 8009f04:	bd08      	pop	{r3, pc}
 8009f06:	dd04      	ble.n	8009f12 <__ieee754_acosf+0x36>
 8009f08:	ee30 8a40 	vsub.f32	s16, s0, s0
 8009f0c:	ee88 0a08 	vdiv.f32	s0, s16, s16
 8009f10:	e7f6      	b.n	8009f00 <__ieee754_acosf+0x24>
 8009f12:	f1b2 5f7c 	cmp.w	r2, #1056964608	; 0x3f000000
 8009f16:	da3e      	bge.n	8009f96 <__ieee754_acosf+0xba>
 8009f18:	f1b2 5f0c 	cmp.w	r2, #587202560	; 0x23000000
 8009f1c:	f340 80b5 	ble.w	800a08a <__ieee754_acosf+0x1ae>
 8009f20:	ee60 7a00 	vmul.f32	s15, s0, s0
 8009f24:	eddf 6a5c 	vldr	s13, [pc, #368]	; 800a098 <__ieee754_acosf+0x1bc>
 8009f28:	ed9f 7a5c 	vldr	s14, [pc, #368]	; 800a09c <__ieee754_acosf+0x1c0>
 8009f2c:	ed9f 6a5c 	vldr	s12, [pc, #368]	; 800a0a0 <__ieee754_acosf+0x1c4>
 8009f30:	ed9f 8a5c 	vldr	s16, [pc, #368]	; 800a0a4 <__ieee754_acosf+0x1c8>
 8009f34:	eea7 7aa6 	vfma.f32	s14, s15, s13
 8009f38:	eddf 6a5b 	vldr	s13, [pc, #364]	; 800a0a8 <__ieee754_acosf+0x1cc>
 8009f3c:	eee7 6a27 	vfma.f32	s13, s14, s15
 8009f40:	ed9f 7a5a 	vldr	s14, [pc, #360]	; 800a0ac <__ieee754_acosf+0x1d0>
 8009f44:	eea6 7aa7 	vfma.f32	s14, s13, s15
 8009f48:	eddf 6a59 	vldr	s13, [pc, #356]	; 800a0b0 <__ieee754_acosf+0x1d4>
 8009f4c:	eee7 6a27 	vfma.f32	s13, s14, s15
 8009f50:	ed9f 7a58 	vldr	s14, [pc, #352]	; 800a0b4 <__ieee754_acosf+0x1d8>
 8009f54:	eea6 7aa7 	vfma.f32	s14, s13, s15
 8009f58:	eddf 6a57 	vldr	s13, [pc, #348]	; 800a0b8 <__ieee754_acosf+0x1dc>
 8009f5c:	eea7 6aa6 	vfma.f32	s12, s15, s13
 8009f60:	eddf 6a56 	vldr	s13, [pc, #344]	; 800a0bc <__ieee754_acosf+0x1e0>
 8009f64:	eee6 6a27 	vfma.f32	s13, s12, s15
 8009f68:	ed9f 6a55 	vldr	s12, [pc, #340]	; 800a0c0 <__ieee754_acosf+0x1e4>
 8009f6c:	eea6 6aa7 	vfma.f32	s12, s13, s15
 8009f70:	eef7 6a00 	vmov.f32	s13, #112	; 0x3f800000  1.0
 8009f74:	eee6 6a27 	vfma.f32	s13, s12, s15
 8009f78:	ee27 7a27 	vmul.f32	s14, s14, s15
 8009f7c:	eef0 7a66 	vmov.f32	s15, s13
 8009f80:	eec7 6a27 	vdiv.f32	s13, s14, s15
 8009f84:	eea0 8a66 	vfms.f32	s16, s0, s13
 8009f88:	ee30 8a48 	vsub.f32	s16, s0, s16
 8009f8c:	ed9f 0a4d 	vldr	s0, [pc, #308]	; 800a0c4 <__ieee754_acosf+0x1e8>
 8009f90:	ee30 0a48 	vsub.f32	s0, s0, s16
 8009f94:	e7b4      	b.n	8009f00 <__ieee754_acosf+0x24>
 8009f96:	2b00      	cmp	r3, #0
 8009f98:	eddf da3f 	vldr	s27, [pc, #252]	; 800a098 <__ieee754_acosf+0x1bc>
 8009f9c:	eddf ca3f 	vldr	s25, [pc, #252]	; 800a09c <__ieee754_acosf+0x1c0>
 8009fa0:	ed9f ca41 	vldr	s24, [pc, #260]	; 800a0a8 <__ieee754_acosf+0x1cc>
 8009fa4:	eddf ba41 	vldr	s23, [pc, #260]	; 800a0ac <__ieee754_acosf+0x1d0>
 8009fa8:	ed9f ba41 	vldr	s22, [pc, #260]	; 800a0b0 <__ieee754_acosf+0x1d4>
 8009fac:	eddf 8a41 	vldr	s17, [pc, #260]	; 800a0b4 <__ieee754_acosf+0x1d8>
 8009fb0:	ed9f da41 	vldr	s26, [pc, #260]	; 800a0b8 <__ieee754_acosf+0x1dc>
 8009fb4:	eddf aa3a 	vldr	s21, [pc, #232]	; 800a0a0 <__ieee754_acosf+0x1c4>
 8009fb8:	ed9f aa40 	vldr	s20, [pc, #256]	; 800a0bc <__ieee754_acosf+0x1e0>
 8009fbc:	eddf 9a40 	vldr	s19, [pc, #256]	; 800a0c0 <__ieee754_acosf+0x1e4>
 8009fc0:	eeb7 9a00 	vmov.f32	s18, #112	; 0x3f800000  1.0
 8009fc4:	eef6 7a00 	vmov.f32	s15, #96	; 0x3f000000  0.5
 8009fc8:	da28      	bge.n	800a01c <__ieee754_acosf+0x140>
 8009fca:	ee30 0a09 	vadd.f32	s0, s0, s18
 8009fce:	ee20 0a27 	vmul.f32	s0, s0, s15
 8009fd2:	eee0 ca2d 	vfma.f32	s25, s0, s27
 8009fd6:	eee0 aa0d 	vfma.f32	s21, s0, s26
 8009fda:	eeac ca80 	vfma.f32	s24, s25, s0
 8009fde:	eeaa aa80 	vfma.f32	s20, s21, s0
 8009fe2:	eeec ba00 	vfma.f32	s23, s24, s0
 8009fe6:	eeea 9a00 	vfma.f32	s19, s20, s0
 8009fea:	eeab ba80 	vfma.f32	s22, s23, s0
 8009fee:	eea9 9a80 	vfma.f32	s18, s19, s0
 8009ff2:	eeeb 8a00 	vfma.f32	s17, s22, s0
 8009ff6:	ee68 8a80 	vmul.f32	s17, s17, s0
 8009ffa:	f001 f8f5 	bl	800b1e8 <__ieee754_sqrtf>
 8009ffe:	ee88 7a89 	vdiv.f32	s14, s17, s18
 800a002:	eddf 7a31 	vldr	s15, [pc, #196]	; 800a0c8 <__ieee754_acosf+0x1ec>
 800a006:	eee0 7a07 	vfma.f32	s15, s0, s14
 800a00a:	eeb0 7a00 	vmov.f32	s14, #0	; 0x40000000  2.0
 800a00e:	ee77 7a80 	vadd.f32	s15, s15, s0
 800a012:	ed9f 0a2e 	vldr	s0, [pc, #184]	; 800a0cc <__ieee754_acosf+0x1f0>
 800a016:	eea7 0ac7 	vfms.f32	s0, s15, s14
 800a01a:	e771      	b.n	8009f00 <__ieee754_acosf+0x24>
 800a01c:	ee39 8a40 	vsub.f32	s16, s18, s0
 800a020:	ee28 8a27 	vmul.f32	s16, s16, s15
 800a024:	eeb0 0a48 	vmov.f32	s0, s16
 800a028:	f001 f8de 	bl	800b1e8 <__ieee754_sqrtf>
 800a02c:	eee8 ca2d 	vfma.f32	s25, s16, s27
 800a030:	eee8 aa0d 	vfma.f32	s21, s16, s26
 800a034:	eeac ca88 	vfma.f32	s24, s25, s16
 800a038:	eeaa aa88 	vfma.f32	s20, s21, s16
 800a03c:	eeec ba08 	vfma.f32	s23, s24, s16
 800a040:	ee10 3a10 	vmov	r3, s0
 800a044:	eeab ba88 	vfma.f32	s22, s23, s16
 800a048:	f423 637f 	bic.w	r3, r3, #4080	; 0xff0
 800a04c:	f023 030f 	bic.w	r3, r3, #15
 800a050:	eeea 9a08 	vfma.f32	s19, s20, s16
 800a054:	ee07 3a90 	vmov	s15, r3
 800a058:	eeeb 8a08 	vfma.f32	s17, s22, s16
 800a05c:	eeb0 6a48 	vmov.f32	s12, s16
 800a060:	eea7 6ae7 	vfms.f32	s12, s15, s15
 800a064:	eea9 9a88 	vfma.f32	s18, s19, s16
 800a068:	ee70 6a27 	vadd.f32	s13, s0, s15
 800a06c:	ee68 8a88 	vmul.f32	s17, s17, s16
 800a070:	eeb0 7a40 	vmov.f32	s14, s0
 800a074:	ee86 0a26 	vdiv.f32	s0, s12, s13
 800a078:	eec8 6a89 	vdiv.f32	s13, s17, s18
 800a07c:	eea7 0a26 	vfma.f32	s0, s14, s13
 800a080:	ee30 0a27 	vadd.f32	s0, s0, s15
 800a084:	ee30 0a00 	vadd.f32	s0, s0, s0
 800a088:	e73a      	b.n	8009f00 <__ieee754_acosf+0x24>
 800a08a:	ed9f 0a11 	vldr	s0, [pc, #68]	; 800a0d0 <__ieee754_acosf+0x1f4>
 800a08e:	e737      	b.n	8009f00 <__ieee754_acosf+0x24>
 800a090:	00000000 	.word	0x00000000
 800a094:	40490fdb 	.word	0x40490fdb
 800a098:	3811ef08 	.word	0x3811ef08
 800a09c:	3a4f7f04 	.word	0x3a4f7f04
 800a0a0:	bf303361 	.word	0xbf303361
 800a0a4:	33a22168 	.word	0x33a22168
 800a0a8:	bd241146 	.word	0xbd241146
 800a0ac:	3e4e0aa8 	.word	0x3e4e0aa8
 800a0b0:	bea6b090 	.word	0xbea6b090
 800a0b4:	3e2aaaab 	.word	0x3e2aaaab
 800a0b8:	3d9dc62e 	.word	0x3d9dc62e
 800a0bc:	4001572d 	.word	0x4001572d
 800a0c0:	c019d139 	.word	0xc019d139
 800a0c4:	3fc90fda 	.word	0x3fc90fda
 800a0c8:	b3a22168 	.word	0xb3a22168
 800a0cc:	40490fda 	.word	0x40490fda
 800a0d0:	3fc90fdb 	.word	0x3fc90fdb

0800a0d4 <__ieee754_acoshf>:
 800a0d4:	b508      	push	{r3, lr}
 800a0d6:	ee10 3a10 	vmov	r3, s0
 800a0da:	f1b3 5f7e 	cmp.w	r3, #1065353216	; 0x3f800000
 800a0de:	ed2d 8b04 	vpush	{d8-d9}
 800a0e2:	eeb0 8a40 	vmov.f32	s16, s0
 800a0e6:	da06      	bge.n	800a0f6 <__ieee754_acoshf+0x22>
 800a0e8:	ee30 8a40 	vsub.f32	s16, s0, s0
 800a0ec:	ee88 0a08 	vdiv.f32	s0, s16, s16
 800a0f0:	ecbd 8b04 	vpop	{d8-d9}
 800a0f4:	bd08      	pop	{r3, pc}
 800a0f6:	f1b3 4f9b 	cmp.w	r3, #1300234240	; 0x4d800000
 800a0fa:	db0c      	blt.n	800a116 <__ieee754_acoshf+0x42>
 800a0fc:	f1b3 4fff 	cmp.w	r3, #2139095040	; 0x7f800000
 800a100:	db02      	blt.n	800a108 <__ieee754_acoshf+0x34>
 800a102:	ee30 0a00 	vadd.f32	s0, s0, s0
 800a106:	e7f3      	b.n	800a0f0 <__ieee754_acoshf+0x1c>
 800a108:	f000 fb26 	bl	800a758 <__ieee754_logf>
 800a10c:	ed9f 8a19 	vldr	s16, [pc, #100]	; 800a174 <__ieee754_acoshf+0xa0>
 800a110:	ee30 0a08 	vadd.f32	s0, s0, s16
 800a114:	e7ec      	b.n	800a0f0 <__ieee754_acoshf+0x1c>
 800a116:	f1b3 5f7e 	cmp.w	r3, #1065353216	; 0x3f800000
 800a11a:	d028      	beq.n	800a16e <__ieee754_acoshf+0x9a>
 800a11c:	f1b3 4f80 	cmp.w	r3, #1073741824	; 0x40000000
 800a120:	eeb7 9a00 	vmov.f32	s18, #112	; 0x3f800000  1.0
 800a124:	eef0 8a00 	vmov.f32	s17, #0	; 0x40000000  2.0
 800a128:	dd11      	ble.n	800a14e <__ieee754_acoshf+0x7a>
 800a12a:	eebf 0a00 	vmov.f32	s0, #240	; 0xbf800000 -1.0
 800a12e:	eea8 0a08 	vfma.f32	s0, s16, s16
 800a132:	f001 f859 	bl	800b1e8 <__ieee754_sqrtf>
 800a136:	ee70 7a08 	vadd.f32	s15, s0, s16
 800a13a:	ee89 0a27 	vdiv.f32	s0, s18, s15
 800a13e:	ee98 0a28 	vfnms.f32	s0, s16, s17
 800a142:	ecbd 8b04 	vpop	{d8-d9}
 800a146:	e8bd 4008 	ldmia.w	sp!, {r3, lr}
 800a14a:	f000 bb05 	b.w	800a758 <__ieee754_logf>
 800a14e:	ee30 8a49 	vsub.f32	s16, s0, s18
 800a152:	ee28 0a08 	vmul.f32	s0, s16, s16
 800a156:	eea8 0a28 	vfma.f32	s0, s16, s17
 800a15a:	f001 f845 	bl	800b1e8 <__ieee754_sqrtf>
 800a15e:	ee30 0a08 	vadd.f32	s0, s0, s16
 800a162:	ecbd 8b04 	vpop	{d8-d9}
 800a166:	e8bd 4008 	ldmia.w	sp!, {r3, lr}
 800a16a:	f7fe bfe3 	b.w	8009134 <log1pf>
 800a16e:	ed9f 0a02 	vldr	s0, [pc, #8]	; 800a178 <__ieee754_acoshf+0xa4>
 800a172:	e7bd      	b.n	800a0f0 <__ieee754_acoshf+0x1c>
 800a174:	3f317218 	.word	0x3f317218
 800a178:	00000000 	.word	0x00000000

0800a17c <__ieee754_asinf>:
 800a17c:	b538      	push	{r3, r4, r5, lr}
 800a17e:	ee10 5a10 	vmov	r5, s0
 800a182:	f025 4400 	bic.w	r4, r5, #2147483648	; 0x80000000
 800a186:	f1b4 5f7e 	cmp.w	r4, #1065353216	; 0x3f800000
 800a18a:	ed2d 8b04 	vpush	{d8-d9}
 800a18e:	d10c      	bne.n	800a1aa <__ieee754_asinf+0x2e>
 800a190:	eddf 7a5e 	vldr	s15, [pc, #376]	; 800a30c <__ieee754_asinf+0x190>
 800a194:	ed9f 7a5e 	vldr	s14, [pc, #376]	; 800a310 <__ieee754_asinf+0x194>
 800a198:	ee60 7a27 	vmul.f32	s15, s0, s15
 800a19c:	eee0 7a07 	vfma.f32	s15, s0, s14
 800a1a0:	eeb0 0a67 	vmov.f32	s0, s15
 800a1a4:	ecbd 8b04 	vpop	{d8-d9}
 800a1a8:	bd38      	pop	{r3, r4, r5, pc}
 800a1aa:	dd04      	ble.n	800a1b6 <__ieee754_asinf+0x3a>
 800a1ac:	ee70 7a40 	vsub.f32	s15, s0, s0
 800a1b0:	ee87 0aa7 	vdiv.f32	s0, s15, s15
 800a1b4:	e7f6      	b.n	800a1a4 <__ieee754_asinf+0x28>
 800a1b6:	f1b4 5f7c 	cmp.w	r4, #1056964608	; 0x3f000000
 800a1ba:	eef7 8a00 	vmov.f32	s17, #112	; 0x3f800000  1.0
 800a1be:	da0b      	bge.n	800a1d8 <__ieee754_asinf+0x5c>
 800a1c0:	f1b4 5f48 	cmp.w	r4, #838860800	; 0x32000000
 800a1c4:	da52      	bge.n	800a26c <__ieee754_asinf+0xf0>
 800a1c6:	eddf 7a53 	vldr	s15, [pc, #332]	; 800a314 <__ieee754_asinf+0x198>
 800a1ca:	ee70 7a27 	vadd.f32	s15, s0, s15
 800a1ce:	eef4 7ae8 	vcmpe.f32	s15, s17
 800a1d2:	eef1 fa10 	vmrs	APSR_nzcv, fpscr
 800a1d6:	dce5      	bgt.n	800a1a4 <__ieee754_asinf+0x28>
 800a1d8:	f7fe ff62 	bl	80090a0 <fabsf>
 800a1dc:	ee38 0ac0 	vsub.f32	s0, s17, s0
 800a1e0:	eeb6 8a00 	vmov.f32	s16, #96	; 0x3f000000  0.5
 800a1e4:	ee20 8a08 	vmul.f32	s16, s0, s16
 800a1e8:	eddf 7a4b 	vldr	s15, [pc, #300]	; 800a318 <__ieee754_asinf+0x19c>
 800a1ec:	ed9f 7a4b 	vldr	s14, [pc, #300]	; 800a31c <__ieee754_asinf+0x1a0>
 800a1f0:	ed9f 9a4b 	vldr	s18, [pc, #300]	; 800a320 <__ieee754_asinf+0x1a4>
 800a1f4:	eea8 7a27 	vfma.f32	s14, s16, s15
 800a1f8:	eddf 7a4a 	vldr	s15, [pc, #296]	; 800a324 <__ieee754_asinf+0x1a8>
 800a1fc:	eee7 7a08 	vfma.f32	s15, s14, s16
 800a200:	ed9f 7a49 	vldr	s14, [pc, #292]	; 800a328 <__ieee754_asinf+0x1ac>
 800a204:	eea7 7a88 	vfma.f32	s14, s15, s16
 800a208:	eddf 7a48 	vldr	s15, [pc, #288]	; 800a32c <__ieee754_asinf+0x1b0>
 800a20c:	eee7 7a08 	vfma.f32	s15, s14, s16
 800a210:	ed9f 7a47 	vldr	s14, [pc, #284]	; 800a330 <__ieee754_asinf+0x1b4>
 800a214:	eea7 9a88 	vfma.f32	s18, s15, s16
 800a218:	eddf 7a46 	vldr	s15, [pc, #280]	; 800a334 <__ieee754_asinf+0x1b8>
 800a21c:	eee8 7a07 	vfma.f32	s15, s16, s14
 800a220:	ed9f 7a45 	vldr	s14, [pc, #276]	; 800a338 <__ieee754_asinf+0x1bc>
 800a224:	eea7 7a88 	vfma.f32	s14, s15, s16
 800a228:	eddf 7a44 	vldr	s15, [pc, #272]	; 800a33c <__ieee754_asinf+0x1c0>
 800a22c:	eee7 7a08 	vfma.f32	s15, s14, s16
 800a230:	eeb0 0a48 	vmov.f32	s0, s16
 800a234:	eee7 8a88 	vfma.f32	s17, s15, s16
 800a238:	f000 ffd6 	bl	800b1e8 <__ieee754_sqrtf>
 800a23c:	4b40      	ldr	r3, [pc, #256]	; (800a340 <__ieee754_asinf+0x1c4>)
 800a23e:	ee29 9a08 	vmul.f32	s18, s18, s16
 800a242:	429c      	cmp	r4, r3
 800a244:	ee89 6a28 	vdiv.f32	s12, s18, s17
 800a248:	eeb0 7a00 	vmov.f32	s14, #0	; 0x40000000  2.0
 800a24c:	dd3d      	ble.n	800a2ca <__ieee754_asinf+0x14e>
 800a24e:	eea0 0a06 	vfma.f32	s0, s0, s12
 800a252:	eddf 7a3c 	vldr	s15, [pc, #240]	; 800a344 <__ieee754_asinf+0x1c8>
 800a256:	eee0 7a07 	vfma.f32	s15, s0, s14
 800a25a:	ed9f 0a2d 	vldr	s0, [pc, #180]	; 800a310 <__ieee754_asinf+0x194>
 800a25e:	ee30 0a67 	vsub.f32	s0, s0, s15
 800a262:	2d00      	cmp	r5, #0
 800a264:	bfd8      	it	le
 800a266:	eeb1 0a40 	vnegle.f32	s0, s0
 800a26a:	e79b      	b.n	800a1a4 <__ieee754_asinf+0x28>
 800a26c:	ee60 7a00 	vmul.f32	s15, s0, s0
 800a270:	eddf 6a29 	vldr	s13, [pc, #164]	; 800a318 <__ieee754_asinf+0x19c>
 800a274:	ed9f 7a29 	vldr	s14, [pc, #164]	; 800a31c <__ieee754_asinf+0x1a0>
 800a278:	ed9f 6a2d 	vldr	s12, [pc, #180]	; 800a330 <__ieee754_asinf+0x1b4>
 800a27c:	eea7 7aa6 	vfma.f32	s14, s15, s13
 800a280:	eddf 6a28 	vldr	s13, [pc, #160]	; 800a324 <__ieee754_asinf+0x1a8>
 800a284:	eee7 6a27 	vfma.f32	s13, s14, s15
 800a288:	ed9f 7a27 	vldr	s14, [pc, #156]	; 800a328 <__ieee754_asinf+0x1ac>
 800a28c:	eea6 7aa7 	vfma.f32	s14, s13, s15
 800a290:	eddf 6a26 	vldr	s13, [pc, #152]	; 800a32c <__ieee754_asinf+0x1b0>
 800a294:	eee7 6a27 	vfma.f32	s13, s14, s15
 800a298:	ed9f 7a21 	vldr	s14, [pc, #132]	; 800a320 <__ieee754_asinf+0x1a4>
 800a29c:	eea6 7aa7 	vfma.f32	s14, s13, s15
 800a2a0:	eddf 6a24 	vldr	s13, [pc, #144]	; 800a334 <__ieee754_asinf+0x1b8>
 800a2a4:	eee7 6a86 	vfma.f32	s13, s15, s12
 800a2a8:	ed9f 6a23 	vldr	s12, [pc, #140]	; 800a338 <__ieee754_asinf+0x1bc>
 800a2ac:	eea6 6aa7 	vfma.f32	s12, s13, s15
 800a2b0:	eddf 6a22 	vldr	s13, [pc, #136]	; 800a33c <__ieee754_asinf+0x1c0>
 800a2b4:	eee6 6a27 	vfma.f32	s13, s12, s15
 800a2b8:	ee27 7a27 	vmul.f32	s14, s14, s15
 800a2bc:	eee6 8aa7 	vfma.f32	s17, s13, s15
 800a2c0:	eec7 7a28 	vdiv.f32	s15, s14, s17
 800a2c4:	eea0 0a27 	vfma.f32	s0, s0, s15
 800a2c8:	e76c      	b.n	800a1a4 <__ieee754_asinf+0x28>
 800a2ca:	ee10 3a10 	vmov	r3, s0
 800a2ce:	f423 637f 	bic.w	r3, r3, #4080	; 0xff0
 800a2d2:	f023 030f 	bic.w	r3, r3, #15
 800a2d6:	ee07 3a90 	vmov	s15, r3
 800a2da:	eef1 6a67 	vneg.f32	s13, s15
 800a2de:	eea6 8aa7 	vfma.f32	s16, s13, s15
 800a2e2:	ee70 5a00 	vadd.f32	s11, s0, s0
 800a2e6:	ee37 0a80 	vadd.f32	s0, s15, s0
 800a2ea:	eddf 7a08 	vldr	s15, [pc, #32]	; 800a30c <__ieee754_asinf+0x190>
 800a2ee:	ee88 5a00 	vdiv.f32	s10, s16, s0
 800a2f2:	ed9f 0a15 	vldr	s0, [pc, #84]	; 800a348 <__ieee754_asinf+0x1cc>
 800a2f6:	eee5 7a47 	vfms.f32	s15, s10, s14
 800a2fa:	eed5 7a86 	vfnms.f32	s15, s11, s12
 800a2fe:	eeb0 6a40 	vmov.f32	s12, s0
 800a302:	eea6 6a87 	vfma.f32	s12, s13, s14
 800a306:	ee77 7ac6 	vsub.f32	s15, s15, s12
 800a30a:	e7a8      	b.n	800a25e <__ieee754_asinf+0xe2>
 800a30c:	b33bbd2e 	.word	0xb33bbd2e
 800a310:	3fc90fdb 	.word	0x3fc90fdb
 800a314:	7149f2ca 	.word	0x7149f2ca
 800a318:	3811ef08 	.word	0x3811ef08
 800a31c:	3a4f7f04 	.word	0x3a4f7f04
 800a320:	3e2aaaab 	.word	0x3e2aaaab
 800a324:	bd241146 	.word	0xbd241146
 800a328:	3e4e0aa8 	.word	0x3e4e0aa8
 800a32c:	bea6b090 	.word	0xbea6b090
 800a330:	3d9dc62e 	.word	0x3d9dc62e
 800a334:	bf303361 	.word	0xbf303361
 800a338:	4001572d 	.word	0x4001572d
 800a33c:	c019d139 	.word	0xc019d139
 800a340:	3f799999 	.word	0x3f799999
 800a344:	333bbd2e 	.word	0x333bbd2e
 800a348:	3f490fdb 	.word	0x3f490fdb

0800a34c <__ieee754_atanhf>:
 800a34c:	b510      	push	{r4, lr}
 800a34e:	ee10 4a10 	vmov	r4, s0
 800a352:	f024 4300 	bic.w	r3, r4, #2147483648	; 0x80000000
 800a356:	f1b3 5f7e 	cmp.w	r3, #1065353216	; 0x3f800000
 800a35a:	ed2d 8b02 	vpush	{d8}
 800a35e:	dd06      	ble.n	800a36e <__ieee754_atanhf+0x22>
 800a360:	ee70 7a40 	vsub.f32	s15, s0, s0
 800a364:	ee87 0aa7 	vdiv.f32	s0, s15, s15
 800a368:	ecbd 8b02 	vpop	{d8}
 800a36c:	bd10      	pop	{r4, pc}
 800a36e:	d104      	bne.n	800a37a <__ieee754_atanhf+0x2e>
 800a370:	eddf 7a17 	vldr	s15, [pc, #92]	; 800a3d0 <__ieee754_atanhf+0x84>
 800a374:	ee80 0a27 	vdiv.f32	s0, s0, s15
 800a378:	e7f6      	b.n	800a368 <__ieee754_atanhf+0x1c>
 800a37a:	f1b3 5f46 	cmp.w	r3, #830472192	; 0x31800000
 800a37e:	da08      	bge.n	800a392 <__ieee754_atanhf+0x46>
 800a380:	eddf 7a14 	vldr	s15, [pc, #80]	; 800a3d4 <__ieee754_atanhf+0x88>
 800a384:	ee70 7a27 	vadd.f32	s15, s0, s15
 800a388:	eef5 7ac0 	vcmpe.f32	s15, #0.0
 800a38c:	eef1 fa10 	vmrs	APSR_nzcv, fpscr
 800a390:	dcea      	bgt.n	800a368 <__ieee754_atanhf+0x1c>
 800a392:	ee07 3a90 	vmov	s15, r3
 800a396:	ee37 0aa7 	vadd.f32	s0, s15, s15
 800a39a:	f1b3 5f7c 	cmp.w	r3, #1056964608	; 0x3f000000
 800a39e:	eeb7 7a00 	vmov.f32	s14, #112	; 0x3f800000  1.0
 800a3a2:	ee37 7a67 	vsub.f32	s14, s14, s15
 800a3a6:	bfb6      	itet	lt
 800a3a8:	ee60 7a27 	vmullt.f32	s15, s0, s15
 800a3ac:	ee80 0a07 	vdivge.f32	s0, s0, s14
 800a3b0:	eec7 6a87 	vdivlt.f32	s13, s15, s14
 800a3b4:	eeb6 8a00 	vmov.f32	s16, #96	; 0x3f000000  0.5
 800a3b8:	bfb8      	it	lt
 800a3ba:	ee36 0a80 	vaddlt.f32	s0, s13, s0
 800a3be:	f7fe feb9 	bl	8009134 <log1pf>
 800a3c2:	ee20 0a08 	vmul.f32	s0, s0, s16
 800a3c6:	2c00      	cmp	r4, #0
 800a3c8:	bfb8      	it	lt
 800a3ca:	eeb1 0a40 	vneglt.f32	s0, s0
 800a3ce:	e7cb      	b.n	800a368 <__ieee754_atanhf+0x1c>
 800a3d0:	00000000 	.word	0x00000000
 800a3d4:	7149f2ca 	.word	0x7149f2ca

0800a3d8 <__ieee754_coshf>:
 800a3d8:	b510      	push	{r4, lr}
 800a3da:	ee10 4a10 	vmov	r4, s0
 800a3de:	f024 4400 	bic.w	r4, r4, #2147483648	; 0x80000000
 800a3e2:	f1b4 4fff 	cmp.w	r4, #2139095040	; 0x7f800000
 800a3e6:	ed2d 8b02 	vpush	{d8}
 800a3ea:	db04      	blt.n	800a3f6 <__ieee754_coshf+0x1e>
 800a3ec:	ee20 0a00 	vmul.f32	s0, s0, s0
 800a3f0:	ecbd 8b02 	vpop	{d8}
 800a3f4:	bd10      	pop	{r4, pc}
 800a3f6:	4b25      	ldr	r3, [pc, #148]	; (800a48c <__ieee754_coshf+0xb4>)
 800a3f8:	429c      	cmp	r4, r3
 800a3fa:	dc15      	bgt.n	800a428 <__ieee754_coshf+0x50>
 800a3fc:	f7fe fe50 	bl	80090a0 <fabsf>
 800a400:	f001 fb0e 	bl	800ba20 <expm1f>
 800a404:	eeb7 7a00 	vmov.f32	s14, #112	; 0x3f800000  1.0
 800a408:	f1b4 5f10 	cmp.w	r4, #603979776	; 0x24000000
 800a40c:	eef0 7a40 	vmov.f32	s15, s0
 800a410:	ee30 0a07 	vadd.f32	s0, s0, s14
 800a414:	dbec      	blt.n	800a3f0 <__ieee754_coshf+0x18>
 800a416:	ee30 0a00 	vadd.f32	s0, s0, s0
 800a41a:	ee67 7aa7 	vmul.f32	s15, s15, s15
 800a41e:	eec7 6a80 	vdiv.f32	s13, s15, s0
 800a422:	ee36 0a87 	vadd.f32	s0, s13, s14
 800a426:	e7e3      	b.n	800a3f0 <__ieee754_coshf+0x18>
 800a428:	4b19      	ldr	r3, [pc, #100]	; (800a490 <__ieee754_coshf+0xb8>)
 800a42a:	429c      	cmp	r4, r3
 800a42c:	dc0c      	bgt.n	800a448 <__ieee754_coshf+0x70>
 800a42e:	f7fe fe37 	bl	80090a0 <fabsf>
 800a432:	f000 f835 	bl	800a4a0 <__ieee754_expf>
 800a436:	eeb6 7a00 	vmov.f32	s14, #96	; 0x3f000000  0.5
 800a43a:	eec7 7a00 	vdiv.f32	s15, s14, s0
 800a43e:	eee0 7a07 	vfma.f32	s15, s0, s14
 800a442:	eeb0 0a67 	vmov.f32	s0, s15
 800a446:	e7d3      	b.n	800a3f0 <__ieee754_coshf+0x18>
 800a448:	4b12      	ldr	r3, [pc, #72]	; (800a494 <__ieee754_coshf+0xbc>)
 800a44a:	429c      	cmp	r4, r3
 800a44c:	dc08      	bgt.n	800a460 <__ieee754_coshf+0x88>
 800a44e:	f7fe fe27 	bl	80090a0 <fabsf>
 800a452:	f000 f825 	bl	800a4a0 <__ieee754_expf>
 800a456:	eef6 7a00 	vmov.f32	s15, #96	; 0x3f000000  0.5
 800a45a:	ee20 0a27 	vmul.f32	s0, s0, s15
 800a45e:	e7c7      	b.n	800a3f0 <__ieee754_coshf+0x18>
 800a460:	4b0d      	ldr	r3, [pc, #52]	; (800a498 <__ieee754_coshf+0xc0>)
 800a462:	429c      	cmp	r4, r3
 800a464:	dc0c      	bgt.n	800a480 <__ieee754_coshf+0xa8>
 800a466:	f7fe fe1b 	bl	80090a0 <fabsf>
 800a46a:	eeb6 8a00 	vmov.f32	s16, #96	; 0x3f000000  0.5
 800a46e:	ee20 0a08 	vmul.f32	s0, s0, s16
 800a472:	f000 f815 	bl	800a4a0 <__ieee754_expf>
 800a476:	ee20 8a08 	vmul.f32	s16, s0, s16
 800a47a:	ee28 0a00 	vmul.f32	s0, s16, s0
 800a47e:	e7b7      	b.n	800a3f0 <__ieee754_coshf+0x18>
 800a480:	ed9f 0a06 	vldr	s0, [pc, #24]	; 800a49c <__ieee754_coshf+0xc4>
 800a484:	ee20 0a00 	vmul.f32	s0, s0, s0
 800a488:	e7b2      	b.n	800a3f0 <__ieee754_coshf+0x18>
 800a48a:	bf00      	nop
 800a48c:	3eb17217 	.word	0x3eb17217
 800a490:	41afffff 	.word	0x41afffff
 800a494:	42b17217 	.word	0x42b17217
 800a498:	42b2d4fc 	.word	0x42b2d4fc
 800a49c:	7149f2ca 	.word	0x7149f2ca

0800a4a0 <__ieee754_expf>:
 800a4a0:	ee10 2a10 	vmov	r2, s0
 800a4a4:	f022 4100 	bic.w	r1, r2, #2147483648	; 0x80000000
 800a4a8:	f1b1 4fff 	cmp.w	r1, #2139095040	; 0x7f800000
 800a4ac:	d902      	bls.n	800a4b4 <__ieee754_expf+0x14>
 800a4ae:	ee30 0a00 	vadd.f32	s0, s0, s0
 800a4b2:	4770      	bx	lr
 800a4b4:	ea4f 73d2 	mov.w	r3, r2, lsr #31
 800a4b8:	d106      	bne.n	800a4c8 <__ieee754_expf+0x28>
 800a4ba:	eddf 7a51 	vldr	s15, [pc, #324]	; 800a600 <__ieee754_expf+0x160>
 800a4be:	2b00      	cmp	r3, #0
 800a4c0:	bf18      	it	ne
 800a4c2:	eeb0 0a67 	vmovne.f32	s0, s15
 800a4c6:	4770      	bx	lr
 800a4c8:	484e      	ldr	r0, [pc, #312]	; (800a604 <__ieee754_expf+0x164>)
 800a4ca:	4282      	cmp	r2, r0
 800a4cc:	dd04      	ble.n	800a4d8 <__ieee754_expf+0x38>
 800a4ce:	ed9f 0a4e 	vldr	s0, [pc, #312]	; 800a608 <__ieee754_expf+0x168>
 800a4d2:	ee20 0a00 	vmul.f32	s0, s0, s0
 800a4d6:	4770      	bx	lr
 800a4d8:	2a00      	cmp	r2, #0
 800a4da:	da03      	bge.n	800a4e4 <__ieee754_expf+0x44>
 800a4dc:	4a4b      	ldr	r2, [pc, #300]	; (800a60c <__ieee754_expf+0x16c>)
 800a4de:	4291      	cmp	r1, r2
 800a4e0:	f200 808a 	bhi.w	800a5f8 <__ieee754_expf+0x158>
 800a4e4:	4a4a      	ldr	r2, [pc, #296]	; (800a610 <__ieee754_expf+0x170>)
 800a4e6:	4291      	cmp	r1, r2
 800a4e8:	eeb7 6a00 	vmov.f32	s12, #112	; 0x3f800000  1.0
 800a4ec:	d954      	bls.n	800a598 <__ieee754_expf+0xf8>
 800a4ee:	4a49      	ldr	r2, [pc, #292]	; (800a614 <__ieee754_expf+0x174>)
 800a4f0:	4291      	cmp	r1, r2
 800a4f2:	ea4f 0283 	mov.w	r2, r3, lsl #2
 800a4f6:	d836      	bhi.n	800a566 <__ieee754_expf+0xc6>
 800a4f8:	4947      	ldr	r1, [pc, #284]	; (800a618 <__ieee754_expf+0x178>)
 800a4fa:	4411      	add	r1, r2
 800a4fc:	ed91 7a00 	vldr	s14, [r1]
 800a500:	4946      	ldr	r1, [pc, #280]	; (800a61c <__ieee754_expf+0x17c>)
 800a502:	440a      	add	r2, r1
 800a504:	edd2 7a00 	vldr	s15, [r2]
 800a508:	ee30 7a47 	vsub.f32	s14, s0, s14
 800a50c:	f1c3 0201 	rsb	r2, r3, #1
 800a510:	1ad2      	subs	r2, r2, r3
 800a512:	ee37 0a67 	vsub.f32	s0, s14, s15
 800a516:	ee60 6a00 	vmul.f32	s13, s0, s0
 800a51a:	eddf 5a41 	vldr	s11, [pc, #260]	; 800a620 <__ieee754_expf+0x180>
 800a51e:	ed9f 5a41 	vldr	s10, [pc, #260]	; 800a624 <__ieee754_expf+0x184>
 800a522:	eea6 5aa5 	vfma.f32	s10, s13, s11
 800a526:	eddf 5a40 	vldr	s11, [pc, #256]	; 800a628 <__ieee754_expf+0x188>
 800a52a:	eee5 5a26 	vfma.f32	s11, s10, s13
 800a52e:	ed9f 5a3f 	vldr	s10, [pc, #252]	; 800a62c <__ieee754_expf+0x18c>
 800a532:	eea5 5aa6 	vfma.f32	s10, s11, s13
 800a536:	eddf 5a3e 	vldr	s11, [pc, #248]	; 800a630 <__ieee754_expf+0x190>
 800a53a:	eee5 5a26 	vfma.f32	s11, s10, s13
 800a53e:	eeb0 5a40 	vmov.f32	s10, s0
 800a542:	eea5 5ae6 	vfms.f32	s10, s11, s13
 800a546:	eef0 5a00 	vmov.f32	s11, #0	; 0x40000000  2.0
 800a54a:	eef0 6a45 	vmov.f32	s13, s10
 800a54e:	ee20 5a05 	vmul.f32	s10, s0, s10
 800a552:	bb92      	cbnz	r2, 800a5ba <__ieee754_expf+0x11a>
 800a554:	ee76 6ae5 	vsub.f32	s13, s13, s11
 800a558:	eec5 7a26 	vdiv.f32	s15, s10, s13
 800a55c:	ee37 0ac0 	vsub.f32	s0, s15, s0
 800a560:	ee36 0a40 	vsub.f32	s0, s12, s0
 800a564:	4770      	bx	lr
 800a566:	4b33      	ldr	r3, [pc, #204]	; (800a634 <__ieee754_expf+0x194>)
 800a568:	ed9f 7a33 	vldr	s14, [pc, #204]	; 800a638 <__ieee754_expf+0x198>
 800a56c:	4413      	add	r3, r2
 800a56e:	edd3 7a00 	vldr	s15, [r3]
 800a572:	eee0 7a07 	vfma.f32	s15, s0, s14
 800a576:	ed9f 7a31 	vldr	s14, [pc, #196]	; 800a63c <__ieee754_expf+0x19c>
 800a57a:	eefd 7ae7 	vcvt.s32.f32	s15, s15
 800a57e:	ee17 2a90 	vmov	r2, s15
 800a582:	eef8 7ae7 	vcvt.f32.s32	s15, s15
 800a586:	eea7 0ac7 	vfms.f32	s0, s15, s14
 800a58a:	eeb0 7a40 	vmov.f32	s14, s0
 800a58e:	ed9f 0a2c 	vldr	s0, [pc, #176]	; 800a640 <__ieee754_expf+0x1a0>
 800a592:	ee67 7a80 	vmul.f32	s15, s15, s0
 800a596:	e7bc      	b.n	800a512 <__ieee754_expf+0x72>
 800a598:	f1b1 5f46 	cmp.w	r1, #830472192	; 0x31800000
 800a59c:	d20b      	bcs.n	800a5b6 <__ieee754_expf+0x116>
 800a59e:	eddf 6a1a 	vldr	s13, [pc, #104]	; 800a608 <__ieee754_expf+0x168>
 800a5a2:	ee70 6a26 	vadd.f32	s13, s0, s13
 800a5a6:	eef4 6ac6 	vcmpe.f32	s13, s12
 800a5aa:	eef1 fa10 	vmrs	APSR_nzcv, fpscr
 800a5ae:	dd02      	ble.n	800a5b6 <__ieee754_expf+0x116>
 800a5b0:	ee30 0a06 	vadd.f32	s0, s0, s12
 800a5b4:	4770      	bx	lr
 800a5b6:	2200      	movs	r2, #0
 800a5b8:	e7ad      	b.n	800a516 <__ieee754_expf+0x76>
 800a5ba:	ee75 6ae6 	vsub.f32	s13, s11, s13
 800a5be:	f112 0f7d 	cmn.w	r2, #125	; 0x7d
 800a5c2:	ee85 0a26 	vdiv.f32	s0, s10, s13
 800a5c6:	bfb8      	it	lt
 800a5c8:	3264      	addlt	r2, #100	; 0x64
 800a5ca:	ee77 7ac0 	vsub.f32	s15, s15, s0
 800a5ce:	ee37 0ac7 	vsub.f32	s0, s15, s14
 800a5d2:	ee76 7a40 	vsub.f32	s15, s12, s0
 800a5d6:	ee17 3a90 	vmov	r3, s15
 800a5da:	bfab      	itete	ge
 800a5dc:	eb03 53c2 	addge.w	r3, r3, r2, lsl #23
 800a5e0:	eb03 53c2 	addlt.w	r3, r3, r2, lsl #23
 800a5e4:	ee00 3a10 	vmovge	s0, r3
 800a5e8:	eddf 7a16 	vldrlt	s15, [pc, #88]	; 800a644 <__ieee754_expf+0x1a4>
 800a5ec:	bfbc      	itt	lt
 800a5ee:	ee00 3a10 	vmovlt	s0, r3
 800a5f2:	ee20 0a27 	vmullt.f32	s0, s0, s15
 800a5f6:	4770      	bx	lr
 800a5f8:	ed9f 0a01 	vldr	s0, [pc, #4]	; 800a600 <__ieee754_expf+0x160>
 800a5fc:	4770      	bx	lr
 800a5fe:	bf00      	nop
 800a600:	00000000 	.word	0x00000000
 800a604:	42b17217 	.word	0x42b17217
 800a608:	7149f2ca 	.word	0x7149f2ca
 800a60c:	42cff1b5 	.word	0x42cff1b5
 800a610:	3eb17218 	.word	0x3eb17218
 800a614:	3f851591 	.word	0x3f851591
 800a618:	08033880 	.word	0x08033880
 800a61c:	08033888 	.word	0x08033888
 800a620:	3331bb4c 	.word	0x3331bb4c
 800a624:	b5ddea0e 	.word	0xb5ddea0e
 800a628:	388ab355 	.word	0x388ab355
 800a62c:	bb360b61 	.word	0xbb360b61
 800a630:	3e2aaaab 	.word	0x3e2aaaab
 800a634:	08033878 	.word	0x08033878
 800a638:	3fb8aa3b 	.word	0x3fb8aa3b
 800a63c:	3f317180 	.word	0x3f317180
 800a640:	3717f7d1 	.word	0x3717f7d1
 800a644:	0d800000 	.word	0x0d800000

0800a648 <__ieee754_fmodf>:
 800a648:	b5f0      	push	{r4, r5, r6, r7, lr}
 800a64a:	ee10 6a90 	vmov	r6, s1
 800a64e:	f036 4500 	bics.w	r5, r6, #2147483648	; 0x80000000
 800a652:	ee10 3a10 	vmov	r3, s0
 800a656:	d009      	beq.n	800a66c <__ieee754_fmodf+0x24>
 800a658:	f023 4100 	bic.w	r1, r3, #2147483648	; 0x80000000
 800a65c:	f1b1 4fff 	cmp.w	r1, #2139095040	; 0x7f800000
 800a660:	ee10 7a10 	vmov	r7, s0
 800a664:	da02      	bge.n	800a66c <__ieee754_fmodf+0x24>
 800a666:	f1b5 4fff 	cmp.w	r5, #2139095040	; 0x7f800000
 800a66a:	dd0a      	ble.n	800a682 <__ieee754_fmodf+0x3a>
 800a66c:	ee07 3a90 	vmov	s15, r3
 800a670:	ee67 0aa0 	vmul.f32	s1, s15, s1
 800a674:	eec0 7aa0 	vdiv.f32	s15, s1, s1
 800a678:	ee17 3a90 	vmov	r3, s15
 800a67c:	ee00 3a10 	vmov	s0, r3
 800a680:	bdf0      	pop	{r4, r5, r6, r7, pc}
 800a682:	42a9      	cmp	r1, r5
 800a684:	dbfa      	blt.n	800a67c <__ieee754_fmodf+0x34>
 800a686:	f003 4400 	and.w	r4, r3, #2147483648	; 0x80000000
 800a68a:	d105      	bne.n	800a698 <__ieee754_fmodf+0x50>
 800a68c:	4a30      	ldr	r2, [pc, #192]	; (800a750 <__ieee754_fmodf+0x108>)
 800a68e:	0fe3      	lsrs	r3, r4, #31
 800a690:	eb02 0383 	add.w	r3, r2, r3, lsl #2
 800a694:	681b      	ldr	r3, [r3, #0]
 800a696:	e7f1      	b.n	800a67c <__ieee754_fmodf+0x34>
 800a698:	4b2e      	ldr	r3, [pc, #184]	; (800a754 <__ieee754_fmodf+0x10c>)
 800a69a:	4299      	cmp	r1, r3
 800a69c:	dc3e      	bgt.n	800a71c <__ieee754_fmodf+0xd4>
 800a69e:	020a      	lsls	r2, r1, #8
 800a6a0:	f06f 007d 	mvn.w	r0, #125	; 0x7d
 800a6a4:	2a00      	cmp	r2, #0
 800a6a6:	dc36      	bgt.n	800a716 <__ieee754_fmodf+0xce>
 800a6a8:	429d      	cmp	r5, r3
 800a6aa:	dc3a      	bgt.n	800a722 <__ieee754_fmodf+0xda>
 800a6ac:	022b      	lsls	r3, r5, #8
 800a6ae:	f06f 027d 	mvn.w	r2, #125	; 0x7d
 800a6b2:	005b      	lsls	r3, r3, #1
 800a6b4:	f102 32ff 	add.w	r2, r2, #4294967295
 800a6b8:	d5fb      	bpl.n	800a6b2 <__ieee754_fmodf+0x6a>
 800a6ba:	f110 0f7e 	cmn.w	r0, #126	; 0x7e
 800a6be:	bfbb      	ittet	lt
 800a6c0:	f06f 037d 	mvnlt.w	r3, #125	; 0x7d
 800a6c4:	1a1b      	sublt	r3, r3, r0
 800a6c6:	f3c7 0116 	ubfxge	r1, r7, #0, #23
 800a6ca:	4099      	lsllt	r1, r3
 800a6cc:	bfa8      	it	ge
 800a6ce:	f441 0100 	orrge.w	r1, r1, #8388608	; 0x800000
 800a6d2:	f112 0f7e 	cmn.w	r2, #126	; 0x7e
 800a6d6:	bfb5      	itete	lt
 800a6d8:	f06f 037d 	mvnlt.w	r3, #125	; 0x7d
 800a6dc:	f3c6 0516 	ubfxge	r5, r6, #0, #23
 800a6e0:	1a9b      	sublt	r3, r3, r2
 800a6e2:	f445 0500 	orrge.w	r5, r5, #8388608	; 0x800000
 800a6e6:	bfb8      	it	lt
 800a6e8:	409d      	lsllt	r5, r3
 800a6ea:	1a80      	subs	r0, r0, r2
 800a6ec:	1b4b      	subs	r3, r1, r5
 800a6ee:	b9d8      	cbnz	r0, 800a728 <__ieee754_fmodf+0xe0>
 800a6f0:	ea33 0323 	bics.w	r3, r3, r3, asr #32
 800a6f4:	bf28      	it	cs
 800a6f6:	460b      	movcs	r3, r1
 800a6f8:	2b00      	cmp	r3, #0
 800a6fa:	d0c7      	beq.n	800a68c <__ieee754_fmodf+0x44>
 800a6fc:	4915      	ldr	r1, [pc, #84]	; (800a754 <__ieee754_fmodf+0x10c>)
 800a6fe:	428b      	cmp	r3, r1
 800a700:	dd1a      	ble.n	800a738 <__ieee754_fmodf+0xf0>
 800a702:	f112 0f7e 	cmn.w	r2, #126	; 0x7e
 800a706:	db1a      	blt.n	800a73e <__ieee754_fmodf+0xf6>
 800a708:	f5a3 0300 	sub.w	r3, r3, #8388608	; 0x800000
 800a70c:	4323      	orrs	r3, r4
 800a70e:	327f      	adds	r2, #127	; 0x7f
 800a710:	ea43 53c2 	orr.w	r3, r3, r2, lsl #23
 800a714:	e7b2      	b.n	800a67c <__ieee754_fmodf+0x34>
 800a716:	3801      	subs	r0, #1
 800a718:	0052      	lsls	r2, r2, #1
 800a71a:	e7c3      	b.n	800a6a4 <__ieee754_fmodf+0x5c>
 800a71c:	15c8      	asrs	r0, r1, #23
 800a71e:	387f      	subs	r0, #127	; 0x7f
 800a720:	e7c2      	b.n	800a6a8 <__ieee754_fmodf+0x60>
 800a722:	15ea      	asrs	r2, r5, #23
 800a724:	3a7f      	subs	r2, #127	; 0x7f
 800a726:	e7c8      	b.n	800a6ba <__ieee754_fmodf+0x72>
 800a728:	2b00      	cmp	r3, #0
 800a72a:	da02      	bge.n	800a732 <__ieee754_fmodf+0xea>
 800a72c:	0049      	lsls	r1, r1, #1
 800a72e:	3801      	subs	r0, #1
 800a730:	e7dc      	b.n	800a6ec <__ieee754_fmodf+0xa4>
 800a732:	d0ab      	beq.n	800a68c <__ieee754_fmodf+0x44>
 800a734:	0059      	lsls	r1, r3, #1
 800a736:	e7fa      	b.n	800a72e <__ieee754_fmodf+0xe6>
 800a738:	005b      	lsls	r3, r3, #1
 800a73a:	3a01      	subs	r2, #1
 800a73c:	e7df      	b.n	800a6fe <__ieee754_fmodf+0xb6>
 800a73e:	f1c2 22ff 	rsb	r2, r2, #4278255360	; 0xff00ff00
 800a742:	f502 027f 	add.w	r2, r2, #16711680	; 0xff0000
 800a746:	3282      	adds	r2, #130	; 0x82
 800a748:	4113      	asrs	r3, r2
 800a74a:	4323      	orrs	r3, r4
 800a74c:	e796      	b.n	800a67c <__ieee754_fmodf+0x34>
 800a74e:	bf00      	nop
 800a750:	08033890 	.word	0x08033890
 800a754:	007fffff 	.word	0x007fffff

0800a758 <__ieee754_logf>:
 800a758:	ee10 3a10 	vmov	r3, s0
 800a75c:	f033 4200 	bics.w	r2, r3, #2147483648	; 0x80000000
 800a760:	d106      	bne.n	800a770 <__ieee754_logf+0x18>
 800a762:	ed9f 7a65 	vldr	s14, [pc, #404]	; 800a8f8 <__ieee754_logf+0x1a0>
 800a766:	eddf 7a65 	vldr	s15, [pc, #404]	; 800a8fc <__ieee754_logf+0x1a4>
 800a76a:	ee87 0a27 	vdiv.f32	s0, s14, s15
 800a76e:	4770      	bx	lr
 800a770:	2b00      	cmp	r3, #0
 800a772:	da02      	bge.n	800a77a <__ieee754_logf+0x22>
 800a774:	ee30 7a40 	vsub.f32	s14, s0, s0
 800a778:	e7f5      	b.n	800a766 <__ieee754_logf+0xe>
 800a77a:	f1b3 4fff 	cmp.w	r3, #2139095040	; 0x7f800000
 800a77e:	db02      	blt.n	800a786 <__ieee754_logf+0x2e>
 800a780:	ee30 0a00 	vadd.f32	s0, s0, s0
 800a784:	4770      	bx	lr
 800a786:	f5b3 0f00 	cmp.w	r3, #8388608	; 0x800000
 800a78a:	bfbf      	itttt	lt
 800a78c:	eddf 7a5c 	vldrlt	s15, [pc, #368]	; 800a900 <__ieee754_logf+0x1a8>
 800a790:	ee60 7a27 	vmullt.f32	s15, s0, s15
 800a794:	f06f 0118 	mvnlt.w	r1, #24
 800a798:	ee17 3a90 	vmovlt	r3, s15
 800a79c:	ea4f 52e3 	mov.w	r2, r3, asr #23
 800a7a0:	bfa8      	it	ge
 800a7a2:	2100      	movge	r1, #0
 800a7a4:	3a7f      	subs	r2, #127	; 0x7f
 800a7a6:	440a      	add	r2, r1
 800a7a8:	4956      	ldr	r1, [pc, #344]	; (800a904 <__ieee754_logf+0x1ac>)
 800a7aa:	f3c3 0316 	ubfx	r3, r3, #0, #23
 800a7ae:	4419      	add	r1, r3
 800a7b0:	f401 0100 	and.w	r1, r1, #8388608	; 0x800000
 800a7b4:	eb02 52d1 	add.w	r2, r2, r1, lsr #23
 800a7b8:	f081 517e 	eor.w	r1, r1, #1065353216	; 0x3f800000
 800a7bc:	4319      	orrs	r1, r3
 800a7be:	ee07 1a90 	vmov	s15, r1
 800a7c2:	f103 010f 	add.w	r1, r3, #15
 800a7c6:	f3c1 0116 	ubfx	r1, r1, #0, #23
 800a7ca:	eeb7 0a00 	vmov.f32	s0, #112	; 0x3f800000  1.0
 800a7ce:	290f      	cmp	r1, #15
 800a7d0:	ee37 0ac0 	vsub.f32	s0, s15, s0
 800a7d4:	dc31      	bgt.n	800a83a <__ieee754_logf+0xe2>
 800a7d6:	eeb5 0a40 	vcmp.f32	s0, #0.0
 800a7da:	eef1 fa10 	vmrs	APSR_nzcv, fpscr
 800a7de:	d10f      	bne.n	800a800 <__ieee754_logf+0xa8>
 800a7e0:	2a00      	cmp	r2, #0
 800a7e2:	f000 8085 	beq.w	800a8f0 <__ieee754_logf+0x198>
 800a7e6:	ee07 2a90 	vmov	s15, r2
 800a7ea:	ed9f 0a47 	vldr	s0, [pc, #284]	; 800a908 <__ieee754_logf+0x1b0>
 800a7ee:	ed9f 7a47 	vldr	s14, [pc, #284]	; 800a90c <__ieee754_logf+0x1b4>
 800a7f2:	eef8 7ae7 	vcvt.f32.s32	s15, s15
 800a7f6:	ee27 0a80 	vmul.f32	s0, s15, s0
 800a7fa:	eea7 0a87 	vfma.f32	s0, s15, s14
 800a7fe:	4770      	bx	lr
 800a800:	eddf 7a43 	vldr	s15, [pc, #268]	; 800a910 <__ieee754_logf+0x1b8>
 800a804:	eeb6 7a00 	vmov.f32	s14, #96	; 0x3f000000  0.5
 800a808:	eea0 7a67 	vfms.f32	s14, s0, s15
 800a80c:	ee60 7a00 	vmul.f32	s15, s0, s0
 800a810:	ee27 7a27 	vmul.f32	s14, s14, s15
 800a814:	b912      	cbnz	r2, 800a81c <__ieee754_logf+0xc4>
 800a816:	ee30 0a47 	vsub.f32	s0, s0, s14
 800a81a:	4770      	bx	lr
 800a81c:	ee07 2a90 	vmov	s15, r2
 800a820:	eddf 6a39 	vldr	s13, [pc, #228]	; 800a908 <__ieee754_logf+0x1b0>
 800a824:	eef8 7ae7 	vcvt.f32.s32	s15, s15
 800a828:	eea7 7ae6 	vfms.f32	s14, s15, s13
 800a82c:	ee37 0a40 	vsub.f32	s0, s14, s0
 800a830:	ed9f 7a36 	vldr	s14, [pc, #216]	; 800a90c <__ieee754_logf+0x1b4>
 800a834:	ee97 0a87 	vfnms.f32	s0, s15, s14
 800a838:	4770      	bx	lr
 800a83a:	eef0 7a00 	vmov.f32	s15, #0	; 0x40000000  2.0
 800a83e:	ee70 7a27 	vadd.f32	s15, s0, s15
 800a842:	eddf 5a34 	vldr	s11, [pc, #208]	; 800a914 <__ieee754_logf+0x1bc>
 800a846:	eddf 4a34 	vldr	s9, [pc, #208]	; 800a918 <__ieee754_logf+0x1c0>
 800a84a:	4934      	ldr	r1, [pc, #208]	; (800a91c <__ieee754_logf+0x1c4>)
 800a84c:	ee80 6a27 	vdiv.f32	s12, s0, s15
 800a850:	4419      	add	r1, r3
 800a852:	f5c3 1357 	rsb	r3, r3, #3522560	; 0x35c000
 800a856:	f503 7322 	add.w	r3, r3, #648	; 0x288
 800a85a:	430b      	orrs	r3, r1
 800a85c:	2b00      	cmp	r3, #0
 800a85e:	ee07 2a90 	vmov	s15, r2
 800a862:	ee26 5a06 	vmul.f32	s10, s12, s12
 800a866:	eef8 6ae7 	vcvt.f32.s32	s13, s15
 800a86a:	ee25 7a05 	vmul.f32	s14, s10, s10
 800a86e:	eddf 7a2c 	vldr	s15, [pc, #176]	; 800a920 <__ieee754_logf+0x1c8>
 800a872:	eee7 7a25 	vfma.f32	s15, s14, s11
 800a876:	eddf 5a2b 	vldr	s11, [pc, #172]	; 800a924 <__ieee754_logf+0x1cc>
 800a87a:	eee7 5a87 	vfma.f32	s11, s15, s14
 800a87e:	eddf 7a2a 	vldr	s15, [pc, #168]	; 800a928 <__ieee754_logf+0x1d0>
 800a882:	eee7 7a24 	vfma.f32	s15, s14, s9
 800a886:	eddf 4a29 	vldr	s9, [pc, #164]	; 800a92c <__ieee754_logf+0x1d4>
 800a88a:	eee7 4a87 	vfma.f32	s9, s15, s14
 800a88e:	eddf 7a28 	vldr	s15, [pc, #160]	; 800a930 <__ieee754_logf+0x1d8>
 800a892:	eee4 7a87 	vfma.f32	s15, s9, s14
 800a896:	ee67 7a85 	vmul.f32	s15, s15, s10
 800a89a:	eee5 7a87 	vfma.f32	s15, s11, s14
 800a89e:	dd1c      	ble.n	800a8da <__ieee754_logf+0x182>
 800a8a0:	eeb6 7a00 	vmov.f32	s14, #96	; 0x3f000000  0.5
 800a8a4:	ee20 7a07 	vmul.f32	s14, s0, s14
 800a8a8:	ee27 7a00 	vmul.f32	s14, s14, s0
 800a8ac:	ee77 7a87 	vadd.f32	s15, s15, s14
 800a8b0:	ee67 7a86 	vmul.f32	s15, s15, s12
 800a8b4:	b922      	cbnz	r2, 800a8c0 <__ieee754_logf+0x168>
 800a8b6:	ee77 7a67 	vsub.f32	s15, s14, s15
 800a8ba:	ee30 0a67 	vsub.f32	s0, s0, s15
 800a8be:	4770      	bx	lr
 800a8c0:	ed9f 6a11 	vldr	s12, [pc, #68]	; 800a908 <__ieee754_logf+0x1b0>
 800a8c4:	eee6 7a86 	vfma.f32	s15, s13, s12
 800a8c8:	ee77 7a67 	vsub.f32	s15, s14, s15
 800a8cc:	ee37 0ac0 	vsub.f32	s0, s15, s0
 800a8d0:	eddf 7a0e 	vldr	s15, [pc, #56]	; 800a90c <__ieee754_logf+0x1b4>
 800a8d4:	ee96 0aa7 	vfnms.f32	s0, s13, s15
 800a8d8:	4770      	bx	lr
 800a8da:	ee70 7a67 	vsub.f32	s15, s0, s15
 800a8de:	ee67 7a86 	vmul.f32	s15, s15, s12
 800a8e2:	2a00      	cmp	r2, #0
 800a8e4:	d0e9      	beq.n	800a8ba <__ieee754_logf+0x162>
 800a8e6:	ed9f 7a08 	vldr	s14, [pc, #32]	; 800a908 <__ieee754_logf+0x1b0>
 800a8ea:	eee6 7ac7 	vfms.f32	s15, s13, s14
 800a8ee:	e7ed      	b.n	800a8cc <__ieee754_logf+0x174>
 800a8f0:	ed9f 0a02 	vldr	s0, [pc, #8]	; 800a8fc <__ieee754_logf+0x1a4>
 800a8f4:	4770      	bx	lr
 800a8f6:	bf00      	nop
 800a8f8:	cc000000 	.word	0xcc000000
 800a8fc:	00000000 	.word	0x00000000
 800a900:	4c000000 	.word	0x4c000000
 800a904:	004afb20 	.word	0x004afb20
 800a908:	3717f7d1 	.word	0x3717f7d1
 800a90c:	3f317180 	.word	0x3f317180
 800a910:	3eaaaaab 	.word	0x3eaaaaab
 800a914:	3e1cd04f 	.word	0x3e1cd04f
 800a918:	3e178897 	.word	0x3e178897
 800a91c:	ffcf5c30 	.word	0xffcf5c30
 800a920:	3e638e29 	.word	0x3e638e29
 800a924:	3ecccccd 	.word	0x3ecccccd
 800a928:	3e3a3325 	.word	0x3e3a3325
 800a92c:	3e924925 	.word	0x3e924925
 800a930:	3f2aaaab 	.word	0x3f2aaaab

0800a934 <__ieee754_powf>:
 800a934:	e92d 41f0 	stmdb	sp!, {r4, r5, r6, r7, r8, lr}
 800a938:	ee10 5a90 	vmov	r5, s1
 800a93c:	f035 4700 	bics.w	r7, r5, #2147483648	; 0x80000000
 800a940:	ed2d 8b02 	vpush	{d8}
 800a944:	eeb0 8a40 	vmov.f32	s16, s0
 800a948:	eef0 8a60 	vmov.f32	s17, s1
 800a94c:	f000 8293 	beq.w	800ae76 <__ieee754_powf+0x542>
 800a950:	ee10 8a10 	vmov	r8, s0
 800a954:	f028 4400 	bic.w	r4, r8, #2147483648	; 0x80000000
 800a958:	f1b4 4fff 	cmp.w	r4, #2139095040	; 0x7f800000
 800a95c:	dc06      	bgt.n	800a96c <__ieee754_powf+0x38>
 800a95e:	f1b7 4fff 	cmp.w	r7, #2139095040	; 0x7f800000
 800a962:	dd0a      	ble.n	800a97a <__ieee754_powf+0x46>
 800a964:	f1b4 5f7e 	cmp.w	r4, #1065353216	; 0x3f800000
 800a968:	f000 8285 	beq.w	800ae76 <__ieee754_powf+0x542>
 800a96c:	ecbd 8b02 	vpop	{d8}
 800a970:	48d9      	ldr	r0, [pc, #868]	; (800acd8 <__ieee754_powf+0x3a4>)
 800a972:	e8bd 41f0 	ldmia.w	sp!, {r4, r5, r6, r7, r8, lr}
 800a976:	f001 b989 	b.w	800bc8c <nanf>
 800a97a:	f1b8 0f00 	cmp.w	r8, #0
 800a97e:	da1d      	bge.n	800a9bc <__ieee754_powf+0x88>
 800a980:	f1b7 4f97 	cmp.w	r7, #1266679808	; 0x4b800000
 800a984:	da2c      	bge.n	800a9e0 <__ieee754_powf+0xac>
 800a986:	f1b7 5f7e 	cmp.w	r7, #1065353216	; 0x3f800000
 800a98a:	db30      	blt.n	800a9ee <__ieee754_powf+0xba>
 800a98c:	15fb      	asrs	r3, r7, #23
 800a98e:	f1c3 0396 	rsb	r3, r3, #150	; 0x96
 800a992:	fa47 f603 	asr.w	r6, r7, r3
 800a996:	fa06 f303 	lsl.w	r3, r6, r3
 800a99a:	42bb      	cmp	r3, r7
 800a99c:	d127      	bne.n	800a9ee <__ieee754_powf+0xba>
 800a99e:	f006 0601 	and.w	r6, r6, #1
 800a9a2:	f1c6 0602 	rsb	r6, r6, #2
 800a9a6:	f1b7 5f7e 	cmp.w	r7, #1065353216	; 0x3f800000
 800a9aa:	d122      	bne.n	800a9f2 <__ieee754_powf+0xbe>
 800a9ac:	2d00      	cmp	r5, #0
 800a9ae:	f280 8268 	bge.w	800ae82 <__ieee754_powf+0x54e>
 800a9b2:	eef7 7a00 	vmov.f32	s15, #112	; 0x3f800000  1.0
 800a9b6:	ee87 0a88 	vdiv.f32	s0, s15, s16
 800a9ba:	e00d      	b.n	800a9d8 <__ieee754_powf+0xa4>
 800a9bc:	2600      	movs	r6, #0
 800a9be:	f1b7 4fff 	cmp.w	r7, #2139095040	; 0x7f800000
 800a9c2:	d1f0      	bne.n	800a9a6 <__ieee754_powf+0x72>
 800a9c4:	f1b4 5f7e 	cmp.w	r4, #1065353216	; 0x3f800000
 800a9c8:	f000 8255 	beq.w	800ae76 <__ieee754_powf+0x542>
 800a9cc:	dd0a      	ble.n	800a9e4 <__ieee754_powf+0xb0>
 800a9ce:	2d00      	cmp	r5, #0
 800a9d0:	f280 8254 	bge.w	800ae7c <__ieee754_powf+0x548>
 800a9d4:	ed9f 0ac1 	vldr	s0, [pc, #772]	; 800acdc <__ieee754_powf+0x3a8>
 800a9d8:	ecbd 8b02 	vpop	{d8}
 800a9dc:	e8bd 81f0 	ldmia.w	sp!, {r4, r5, r6, r7, r8, pc}
 800a9e0:	2602      	movs	r6, #2
 800a9e2:	e7ec      	b.n	800a9be <__ieee754_powf+0x8a>
 800a9e4:	2d00      	cmp	r5, #0
 800a9e6:	daf5      	bge.n	800a9d4 <__ieee754_powf+0xa0>
 800a9e8:	eeb1 0a68 	vneg.f32	s0, s17
 800a9ec:	e7f4      	b.n	800a9d8 <__ieee754_powf+0xa4>
 800a9ee:	2600      	movs	r6, #0
 800a9f0:	e7d9      	b.n	800a9a6 <__ieee754_powf+0x72>
 800a9f2:	f1b5 4f80 	cmp.w	r5, #1073741824	; 0x40000000
 800a9f6:	d102      	bne.n	800a9fe <__ieee754_powf+0xca>
 800a9f8:	ee28 0a08 	vmul.f32	s0, s16, s16
 800a9fc:	e7ec      	b.n	800a9d8 <__ieee754_powf+0xa4>
 800a9fe:	f1b5 5f7c 	cmp.w	r5, #1056964608	; 0x3f000000
 800aa02:	eeb0 0a48 	vmov.f32	s0, s16
 800aa06:	d108      	bne.n	800aa1a <__ieee754_powf+0xe6>
 800aa08:	f1b8 0f00 	cmp.w	r8, #0
 800aa0c:	db05      	blt.n	800aa1a <__ieee754_powf+0xe6>
 800aa0e:	ecbd 8b02 	vpop	{d8}
 800aa12:	e8bd 41f0 	ldmia.w	sp!, {r4, r5, r6, r7, r8, lr}
 800aa16:	f000 bbe7 	b.w	800b1e8 <__ieee754_sqrtf>
 800aa1a:	f7fe fb41 	bl	80090a0 <fabsf>
 800aa1e:	b124      	cbz	r4, 800aa2a <__ieee754_powf+0xf6>
 800aa20:	f028 4340 	bic.w	r3, r8, #3221225472	; 0xc0000000
 800aa24:	f1b3 5f7e 	cmp.w	r3, #1065353216	; 0x3f800000
 800aa28:	d117      	bne.n	800aa5a <__ieee754_powf+0x126>
 800aa2a:	2d00      	cmp	r5, #0
 800aa2c:	bfbc      	itt	lt
 800aa2e:	eef7 7a00 	vmovlt.f32	s15, #112	; 0x3f800000  1.0
 800aa32:	ee87 0a80 	vdivlt.f32	s0, s15, s0
 800aa36:	f1b8 0f00 	cmp.w	r8, #0
 800aa3a:	dacd      	bge.n	800a9d8 <__ieee754_powf+0xa4>
 800aa3c:	f1a4 547e 	sub.w	r4, r4, #1065353216	; 0x3f800000
 800aa40:	ea54 0306 	orrs.w	r3, r4, r6
 800aa44:	d104      	bne.n	800aa50 <__ieee754_powf+0x11c>
 800aa46:	ee70 7a40 	vsub.f32	s15, s0, s0
 800aa4a:	ee87 0aa7 	vdiv.f32	s0, s15, s15
 800aa4e:	e7c3      	b.n	800a9d8 <__ieee754_powf+0xa4>
 800aa50:	2e01      	cmp	r6, #1
 800aa52:	d1c1      	bne.n	800a9d8 <__ieee754_powf+0xa4>
 800aa54:	eeb1 0a40 	vneg.f32	s0, s0
 800aa58:	e7be      	b.n	800a9d8 <__ieee754_powf+0xa4>
 800aa5a:	ea4f 70d8 	mov.w	r0, r8, lsr #31
 800aa5e:	3801      	subs	r0, #1
 800aa60:	ea56 0300 	orrs.w	r3, r6, r0
 800aa64:	d104      	bne.n	800aa70 <__ieee754_powf+0x13c>
 800aa66:	ee38 8a48 	vsub.f32	s16, s16, s16
 800aa6a:	ee88 0a08 	vdiv.f32	s0, s16, s16
 800aa6e:	e7b3      	b.n	800a9d8 <__ieee754_powf+0xa4>
 800aa70:	f1b7 4f9a 	cmp.w	r7, #1291845632	; 0x4d000000
 800aa74:	dd6d      	ble.n	800ab52 <__ieee754_powf+0x21e>
 800aa76:	4b9a      	ldr	r3, [pc, #616]	; (800ace0 <__ieee754_powf+0x3ac>)
 800aa78:	429c      	cmp	r4, r3
 800aa7a:	dc06      	bgt.n	800aa8a <__ieee754_powf+0x156>
 800aa7c:	2d00      	cmp	r5, #0
 800aa7e:	daa9      	bge.n	800a9d4 <__ieee754_powf+0xa0>
 800aa80:	ed9f 0a98 	vldr	s0, [pc, #608]	; 800ace4 <__ieee754_powf+0x3b0>
 800aa84:	ee20 0a00 	vmul.f32	s0, s0, s0
 800aa88:	e7a6      	b.n	800a9d8 <__ieee754_powf+0xa4>
 800aa8a:	4b97      	ldr	r3, [pc, #604]	; (800ace8 <__ieee754_powf+0x3b4>)
 800aa8c:	429c      	cmp	r4, r3
 800aa8e:	dd02      	ble.n	800aa96 <__ieee754_powf+0x162>
 800aa90:	2d00      	cmp	r5, #0
 800aa92:	dcf5      	bgt.n	800aa80 <__ieee754_powf+0x14c>
 800aa94:	e79e      	b.n	800a9d4 <__ieee754_powf+0xa0>
 800aa96:	eef7 7a00 	vmov.f32	s15, #112	; 0x3f800000  1.0
 800aa9a:	ee30 0a67 	vsub.f32	s0, s0, s15
 800aa9e:	ed9f 7a93 	vldr	s14, [pc, #588]	; 800acec <__ieee754_powf+0x3b8>
 800aaa2:	eef1 6a40 	vneg.f32	s13, s0
 800aaa6:	eef5 7a00 	vmov.f32	s15, #80	; 0x3e800000  0.250
 800aaaa:	eea6 7aa7 	vfma.f32	s14, s13, s15
 800aaae:	eef6 7a00 	vmov.f32	s15, #96	; 0x3f000000  0.5
 800aab2:	eee7 7a40 	vfms.f32	s15, s14, s0
 800aab6:	ee60 0a00 	vmul.f32	s1, s0, s0
 800aaba:	ed9f 7a8d 	vldr	s14, [pc, #564]	; 800acf0 <__ieee754_powf+0x3bc>
 800aabe:	ee67 0aa0 	vmul.f32	s1, s15, s1
 800aac2:	eddf 7a8c 	vldr	s15, [pc, #560]	; 800acf4 <__ieee754_powf+0x3c0>
 800aac6:	ee67 7ae0 	vnmul.f32	s15, s15, s1
 800aaca:	eee0 7a07 	vfma.f32	s15, s0, s14
 800aace:	ed9f 7a8a 	vldr	s14, [pc, #552]	; 800acf8 <__ieee754_powf+0x3c4>
 800aad2:	eeb0 6a67 	vmov.f32	s12, s15
 800aad6:	eea0 6a07 	vfma.f32	s12, s0, s14
 800aada:	ee16 3a10 	vmov	r3, s12
 800aade:	f423 637f 	bic.w	r3, r3, #4080	; 0xff0
 800aae2:	f023 030f 	bic.w	r3, r3, #15
 800aae6:	ee00 3a90 	vmov	s1, r3
 800aaea:	eee6 0a87 	vfma.f32	s1, s13, s14
 800aaee:	ee77 7ae0 	vsub.f32	s15, s15, s1
 800aaf2:	f425 657f 	bic.w	r5, r5, #4080	; 0xff0
 800aaf6:	f025 050f 	bic.w	r5, r5, #15
 800aafa:	ee07 5a10 	vmov	s14, r5
 800aafe:	ee67 0aa8 	vmul.f32	s1, s15, s17
 800ab02:	ee38 7ac7 	vsub.f32	s14, s17, s14
 800ab06:	ee07 3a90 	vmov	s15, r3
 800ab0a:	eee7 0a27 	vfma.f32	s1, s14, s15
 800ab0e:	3e01      	subs	r6, #1
 800ab10:	ea56 0200 	orrs.w	r2, r6, r0
 800ab14:	ee07 5a10 	vmov	s14, r5
 800ab18:	ee67 7a87 	vmul.f32	s15, s15, s14
 800ab1c:	eeb7 8a00 	vmov.f32	s16, #112	; 0x3f800000  1.0
 800ab20:	ee30 7aa7 	vadd.f32	s14, s1, s15
 800ab24:	eebf 0a00 	vmov.f32	s0, #240	; 0xbf800000 -1.0
 800ab28:	ee17 4a10 	vmov	r4, s14
 800ab2c:	bf08      	it	eq
 800ab2e:	eeb0 8a40 	vmoveq.f32	s16, s0
 800ab32:	2c00      	cmp	r4, #0
 800ab34:	f024 4300 	bic.w	r3, r4, #2147483648	; 0x80000000
 800ab38:	f340 8184 	ble.w	800ae44 <__ieee754_powf+0x510>
 800ab3c:	f1b3 4f86 	cmp.w	r3, #1124073472	; 0x43000000
 800ab40:	f340 80fc 	ble.w	800ad3c <__ieee754_powf+0x408>
 800ab44:	eddf 7a67 	vldr	s15, [pc, #412]	; 800ace4 <__ieee754_powf+0x3b0>
 800ab48:	ee28 0a27 	vmul.f32	s0, s16, s15
 800ab4c:	ee20 0a27 	vmul.f32	s0, s0, s15
 800ab50:	e742      	b.n	800a9d8 <__ieee754_powf+0xa4>
 800ab52:	f5b4 0f00 	cmp.w	r4, #8388608	; 0x800000
 800ab56:	bfbf      	itttt	lt
 800ab58:	eddf 7a68 	vldrlt	s15, [pc, #416]	; 800acfc <__ieee754_powf+0x3c8>
 800ab5c:	ee60 7a27 	vmullt.f32	s15, s0, s15
 800ab60:	f06f 0217 	mvnlt.w	r2, #23
 800ab64:	ee17 4a90 	vmovlt	r4, s15
 800ab68:	ea4f 53e4 	mov.w	r3, r4, asr #23
 800ab6c:	bfa8      	it	ge
 800ab6e:	2200      	movge	r2, #0
 800ab70:	3b7f      	subs	r3, #127	; 0x7f
 800ab72:	4413      	add	r3, r2
 800ab74:	4a62      	ldr	r2, [pc, #392]	; (800ad00 <__ieee754_powf+0x3cc>)
 800ab76:	f3c4 0416 	ubfx	r4, r4, #0, #23
 800ab7a:	4294      	cmp	r4, r2
 800ab7c:	f044 517e 	orr.w	r1, r4, #1065353216	; 0x3f800000
 800ab80:	dd06      	ble.n	800ab90 <__ieee754_powf+0x25c>
 800ab82:	4a60      	ldr	r2, [pc, #384]	; (800ad04 <__ieee754_powf+0x3d0>)
 800ab84:	4294      	cmp	r4, r2
 800ab86:	f340 80a5 	ble.w	800acd4 <__ieee754_powf+0x3a0>
 800ab8a:	3301      	adds	r3, #1
 800ab8c:	f5a1 0100 	sub.w	r1, r1, #8388608	; 0x800000
 800ab90:	2400      	movs	r4, #0
 800ab92:	4a5d      	ldr	r2, [pc, #372]	; (800ad08 <__ieee754_powf+0x3d4>)
 800ab94:	00a7      	lsls	r7, r4, #2
 800ab96:	443a      	add	r2, r7
 800ab98:	ee07 1a90 	vmov	s15, r1
 800ab9c:	ed92 7a00 	vldr	s14, [r2]
 800aba0:	4a5a      	ldr	r2, [pc, #360]	; (800ad0c <__ieee754_powf+0x3d8>)
 800aba2:	ee37 6a27 	vadd.f32	s12, s14, s15
 800aba6:	eeb7 5a00 	vmov.f32	s10, #112	; 0x3f800000  1.0
 800abaa:	eec5 6a06 	vdiv.f32	s13, s10, s12
 800abae:	1049      	asrs	r1, r1, #1
 800abb0:	f041 5100 	orr.w	r1, r1, #536870912	; 0x20000000
 800abb4:	f501 2180 	add.w	r1, r1, #262144	; 0x40000
 800abb8:	eb01 5144 	add.w	r1, r1, r4, lsl #21
 800abbc:	ee77 5ac7 	vsub.f32	s11, s15, s14
 800abc0:	ee06 1a10 	vmov	s12, r1
 800abc4:	ee65 4aa6 	vmul.f32	s9, s11, s13
 800abc8:	ee14 ca90 	vmov	ip, s9
 800abcc:	ea02 0c0c 	and.w	ip, r2, ip
 800abd0:	ee05 ca10 	vmov	s10, ip
 800abd4:	eeb1 4a45 	vneg.f32	s8, s10
 800abd8:	eee4 5a06 	vfma.f32	s11, s8, s12
 800abdc:	ee36 6a47 	vsub.f32	s12, s12, s14
 800abe0:	ed9f 7a4b 	vldr	s14, [pc, #300]	; 800ad10 <__ieee754_powf+0x3dc>
 800abe4:	ee37 6ac6 	vsub.f32	s12, s15, s12
 800abe8:	ee64 7aa4 	vmul.f32	s15, s9, s9
 800abec:	eee4 5a06 	vfma.f32	s11, s8, s12
 800abf0:	ee67 3aa7 	vmul.f32	s7, s15, s15
 800abf4:	ee25 6aa6 	vmul.f32	s12, s11, s13
 800abf8:	eddf 5a46 	vldr	s11, [pc, #280]	; 800ad14 <__ieee754_powf+0x3e0>
 800abfc:	eea7 7aa5 	vfma.f32	s14, s15, s11
 800ac00:	eddf 5a45 	vldr	s11, [pc, #276]	; 800ad18 <__ieee754_powf+0x3e4>
 800ac04:	eee7 5a27 	vfma.f32	s11, s14, s15
 800ac08:	ed9f 7a38 	vldr	s14, [pc, #224]	; 800acec <__ieee754_powf+0x3b8>
 800ac0c:	eea5 7aa7 	vfma.f32	s14, s11, s15
 800ac10:	eddf 5a42 	vldr	s11, [pc, #264]	; 800ad1c <__ieee754_powf+0x3e8>
 800ac14:	eee7 5a27 	vfma.f32	s11, s14, s15
 800ac18:	ed9f 7a41 	vldr	s14, [pc, #260]	; 800ad20 <__ieee754_powf+0x3ec>
 800ac1c:	ee75 6a24 	vadd.f32	s13, s10, s9
 800ac20:	eea5 7aa7 	vfma.f32	s14, s11, s15
 800ac24:	ee66 6a86 	vmul.f32	s13, s13, s12
 800ac28:	eef0 5a08 	vmov.f32	s11, #8	; 0x40400000  3.0
 800ac2c:	eef0 7a65 	vmov.f32	s15, s11
 800ac30:	eee3 6a87 	vfma.f32	s13, s7, s14
 800ac34:	eee5 7a05 	vfma.f32	s15, s10, s10
 800ac38:	ee77 7aa6 	vadd.f32	s15, s15, s13
 800ac3c:	ee17 1a90 	vmov	r1, s15
 800ac40:	4011      	ands	r1, r2
 800ac42:	ee07 1a90 	vmov	s15, r1
 800ac46:	ee37 7ae5 	vsub.f32	s14, s15, s11
 800ac4a:	eddf 5a36 	vldr	s11, [pc, #216]	; 800ad24 <__ieee754_powf+0x3f0>
 800ac4e:	eea4 7a05 	vfma.f32	s14, s8, s10
 800ac52:	ee36 7ac7 	vsub.f32	s14, s13, s14
 800ac56:	ee27 7a24 	vmul.f32	s14, s14, s9
 800ac5a:	eea7 7a86 	vfma.f32	s14, s15, s12
 800ac5e:	eeb0 6a47 	vmov.f32	s12, s14
 800ac62:	eea5 6a27 	vfma.f32	s12, s10, s15
 800ac66:	ee16 1a10 	vmov	r1, s12
 800ac6a:	4011      	ands	r1, r2
 800ac6c:	ee06 1a90 	vmov	s13, r1
 800ac70:	eee4 6a27 	vfma.f32	s13, s8, s15
 800ac74:	eddf 7a2c 	vldr	s15, [pc, #176]	; 800ad28 <__ieee754_powf+0x3f4>
 800ac78:	ee37 7a66 	vsub.f32	s14, s14, s13
 800ac7c:	ee06 1a10 	vmov	s12, r1
 800ac80:	ee27 7a27 	vmul.f32	s14, s14, s15
 800ac84:	eddf 7a29 	vldr	s15, [pc, #164]	; 800ad2c <__ieee754_powf+0x3f8>
 800ac88:	4929      	ldr	r1, [pc, #164]	; (800ad30 <__ieee754_powf+0x3fc>)
 800ac8a:	eea6 7a27 	vfma.f32	s14, s12, s15
 800ac8e:	4439      	add	r1, r7
 800ac90:	edd1 7a00 	vldr	s15, [r1]
 800ac94:	ee37 7a27 	vadd.f32	s14, s14, s15
 800ac98:	ee07 3a90 	vmov	s15, r3
 800ac9c:	eef0 0a47 	vmov.f32	s1, s14
 800aca0:	4b24      	ldr	r3, [pc, #144]	; (800ad34 <__ieee754_powf+0x400>)
 800aca2:	eee6 0a25 	vfma.f32	s1, s12, s11
 800aca6:	443b      	add	r3, r7
 800aca8:	ed93 5a00 	vldr	s10, [r3]
 800acac:	eef8 6ae7 	vcvt.f32.s32	s13, s15
 800acb0:	ee70 0a85 	vadd.f32	s1, s1, s10
 800acb4:	ee70 7aa6 	vadd.f32	s15, s1, s13
 800acb8:	ee17 3a90 	vmov	r3, s15
 800acbc:	4013      	ands	r3, r2
 800acbe:	ee07 3a90 	vmov	s15, r3
 800acc2:	ee77 7ae6 	vsub.f32	s15, s15, s13
 800acc6:	ee77 7ac5 	vsub.f32	s15, s15, s10
 800acca:	eee6 7a65 	vfms.f32	s15, s12, s11
 800acce:	ee77 7a67 	vsub.f32	s15, s14, s15
 800acd2:	e70e      	b.n	800aaf2 <__ieee754_powf+0x1be>
 800acd4:	2401      	movs	r4, #1
 800acd6:	e75c      	b.n	800ab92 <__ieee754_powf+0x25e>
 800acd8:	08033864 	.word	0x08033864
 800acdc:	00000000 	.word	0x00000000
 800ace0:	3f7ffff7 	.word	0x3f7ffff7
 800ace4:	7149f2ca 	.word	0x7149f2ca
 800ace8:	3f800007 	.word	0x3f800007
 800acec:	3eaaaaab 	.word	0x3eaaaaab
 800acf0:	36eca570 	.word	0x36eca570
 800acf4:	3fb8aa3b 	.word	0x3fb8aa3b
 800acf8:	3fb8aa00 	.word	0x3fb8aa00
 800acfc:	4b800000 	.word	0x4b800000
 800ad00:	001cc471 	.word	0x001cc471
 800ad04:	005db3d6 	.word	0x005db3d6
 800ad08:	08033898 	.word	0x08033898
 800ad0c:	fffff000 	.word	0xfffff000
 800ad10:	3e6c3255 	.word	0x3e6c3255
 800ad14:	3e53f142 	.word	0x3e53f142
 800ad18:	3e8ba305 	.word	0x3e8ba305
 800ad1c:	3edb6db7 	.word	0x3edb6db7
 800ad20:	3f19999a 	.word	0x3f19999a
 800ad24:	3f763800 	.word	0x3f763800
 800ad28:	3f76384f 	.word	0x3f76384f
 800ad2c:	369dc3a0 	.word	0x369dc3a0
 800ad30:	080338a8 	.word	0x080338a8
 800ad34:	080338a0 	.word	0x080338a0
 800ad38:	3338aa3c 	.word	0x3338aa3c
 800ad3c:	f040 8092 	bne.w	800ae64 <__ieee754_powf+0x530>
 800ad40:	ed5f 6a03 	vldr	s13, [pc, #-12]	; 800ad38 <__ieee754_powf+0x404>
 800ad44:	ee37 7a67 	vsub.f32	s14, s14, s15
 800ad48:	ee70 6aa6 	vadd.f32	s13, s1, s13
 800ad4c:	eef4 6ac7 	vcmpe.f32	s13, s14
 800ad50:	eef1 fa10 	vmrs	APSR_nzcv, fpscr
 800ad54:	f73f aef6 	bgt.w	800ab44 <__ieee754_powf+0x210>
 800ad58:	15db      	asrs	r3, r3, #23
 800ad5a:	f1a3 007e 	sub.w	r0, r3, #126	; 0x7e
 800ad5e:	f44f 0300 	mov.w	r3, #8388608	; 0x800000
 800ad62:	4103      	asrs	r3, r0
 800ad64:	4423      	add	r3, r4
 800ad66:	f3c3 52c7 	ubfx	r2, r3, #23, #8
 800ad6a:	4947      	ldr	r1, [pc, #284]	; (800ae88 <__ieee754_powf+0x554>)
 800ad6c:	3a7f      	subs	r2, #127	; 0x7f
 800ad6e:	4111      	asrs	r1, r2
 800ad70:	ea23 0101 	bic.w	r1, r3, r1
 800ad74:	f3c3 0016 	ubfx	r0, r3, #0, #23
 800ad78:	ee07 1a10 	vmov	s14, r1
 800ad7c:	f440 0000 	orr.w	r0, r0, #8388608	; 0x800000
 800ad80:	f1c2 0217 	rsb	r2, r2, #23
 800ad84:	4110      	asrs	r0, r2
 800ad86:	2c00      	cmp	r4, #0
 800ad88:	ee77 7ac7 	vsub.f32	s15, s15, s14
 800ad8c:	bfb8      	it	lt
 800ad8e:	4240      	neglt	r0, r0
 800ad90:	ee37 7aa0 	vadd.f32	s14, s15, s1
 800ad94:	eddf 6a3d 	vldr	s13, [pc, #244]	; 800ae8c <__ieee754_powf+0x558>
 800ad98:	ee17 3a10 	vmov	r3, s14
 800ad9c:	f423 637f 	bic.w	r3, r3, #4080	; 0xff0
 800ada0:	f023 030f 	bic.w	r3, r3, #15
 800ada4:	ee07 3a10 	vmov	s14, r3
 800ada8:	ee77 7a67 	vsub.f32	s15, s14, s15
 800adac:	ee70 0ae7 	vsub.f32	s1, s1, s15
 800adb0:	eddf 7a37 	vldr	s15, [pc, #220]	; 800ae90 <__ieee754_powf+0x55c>
 800adb4:	ee67 7a27 	vmul.f32	s15, s14, s15
 800adb8:	eee0 7aa6 	vfma.f32	s15, s1, s13
 800adbc:	eddf 6a35 	vldr	s13, [pc, #212]	; 800ae94 <__ieee754_powf+0x560>
 800adc0:	eeb0 0a67 	vmov.f32	s0, s15
 800adc4:	eea7 0a26 	vfma.f32	s0, s14, s13
 800adc8:	eeb0 6a40 	vmov.f32	s12, s0
 800adcc:	eea7 6a66 	vfms.f32	s12, s14, s13
 800add0:	ee20 7a00 	vmul.f32	s14, s0, s0
 800add4:	ee77 7ac6 	vsub.f32	s15, s15, s12
 800add8:	eddf 6a2f 	vldr	s13, [pc, #188]	; 800ae98 <__ieee754_powf+0x564>
 800addc:	ed9f 6a2f 	vldr	s12, [pc, #188]	; 800ae9c <__ieee754_powf+0x568>
 800ade0:	eea7 6a26 	vfma.f32	s12, s14, s13
 800ade4:	eddf 6a2e 	vldr	s13, [pc, #184]	; 800aea0 <__ieee754_powf+0x56c>
 800ade8:	eee6 6a07 	vfma.f32	s13, s12, s14
 800adec:	ed9f 6a2d 	vldr	s12, [pc, #180]	; 800aea4 <__ieee754_powf+0x570>
 800adf0:	eea6 6a87 	vfma.f32	s12, s13, s14
 800adf4:	eddf 6a2c 	vldr	s13, [pc, #176]	; 800aea8 <__ieee754_powf+0x574>
 800adf8:	eee6 6a07 	vfma.f32	s13, s12, s14
 800adfc:	eeb0 6a40 	vmov.f32	s12, s0
 800ae00:	eea6 6ac7 	vfms.f32	s12, s13, s14
 800ae04:	eef0 6a00 	vmov.f32	s13, #0	; 0x40000000  2.0
 800ae08:	eeb0 7a46 	vmov.f32	s14, s12
 800ae0c:	ee77 6a66 	vsub.f32	s13, s14, s13
 800ae10:	ee20 6a06 	vmul.f32	s12, s0, s12
 800ae14:	eee0 7a27 	vfma.f32	s15, s0, s15
 800ae18:	ee86 7a26 	vdiv.f32	s14, s12, s13
 800ae1c:	ee77 7a67 	vsub.f32	s15, s14, s15
 800ae20:	ee37 0ac0 	vsub.f32	s0, s15, s0
 800ae24:	eef7 7a00 	vmov.f32	s15, #112	; 0x3f800000  1.0
 800ae28:	ee37 0ac0 	vsub.f32	s0, s15, s0
 800ae2c:	ee10 3a10 	vmov	r3, s0
 800ae30:	eb03 53c0 	add.w	r3, r3, r0, lsl #23
 800ae34:	f5b3 0f00 	cmp.w	r3, #8388608	; 0x800000
 800ae38:	da1a      	bge.n	800ae70 <__ieee754_powf+0x53c>
 800ae3a:	f000 ff87 	bl	800bd4c <scalbnf>
 800ae3e:	ee20 0a08 	vmul.f32	s0, s0, s16
 800ae42:	e5c9      	b.n	800a9d8 <__ieee754_powf+0xa4>
 800ae44:	4a19      	ldr	r2, [pc, #100]	; (800aeac <__ieee754_powf+0x578>)
 800ae46:	4293      	cmp	r3, r2
 800ae48:	dd02      	ble.n	800ae50 <__ieee754_powf+0x51c>
 800ae4a:	eddf 7a19 	vldr	s15, [pc, #100]	; 800aeb0 <__ieee754_powf+0x57c>
 800ae4e:	e67b      	b.n	800ab48 <__ieee754_powf+0x214>
 800ae50:	d108      	bne.n	800ae64 <__ieee754_powf+0x530>
 800ae52:	ee37 7a67 	vsub.f32	s14, s14, s15
 800ae56:	eeb4 7ae0 	vcmpe.f32	s14, s1
 800ae5a:	eef1 fa10 	vmrs	APSR_nzcv, fpscr
 800ae5e:	f6ff af7b 	blt.w	800ad58 <__ieee754_powf+0x424>
 800ae62:	e7f2      	b.n	800ae4a <__ieee754_powf+0x516>
 800ae64:	f1b3 5f7c 	cmp.w	r3, #1056964608	; 0x3f000000
 800ae68:	f73f af76 	bgt.w	800ad58 <__ieee754_powf+0x424>
 800ae6c:	2000      	movs	r0, #0
 800ae6e:	e78f      	b.n	800ad90 <__ieee754_powf+0x45c>
 800ae70:	ee00 3a10 	vmov	s0, r3
 800ae74:	e7e3      	b.n	800ae3e <__ieee754_powf+0x50a>
 800ae76:	eeb7 0a00 	vmov.f32	s0, #112	; 0x3f800000  1.0
 800ae7a:	e5ad      	b.n	800a9d8 <__ieee754_powf+0xa4>
 800ae7c:	eeb0 0a68 	vmov.f32	s0, s17
 800ae80:	e5aa      	b.n	800a9d8 <__ieee754_powf+0xa4>
 800ae82:	eeb0 0a48 	vmov.f32	s0, s16
 800ae86:	e5a7      	b.n	800a9d8 <__ieee754_powf+0xa4>
 800ae88:	007fffff 	.word	0x007fffff
 800ae8c:	3f317218 	.word	0x3f317218
 800ae90:	35bfbe8c 	.word	0x35bfbe8c
 800ae94:	3f317200 	.word	0x3f317200
 800ae98:	3331bb4c 	.word	0x3331bb4c
 800ae9c:	b5ddea0e 	.word	0xb5ddea0e
 800aea0:	388ab355 	.word	0x388ab355
 800aea4:	bb360b61 	.word	0xbb360b61
 800aea8:	3e2aaaab 	.word	0x3e2aaaab
 800aeac:	43160000 	.word	0x43160000
 800aeb0:	0da24260 	.word	0x0da24260

0800aeb4 <__ieee754_rem_pio2f>:
 800aeb4:	b5f0      	push	{r4, r5, r6, r7, lr}
 800aeb6:	ee10 6a10 	vmov	r6, s0
 800aeba:	4b86      	ldr	r3, [pc, #536]	; (800b0d4 <__ieee754_rem_pio2f+0x220>)
 800aebc:	f026 4400 	bic.w	r4, r6, #2147483648	; 0x80000000
 800aec0:	429c      	cmp	r4, r3
 800aec2:	b087      	sub	sp, #28
 800aec4:	4605      	mov	r5, r0
 800aec6:	dc05      	bgt.n	800aed4 <__ieee754_rem_pio2f+0x20>
 800aec8:	2300      	movs	r3, #0
 800aeca:	ed85 0a00 	vstr	s0, [r5]
 800aece:	6043      	str	r3, [r0, #4]
 800aed0:	2000      	movs	r0, #0
 800aed2:	e020      	b.n	800af16 <__ieee754_rem_pio2f+0x62>
 800aed4:	4b80      	ldr	r3, [pc, #512]	; (800b0d8 <__ieee754_rem_pio2f+0x224>)
 800aed6:	429c      	cmp	r4, r3
 800aed8:	dc38      	bgt.n	800af4c <__ieee754_rem_pio2f+0x98>
 800aeda:	2e00      	cmp	r6, #0
 800aedc:	f024 040f 	bic.w	r4, r4, #15
 800aee0:	ed9f 7a7e 	vldr	s14, [pc, #504]	; 800b0dc <__ieee754_rem_pio2f+0x228>
 800aee4:	4b7e      	ldr	r3, [pc, #504]	; (800b0e0 <__ieee754_rem_pio2f+0x22c>)
 800aee6:	dd18      	ble.n	800af1a <__ieee754_rem_pio2f+0x66>
 800aee8:	429c      	cmp	r4, r3
 800aeea:	ee70 7a47 	vsub.f32	s15, s0, s14
 800aeee:	bf09      	itett	eq
 800aef0:	ed9f 7a7c 	vldreq	s14, [pc, #496]	; 800b0e4 <__ieee754_rem_pio2f+0x230>
 800aef4:	ed9f 7a7c 	vldrne	s14, [pc, #496]	; 800b0e8 <__ieee754_rem_pio2f+0x234>
 800aef8:	ee77 7ac7 	vsubeq.f32	s15, s15, s14
 800aefc:	ed9f 7a7b 	vldreq	s14, [pc, #492]	; 800b0ec <__ieee754_rem_pio2f+0x238>
 800af00:	ee77 6ac7 	vsub.f32	s13, s15, s14
 800af04:	ee77 7ae6 	vsub.f32	s15, s15, s13
 800af08:	edc0 6a00 	vstr	s13, [r0]
 800af0c:	ee77 7ac7 	vsub.f32	s15, s15, s14
 800af10:	edc0 7a01 	vstr	s15, [r0, #4]
 800af14:	2001      	movs	r0, #1
 800af16:	b007      	add	sp, #28
 800af18:	bdf0      	pop	{r4, r5, r6, r7, pc}
 800af1a:	429c      	cmp	r4, r3
 800af1c:	ee70 7a07 	vadd.f32	s15, s0, s14
 800af20:	bf09      	itett	eq
 800af22:	ed9f 7a70 	vldreq	s14, [pc, #448]	; 800b0e4 <__ieee754_rem_pio2f+0x230>
 800af26:	ed9f 7a70 	vldrne	s14, [pc, #448]	; 800b0e8 <__ieee754_rem_pio2f+0x234>
 800af2a:	ee77 7a87 	vaddeq.f32	s15, s15, s14
 800af2e:	ed9f 7a6f 	vldreq	s14, [pc, #444]	; 800b0ec <__ieee754_rem_pio2f+0x238>
 800af32:	ee77 6a87 	vadd.f32	s13, s15, s14
 800af36:	ee77 7ae6 	vsub.f32	s15, s15, s13
 800af3a:	edc0 6a00 	vstr	s13, [r0]
 800af3e:	ee77 7a87 	vadd.f32	s15, s15, s14
 800af42:	edc0 7a01 	vstr	s15, [r0, #4]
 800af46:	f04f 30ff 	mov.w	r0, #4294967295
 800af4a:	e7e4      	b.n	800af16 <__ieee754_rem_pio2f+0x62>
 800af4c:	4b68      	ldr	r3, [pc, #416]	; (800b0f0 <__ieee754_rem_pio2f+0x23c>)
 800af4e:	429c      	cmp	r4, r3
 800af50:	dc71      	bgt.n	800b036 <__ieee754_rem_pio2f+0x182>
 800af52:	f7fe f8a5 	bl	80090a0 <fabsf>
 800af56:	ed9f 7a67 	vldr	s14, [pc, #412]	; 800b0f4 <__ieee754_rem_pio2f+0x240>
 800af5a:	eef6 7a00 	vmov.f32	s15, #96	; 0x3f000000  0.5
 800af5e:	eee0 7a07 	vfma.f32	s15, s0, s14
 800af62:	eefd 7ae7 	vcvt.s32.f32	s15, s15
 800af66:	eeb8 6ae7 	vcvt.f32.s32	s12, s15
 800af6a:	ee17 0a90 	vmov	r0, s15
 800af6e:	eddf 7a5b 	vldr	s15, [pc, #364]	; 800b0dc <__ieee754_rem_pio2f+0x228>
 800af72:	eeb1 7a46 	vneg.f32	s14, s12
 800af76:	eea7 0a27 	vfma.f32	s0, s14, s15
 800af7a:	281f      	cmp	r0, #31
 800af7c:	eddf 7a5a 	vldr	s15, [pc, #360]	; 800b0e8 <__ieee754_rem_pio2f+0x234>
 800af80:	ee66 7a27 	vmul.f32	s15, s12, s15
 800af84:	ee70 6a67 	vsub.f32	s13, s0, s15
 800af88:	ee16 3a90 	vmov	r3, s13
 800af8c:	dc1c      	bgt.n	800afc8 <__ieee754_rem_pio2f+0x114>
 800af8e:	1e47      	subs	r7, r0, #1
 800af90:	4959      	ldr	r1, [pc, #356]	; (800b0f8 <__ieee754_rem_pio2f+0x244>)
 800af92:	f851 1027 	ldr.w	r1, [r1, r7, lsl #2]
 800af96:	f024 02ff 	bic.w	r2, r4, #255	; 0xff
 800af9a:	428a      	cmp	r2, r1
 800af9c:	d014      	beq.n	800afc8 <__ieee754_rem_pio2f+0x114>
 800af9e:	602b      	str	r3, [r5, #0]
 800afa0:	ed95 7a00 	vldr	s14, [r5]
 800afa4:	ee30 0a47 	vsub.f32	s0, s0, s14
 800afa8:	2e00      	cmp	r6, #0
 800afaa:	ee30 0a67 	vsub.f32	s0, s0, s15
 800afae:	ed85 0a01 	vstr	s0, [r5, #4]
 800afb2:	dab0      	bge.n	800af16 <__ieee754_rem_pio2f+0x62>
 800afb4:	eeb1 7a47 	vneg.f32	s14, s14
 800afb8:	eeb1 0a40 	vneg.f32	s0, s0
 800afbc:	ed85 7a00 	vstr	s14, [r5]
 800afc0:	ed85 0a01 	vstr	s0, [r5, #4]
 800afc4:	4240      	negs	r0, r0
 800afc6:	e7a6      	b.n	800af16 <__ieee754_rem_pio2f+0x62>
 800afc8:	15e4      	asrs	r4, r4, #23
 800afca:	f3c3 52c7 	ubfx	r2, r3, #23, #8
 800afce:	1aa2      	subs	r2, r4, r2
 800afd0:	2a08      	cmp	r2, #8
 800afd2:	dde4      	ble.n	800af9e <__ieee754_rem_pio2f+0xea>
 800afd4:	eddf 7a43 	vldr	s15, [pc, #268]	; 800b0e4 <__ieee754_rem_pio2f+0x230>
 800afd8:	eef0 6a40 	vmov.f32	s13, s0
 800afdc:	eee7 6a27 	vfma.f32	s13, s14, s15
 800afe0:	ee30 0a66 	vsub.f32	s0, s0, s13
 800afe4:	eea7 0a27 	vfma.f32	s0, s14, s15
 800afe8:	eddf 7a40 	vldr	s15, [pc, #256]	; 800b0ec <__ieee754_rem_pio2f+0x238>
 800afec:	ee96 0a27 	vfnms.f32	s0, s12, s15
 800aff0:	ee76 5ac0 	vsub.f32	s11, s13, s0
 800aff4:	eef0 7a40 	vmov.f32	s15, s0
 800aff8:	ee15 3a90 	vmov	r3, s11
 800affc:	f3c3 52c7 	ubfx	r2, r3, #23, #8
 800b000:	1aa4      	subs	r4, r4, r2
 800b002:	2c19      	cmp	r4, #25
 800b004:	dc04      	bgt.n	800b010 <__ieee754_rem_pio2f+0x15c>
 800b006:	edc5 5a00 	vstr	s11, [r5]
 800b00a:	eeb0 0a66 	vmov.f32	s0, s13
 800b00e:	e7c7      	b.n	800afa0 <__ieee754_rem_pio2f+0xec>
 800b010:	eddf 5a3a 	vldr	s11, [pc, #232]	; 800b0fc <__ieee754_rem_pio2f+0x248>
 800b014:	eeb0 0a66 	vmov.f32	s0, s13
 800b018:	eea7 0a25 	vfma.f32	s0, s14, s11
 800b01c:	ee76 7ac0 	vsub.f32	s15, s13, s0
 800b020:	eee7 7a25 	vfma.f32	s15, s14, s11
 800b024:	ed9f 7a36 	vldr	s14, [pc, #216]	; 800b100 <__ieee754_rem_pio2f+0x24c>
 800b028:	eed6 7a07 	vfnms.f32	s15, s12, s14
 800b02c:	ee30 7a67 	vsub.f32	s14, s0, s15
 800b030:	ed85 7a00 	vstr	s14, [r5]
 800b034:	e7b4      	b.n	800afa0 <__ieee754_rem_pio2f+0xec>
 800b036:	f1b4 4fff 	cmp.w	r4, #2139095040	; 0x7f800000
 800b03a:	db06      	blt.n	800b04a <__ieee754_rem_pio2f+0x196>
 800b03c:	ee70 7a40 	vsub.f32	s15, s0, s0
 800b040:	edc0 7a01 	vstr	s15, [r0, #4]
 800b044:	edc0 7a00 	vstr	s15, [r0]
 800b048:	e742      	b.n	800aed0 <__ieee754_rem_pio2f+0x1c>
 800b04a:	15e2      	asrs	r2, r4, #23
 800b04c:	3a86      	subs	r2, #134	; 0x86
 800b04e:	eba4 53c2 	sub.w	r3, r4, r2, lsl #23
 800b052:	ee07 3a90 	vmov	s15, r3
 800b056:	eebd 7ae7 	vcvt.s32.f32	s14, s15
 800b05a:	eddf 6a2a 	vldr	s13, [pc, #168]	; 800b104 <__ieee754_rem_pio2f+0x250>
 800b05e:	eeb8 7ac7 	vcvt.f32.s32	s14, s14
 800b062:	ee77 7ac7 	vsub.f32	s15, s15, s14
 800b066:	ed8d 7a03 	vstr	s14, [sp, #12]
 800b06a:	ee67 7aa6 	vmul.f32	s15, s15, s13
 800b06e:	eebd 7ae7 	vcvt.s32.f32	s14, s15
 800b072:	eeb8 7ac7 	vcvt.f32.s32	s14, s14
 800b076:	ee77 7ac7 	vsub.f32	s15, s15, s14
 800b07a:	ed8d 7a04 	vstr	s14, [sp, #16]
 800b07e:	ee67 7aa6 	vmul.f32	s15, s15, s13
 800b082:	eef5 7a40 	vcmp.f32	s15, #0.0
 800b086:	eef1 fa10 	vmrs	APSR_nzcv, fpscr
 800b08a:	edcd 7a05 	vstr	s15, [sp, #20]
 800b08e:	d11e      	bne.n	800b0ce <__ieee754_rem_pio2f+0x21a>
 800b090:	eeb5 7a40 	vcmp.f32	s14, #0.0
 800b094:	eef1 fa10 	vmrs	APSR_nzcv, fpscr
 800b098:	bf0c      	ite	eq
 800b09a:	2301      	moveq	r3, #1
 800b09c:	2302      	movne	r3, #2
 800b09e:	491a      	ldr	r1, [pc, #104]	; (800b108 <__ieee754_rem_pio2f+0x254>)
 800b0a0:	9101      	str	r1, [sp, #4]
 800b0a2:	2102      	movs	r1, #2
 800b0a4:	9100      	str	r1, [sp, #0]
 800b0a6:	a803      	add	r0, sp, #12
 800b0a8:	4629      	mov	r1, r5
 800b0aa:	f000 f8ff 	bl	800b2ac <__kernel_rem_pio2f>
 800b0ae:	2e00      	cmp	r6, #0
 800b0b0:	f6bf af31 	bge.w	800af16 <__ieee754_rem_pio2f+0x62>
 800b0b4:	edd5 7a00 	vldr	s15, [r5]
 800b0b8:	eef1 7a67 	vneg.f32	s15, s15
 800b0bc:	edc5 7a00 	vstr	s15, [r5]
 800b0c0:	edd5 7a01 	vldr	s15, [r5, #4]
 800b0c4:	eef1 7a67 	vneg.f32	s15, s15
 800b0c8:	edc5 7a01 	vstr	s15, [r5, #4]
 800b0cc:	e77a      	b.n	800afc4 <__ieee754_rem_pio2f+0x110>
 800b0ce:	2303      	movs	r3, #3
 800b0d0:	e7e5      	b.n	800b09e <__ieee754_rem_pio2f+0x1ea>
 800b0d2:	bf00      	nop
 800b0d4:	3f490fd8 	.word	0x3f490fd8
 800b0d8:	4016cbe3 	.word	0x4016cbe3
 800b0dc:	3fc90f80 	.word	0x3fc90f80
 800b0e0:	3fc90fd0 	.word	0x3fc90fd0
 800b0e4:	37354400 	.word	0x37354400
 800b0e8:	37354443 	.word	0x37354443
 800b0ec:	2e85a308 	.word	0x2e85a308
 800b0f0:	43490f80 	.word	0x43490f80
 800b0f4:	3f22f984 	.word	0x3f22f984
 800b0f8:	080338b0 	.word	0x080338b0
 800b0fc:	2e85a300 	.word	0x2e85a300
 800b100:	248d3132 	.word	0x248d3132
 800b104:	43800000 	.word	0x43800000
 800b108:	08033930 	.word	0x08033930

0800b10c <__ieee754_sinhf>:
 800b10c:	b510      	push	{r4, lr}
 800b10e:	ee10 3a10 	vmov	r3, s0
 800b112:	f023 4400 	bic.w	r4, r3, #2147483648	; 0x80000000
 800b116:	f1b4 4fff 	cmp.w	r4, #2139095040	; 0x7f800000
 800b11a:	ed2d 8b02 	vpush	{d8}
 800b11e:	eef0 7a40 	vmov.f32	s15, s0
 800b122:	db06      	blt.n	800b132 <__ieee754_sinhf+0x26>
 800b124:	ee70 7a00 	vadd.f32	s15, s0, s0
 800b128:	ecbd 8b02 	vpop	{d8}
 800b12c:	eeb0 0a67 	vmov.f32	s0, s15
 800b130:	bd10      	pop	{r4, pc}
 800b132:	2b00      	cmp	r3, #0
 800b134:	4b28      	ldr	r3, [pc, #160]	; (800b1d8 <__ieee754_sinhf+0xcc>)
 800b136:	eef6 8a00 	vmov.f32	s17, #96	; 0x3f000000  0.5
 800b13a:	eebe 8a00 	vmov.f32	s16, #224	; 0xbf000000 -0.5
 800b13e:	bfa8      	it	ge
 800b140:	eeb0 8a68 	vmovge.f32	s16, s17
 800b144:	429c      	cmp	r4, r3
 800b146:	dc2a      	bgt.n	800b19e <__ieee754_sinhf+0x92>
 800b148:	f1b4 5f46 	cmp.w	r4, #830472192	; 0x31800000
 800b14c:	eef7 8a00 	vmov.f32	s17, #112	; 0x3f800000  1.0
 800b150:	da08      	bge.n	800b164 <__ieee754_sinhf+0x58>
 800b152:	ed9f 7a22 	vldr	s14, [pc, #136]	; 800b1dc <__ieee754_sinhf+0xd0>
 800b156:	ee30 7a07 	vadd.f32	s14, s0, s14
 800b15a:	eeb4 7ae8 	vcmpe.f32	s14, s17
 800b15e:	eef1 fa10 	vmrs	APSR_nzcv, fpscr
 800b162:	dce1      	bgt.n	800b128 <__ieee754_sinhf+0x1c>
 800b164:	eeb0 0a67 	vmov.f32	s0, s15
 800b168:	f7fd ff9a 	bl	80090a0 <fabsf>
 800b16c:	f000 fc58 	bl	800ba20 <expm1f>
 800b170:	f1b4 5f7e 	cmp.w	r4, #1065353216	; 0x3f800000
 800b174:	bfbb      	ittet	lt
 800b176:	ee20 7a00 	vmullt.f32	s14, s0, s0
 800b17a:	ee70 8a28 	vaddlt.f32	s17, s0, s17
 800b17e:	ee70 8a28 	vaddge.f32	s17, s0, s17
 800b182:	eec7 7a28 	vdivlt.f32	s15, s14, s17
 800b186:	bfad      	iteet	ge
 800b188:	eec0 7a28 	vdivge.f32	s15, s0, s17
 800b18c:	eeb0 7a00 	vmovlt.f32	s14, #0	; 0x40000000  2.0
 800b190:	eed0 7a07 	vfnmslt.f32	s15, s0, s14
 800b194:	ee77 7a80 	vaddge.f32	s15, s15, s0
 800b198:	ee67 7a88 	vmul.f32	s15, s15, s16
 800b19c:	e7c4      	b.n	800b128 <__ieee754_sinhf+0x1c>
 800b19e:	4b10      	ldr	r3, [pc, #64]	; (800b1e0 <__ieee754_sinhf+0xd4>)
 800b1a0:	429c      	cmp	r4, r3
 800b1a2:	dc06      	bgt.n	800b1b2 <__ieee754_sinhf+0xa6>
 800b1a4:	f7fd ff7c 	bl	80090a0 <fabsf>
 800b1a8:	f7ff f97a 	bl	800a4a0 <__ieee754_expf>
 800b1ac:	ee60 7a08 	vmul.f32	s15, s0, s16
 800b1b0:	e7ba      	b.n	800b128 <__ieee754_sinhf+0x1c>
 800b1b2:	4b0c      	ldr	r3, [pc, #48]	; (800b1e4 <__ieee754_sinhf+0xd8>)
 800b1b4:	429c      	cmp	r4, r3
 800b1b6:	dc0a      	bgt.n	800b1ce <__ieee754_sinhf+0xc2>
 800b1b8:	f7fd ff72 	bl	80090a0 <fabsf>
 800b1bc:	ee20 0a28 	vmul.f32	s0, s0, s17
 800b1c0:	f7ff f96e 	bl	800a4a0 <__ieee754_expf>
 800b1c4:	ee68 7a00 	vmul.f32	s15, s16, s0
 800b1c8:	ee67 7a80 	vmul.f32	s15, s15, s0
 800b1cc:	e7ac      	b.n	800b128 <__ieee754_sinhf+0x1c>
 800b1ce:	ed9f 7a03 	vldr	s14, [pc, #12]	; 800b1dc <__ieee754_sinhf+0xd0>
 800b1d2:	ee60 7a07 	vmul.f32	s15, s0, s14
 800b1d6:	e7a7      	b.n	800b128 <__ieee754_sinhf+0x1c>
 800b1d8:	41afffff 	.word	0x41afffff
 800b1dc:	7cf0bdc2 	.word	0x7cf0bdc2
 800b1e0:	42b17217 	.word	0x42b17217
 800b1e4:	42b2d4fc 	.word	0x42b2d4fc

0800b1e8 <__ieee754_sqrtf>:
 800b1e8:	eeb1 0ac0 	vsqrt.f32	s0, s0
 800b1ec:	4770      	bx	lr
	...

0800b1f0 <__kernel_cosf>:
 800b1f0:	ee10 3a10 	vmov	r3, s0
 800b1f4:	f023 4300 	bic.w	r3, r3, #2147483648	; 0x80000000
 800b1f8:	f1b3 5f48 	cmp.w	r3, #838860800	; 0x32000000
 800b1fc:	eef7 6a00 	vmov.f32	s13, #112	; 0x3f800000  1.0
 800b200:	da05      	bge.n	800b20e <__kernel_cosf+0x1e>
 800b202:	eefd 7ac0 	vcvt.s32.f32	s15, s0
 800b206:	ee17 2a90 	vmov	r2, s15
 800b20a:	2a00      	cmp	r2, #0
 800b20c:	d03b      	beq.n	800b286 <__kernel_cosf+0x96>
 800b20e:	ee20 6a00 	vmul.f32	s12, s0, s0
 800b212:	eeb6 7a00 	vmov.f32	s14, #96	; 0x3f000000  0.5
 800b216:	eddf 5a1d 	vldr	s11, [pc, #116]	; 800b28c <__kernel_cosf+0x9c>
 800b21a:	4a1d      	ldr	r2, [pc, #116]	; (800b290 <__kernel_cosf+0xa0>)
 800b21c:	ee66 7a07 	vmul.f32	s15, s12, s14
 800b220:	ed9f 7a1c 	vldr	s14, [pc, #112]	; 800b294 <__kernel_cosf+0xa4>
 800b224:	eea6 7a25 	vfma.f32	s14, s12, s11
 800b228:	4293      	cmp	r3, r2
 800b22a:	eddf 5a1b 	vldr	s11, [pc, #108]	; 800b298 <__kernel_cosf+0xa8>
 800b22e:	eee7 5a06 	vfma.f32	s11, s14, s12
 800b232:	ed9f 7a1a 	vldr	s14, [pc, #104]	; 800b29c <__kernel_cosf+0xac>
 800b236:	eea5 7a86 	vfma.f32	s14, s11, s12
 800b23a:	eddf 5a19 	vldr	s11, [pc, #100]	; 800b2a0 <__kernel_cosf+0xb0>
 800b23e:	eee7 5a06 	vfma.f32	s11, s14, s12
 800b242:	ed9f 7a18 	vldr	s14, [pc, #96]	; 800b2a4 <__kernel_cosf+0xb4>
 800b246:	eea5 7a86 	vfma.f32	s14, s11, s12
 800b24a:	ee60 0ac0 	vnmul.f32	s1, s1, s0
 800b24e:	ee27 7a06 	vmul.f32	s14, s14, s12
 800b252:	eee6 0a07 	vfma.f32	s1, s12, s14
 800b256:	dc04      	bgt.n	800b262 <__kernel_cosf+0x72>
 800b258:	ee77 0ae0 	vsub.f32	s1, s15, s1
 800b25c:	ee36 0ae0 	vsub.f32	s0, s13, s1
 800b260:	4770      	bx	lr
 800b262:	4a11      	ldr	r2, [pc, #68]	; (800b2a8 <__kernel_cosf+0xb8>)
 800b264:	4293      	cmp	r3, r2
 800b266:	bfda      	itte	le
 800b268:	f103 437f 	addle.w	r3, r3, #4278190080	; 0xff000000
 800b26c:	ee07 3a10 	vmovle	s14, r3
 800b270:	eeb5 7a02 	vmovgt.f32	s14, #82	; 0x3e900000  0.2812500
 800b274:	ee77 7ac7 	vsub.f32	s15, s15, s14
 800b278:	ee36 0ac7 	vsub.f32	s0, s13, s14
 800b27c:	ee77 7ae0 	vsub.f32	s15, s15, s1
 800b280:	ee30 0a67 	vsub.f32	s0, s0, s15
 800b284:	4770      	bx	lr
 800b286:	eeb0 0a66 	vmov.f32	s0, s13
 800b28a:	4770      	bx	lr
 800b28c:	ad47d74e 	.word	0xad47d74e
 800b290:	3e999999 	.word	0x3e999999
 800b294:	310f74f6 	.word	0x310f74f6
 800b298:	b493f27c 	.word	0xb493f27c
 800b29c:	37d00d01 	.word	0x37d00d01
 800b2a0:	bab60b61 	.word	0xbab60b61
 800b2a4:	3d2aaaab 	.word	0x3d2aaaab
 800b2a8:	3f480000 	.word	0x3f480000

0800b2ac <__kernel_rem_pio2f>:
 800b2ac:	e92d 4ff0 	stmdb	sp!, {r4, r5, r6, r7, r8, r9, sl, fp, lr}
 800b2b0:	ed2d 8b04 	vpush	{d8-d9}
 800b2b4:	b0d7      	sub	sp, #348	; 0x15c
 800b2b6:	469b      	mov	fp, r3
 800b2b8:	460e      	mov	r6, r1
 800b2ba:	4bbe      	ldr	r3, [pc, #760]	; (800b5b4 <__kernel_rem_pio2f+0x308>)
 800b2bc:	9964      	ldr	r1, [sp, #400]	; 0x190
 800b2be:	9002      	str	r0, [sp, #8]
 800b2c0:	f853 9021 	ldr.w	r9, [r3, r1, lsl #2]
 800b2c4:	9865      	ldr	r0, [sp, #404]	; 0x194
 800b2c6:	ed9f 7abf 	vldr	s14, [pc, #764]	; 800b5c4 <__kernel_rem_pio2f+0x318>
 800b2ca:	1ed1      	subs	r1, r2, #3
 800b2cc:	2308      	movs	r3, #8
 800b2ce:	fb91 f1f3 	sdiv	r1, r1, r3
 800b2d2:	ea21 71e1 	bic.w	r1, r1, r1, asr #31
 800b2d6:	f10b 3aff 	add.w	sl, fp, #4294967295
 800b2da:	1c4c      	adds	r4, r1, #1
 800b2dc:	eba2 04c4 	sub.w	r4, r2, r4, lsl #3
 800b2e0:	eba1 050a 	sub.w	r5, r1, sl
 800b2e4:	aa1a      	add	r2, sp, #104	; 0x68
 800b2e6:	eb09 070a 	add.w	r7, r9, sl
 800b2ea:	eb00 0c85 	add.w	ip, r0, r5, lsl #2
 800b2ee:	4696      	mov	lr, r2
 800b2f0:	2300      	movs	r3, #0
 800b2f2:	42bb      	cmp	r3, r7
 800b2f4:	dd0f      	ble.n	800b316 <__kernel_rem_pio2f+0x6a>
 800b2f6:	af42      	add	r7, sp, #264	; 0x108
 800b2f8:	2200      	movs	r2, #0
 800b2fa:	454a      	cmp	r2, r9
 800b2fc:	dc27      	bgt.n	800b34e <__kernel_rem_pio2f+0xa2>
 800b2fe:	f10d 0c68 	add.w	ip, sp, #104	; 0x68
 800b302:	eb0b 0302 	add.w	r3, fp, r2
 800b306:	eb0c 0383 	add.w	r3, ip, r3, lsl #2
 800b30a:	9d02      	ldr	r5, [sp, #8]
 800b30c:	eddf 7aad 	vldr	s15, [pc, #692]	; 800b5c4 <__kernel_rem_pio2f+0x318>
 800b310:	f04f 0c00 	mov.w	ip, #0
 800b314:	e015      	b.n	800b342 <__kernel_rem_pio2f+0x96>
 800b316:	42dd      	cmn	r5, r3
 800b318:	bf5d      	ittte	pl
 800b31a:	f85c 2023 	ldrpl.w	r2, [ip, r3, lsl #2]
 800b31e:	ee07 2a90 	vmovpl	s15, r2
 800b322:	eef8 7ae7 	vcvtpl.f32.s32	s15, s15
 800b326:	eef0 7a47 	vmovmi.f32	s15, s14
 800b32a:	ecee 7a01 	vstmia	lr!, {s15}
 800b32e:	3301      	adds	r3, #1
 800b330:	e7df      	b.n	800b2f2 <__kernel_rem_pio2f+0x46>
 800b332:	ecf5 6a01 	vldmia	r5!, {s13}
 800b336:	ed33 7a01 	vldmdb	r3!, {s14}
 800b33a:	eee6 7a87 	vfma.f32	s15, s13, s14
 800b33e:	f10c 0c01 	add.w	ip, ip, #1
 800b342:	45d4      	cmp	ip, sl
 800b344:	ddf5      	ble.n	800b332 <__kernel_rem_pio2f+0x86>
 800b346:	ece7 7a01 	vstmia	r7!, {s15}
 800b34a:	3201      	adds	r2, #1
 800b34c:	e7d5      	b.n	800b2fa <__kernel_rem_pio2f+0x4e>
 800b34e:	ab06      	add	r3, sp, #24
 800b350:	eb03 0389 	add.w	r3, r3, r9, lsl #2
 800b354:	9304      	str	r3, [sp, #16]
 800b356:	eddf 8a9a 	vldr	s17, [pc, #616]	; 800b5c0 <__kernel_rem_pio2f+0x314>
 800b35a:	ed9f 9a98 	vldr	s18, [pc, #608]	; 800b5bc <__kernel_rem_pio2f+0x310>
 800b35e:	eb00 0381 	add.w	r3, r0, r1, lsl #2
 800b362:	9303      	str	r3, [sp, #12]
 800b364:	464d      	mov	r5, r9
 800b366:	ab56      	add	r3, sp, #344	; 0x158
 800b368:	f105 4780 	add.w	r7, r5, #1073741824	; 0x40000000
 800b36c:	eb03 0385 	add.w	r3, r3, r5, lsl #2
 800b370:	3f01      	subs	r7, #1
 800b372:	ed13 0a14 	vldr	s0, [r3, #-80]	; 0xffffffb0
 800b376:	00bf      	lsls	r7, r7, #2
 800b378:	ab56      	add	r3, sp, #344	; 0x158
 800b37a:	19da      	adds	r2, r3, r7
 800b37c:	3a4c      	subs	r2, #76	; 0x4c
 800b37e:	2300      	movs	r3, #0
 800b380:	1ae9      	subs	r1, r5, r3
 800b382:	2900      	cmp	r1, #0
 800b384:	dc4c      	bgt.n	800b420 <__kernel_rem_pio2f+0x174>
 800b386:	4620      	mov	r0, r4
 800b388:	f000 fce0 	bl	800bd4c <scalbnf>
 800b38c:	eeb0 8a40 	vmov.f32	s16, s0
 800b390:	eeb4 0a00 	vmov.f32	s0, #64	; 0x3e000000  0.125
 800b394:	ee28 0a00 	vmul.f32	s0, s16, s0
 800b398:	f7fd fe8a 	bl	80090b0 <floorf>
 800b39c:	eef2 7a00 	vmov.f32	s15, #32	; 0x41000000  8.0
 800b3a0:	eea0 8a67 	vfms.f32	s16, s0, s15
 800b3a4:	2c00      	cmp	r4, #0
 800b3a6:	eefd 7ac8 	vcvt.s32.f32	s15, s16
 800b3aa:	edcd 7a01 	vstr	s15, [sp, #4]
 800b3ae:	eef8 7ae7 	vcvt.f32.s32	s15, s15
 800b3b2:	ee38 8a67 	vsub.f32	s16, s16, s15
 800b3b6:	dd48      	ble.n	800b44a <__kernel_rem_pio2f+0x19e>
 800b3b8:	1e69      	subs	r1, r5, #1
 800b3ba:	ab06      	add	r3, sp, #24
 800b3bc:	f1c4 0008 	rsb	r0, r4, #8
 800b3c0:	f853 c021 	ldr.w	ip, [r3, r1, lsl #2]
 800b3c4:	9a01      	ldr	r2, [sp, #4]
 800b3c6:	fa4c f300 	asr.w	r3, ip, r0
 800b3ca:	441a      	add	r2, r3
 800b3cc:	4083      	lsls	r3, r0
 800b3ce:	9201      	str	r2, [sp, #4]
 800b3d0:	ebac 0203 	sub.w	r2, ip, r3
 800b3d4:	ab06      	add	r3, sp, #24
 800b3d6:	f843 2021 	str.w	r2, [r3, r1, lsl #2]
 800b3da:	f1c4 0307 	rsb	r3, r4, #7
 800b3de:	fa42 f803 	asr.w	r8, r2, r3
 800b3e2:	f1b8 0f00 	cmp.w	r8, #0
 800b3e6:	dd41      	ble.n	800b46c <__kernel_rem_pio2f+0x1c0>
 800b3e8:	9b01      	ldr	r3, [sp, #4]
 800b3ea:	2000      	movs	r0, #0
 800b3ec:	3301      	adds	r3, #1
 800b3ee:	9301      	str	r3, [sp, #4]
 800b3f0:	4601      	mov	r1, r0
 800b3f2:	4285      	cmp	r5, r0
 800b3f4:	dc6d      	bgt.n	800b4d2 <__kernel_rem_pio2f+0x226>
 800b3f6:	2c00      	cmp	r4, #0
 800b3f8:	dd04      	ble.n	800b404 <__kernel_rem_pio2f+0x158>
 800b3fa:	2c01      	cmp	r4, #1
 800b3fc:	d07e      	beq.n	800b4fc <__kernel_rem_pio2f+0x250>
 800b3fe:	2c02      	cmp	r4, #2
 800b400:	f000 8086 	beq.w	800b510 <__kernel_rem_pio2f+0x264>
 800b404:	f1b8 0f02 	cmp.w	r8, #2
 800b408:	d130      	bne.n	800b46c <__kernel_rem_pio2f+0x1c0>
 800b40a:	eeb7 0a00 	vmov.f32	s0, #112	; 0x3f800000  1.0
 800b40e:	ee30 8a48 	vsub.f32	s16, s0, s16
 800b412:	b359      	cbz	r1, 800b46c <__kernel_rem_pio2f+0x1c0>
 800b414:	4620      	mov	r0, r4
 800b416:	f000 fc99 	bl	800bd4c <scalbnf>
 800b41a:	ee38 8a40 	vsub.f32	s16, s16, s0
 800b41e:	e025      	b.n	800b46c <__kernel_rem_pio2f+0x1c0>
 800b420:	ee60 7a28 	vmul.f32	s15, s0, s17
 800b424:	a806      	add	r0, sp, #24
 800b426:	eefd 7ae7 	vcvt.s32.f32	s15, s15
 800b42a:	eef8 7ae7 	vcvt.f32.s32	s15, s15
 800b42e:	eea7 0ac9 	vfms.f32	s0, s15, s18
 800b432:	eebd 0ac0 	vcvt.s32.f32	s0, s0
 800b436:	ee10 1a10 	vmov	r1, s0
 800b43a:	ed32 0a01 	vldmdb	r2!, {s0}
 800b43e:	f840 1023 	str.w	r1, [r0, r3, lsl #2]
 800b442:	ee37 0a80 	vadd.f32	s0, s15, s0
 800b446:	3301      	adds	r3, #1
 800b448:	e79a      	b.n	800b380 <__kernel_rem_pio2f+0xd4>
 800b44a:	d106      	bne.n	800b45a <__kernel_rem_pio2f+0x1ae>
 800b44c:	1e6b      	subs	r3, r5, #1
 800b44e:	aa06      	add	r2, sp, #24
 800b450:	f852 2023 	ldr.w	r2, [r2, r3, lsl #2]
 800b454:	ea4f 2822 	mov.w	r8, r2, asr #8
 800b458:	e7c3      	b.n	800b3e2 <__kernel_rem_pio2f+0x136>
 800b45a:	eef6 7a00 	vmov.f32	s15, #96	; 0x3f000000  0.5
 800b45e:	eeb4 8ae7 	vcmpe.f32	s16, s15
 800b462:	eef1 fa10 	vmrs	APSR_nzcv, fpscr
 800b466:	da31      	bge.n	800b4cc <__kernel_rem_pio2f+0x220>
 800b468:	f04f 0800 	mov.w	r8, #0
 800b46c:	eeb5 8a40 	vcmp.f32	s16, #0.0
 800b470:	eef1 fa10 	vmrs	APSR_nzcv, fpscr
 800b474:	f040 80a8 	bne.w	800b5c8 <__kernel_rem_pio2f+0x31c>
 800b478:	1e6b      	subs	r3, r5, #1
 800b47a:	4618      	mov	r0, r3
 800b47c:	2200      	movs	r2, #0
 800b47e:	4548      	cmp	r0, r9
 800b480:	da4d      	bge.n	800b51e <__kernel_rem_pio2f+0x272>
 800b482:	2a00      	cmp	r2, #0
 800b484:	f000 8087 	beq.w	800b596 <__kernel_rem_pio2f+0x2ea>
 800b488:	aa06      	add	r2, sp, #24
 800b48a:	3c08      	subs	r4, #8
 800b48c:	f852 1023 	ldr.w	r1, [r2, r3, lsl #2]
 800b490:	2900      	cmp	r1, #0
 800b492:	f000 808d 	beq.w	800b5b0 <__kernel_rem_pio2f+0x304>
 800b496:	4620      	mov	r0, r4
 800b498:	eeb7 0a00 	vmov.f32	s0, #112	; 0x3f800000  1.0
 800b49c:	9302      	str	r3, [sp, #8]
 800b49e:	f000 fc55 	bl	800bd4c <scalbnf>
 800b4a2:	9b02      	ldr	r3, [sp, #8]
 800b4a4:	ed9f 7a46 	vldr	s14, [pc, #280]	; 800b5c0 <__kernel_rem_pio2f+0x314>
 800b4a8:	0099      	lsls	r1, r3, #2
 800b4aa:	aa42      	add	r2, sp, #264	; 0x108
 800b4ac:	1850      	adds	r0, r2, r1
 800b4ae:	1d05      	adds	r5, r0, #4
 800b4b0:	461c      	mov	r4, r3
 800b4b2:	2c00      	cmp	r4, #0
 800b4b4:	f280 80b8 	bge.w	800b628 <__kernel_rem_pio2f+0x37c>
 800b4b8:	2500      	movs	r5, #0
 800b4ba:	1b5c      	subs	r4, r3, r5
 800b4bc:	2c00      	cmp	r4, #0
 800b4be:	f2c0 80d8 	blt.w	800b672 <__kernel_rem_pio2f+0x3c6>
 800b4c2:	4f3d      	ldr	r7, [pc, #244]	; (800b5b8 <__kernel_rem_pio2f+0x30c>)
 800b4c4:	eddf 7a3f 	vldr	s15, [pc, #252]	; 800b5c4 <__kernel_rem_pio2f+0x318>
 800b4c8:	2400      	movs	r4, #0
 800b4ca:	e0c6      	b.n	800b65a <__kernel_rem_pio2f+0x3ae>
 800b4cc:	f04f 0802 	mov.w	r8, #2
 800b4d0:	e78a      	b.n	800b3e8 <__kernel_rem_pio2f+0x13c>
 800b4d2:	ab06      	add	r3, sp, #24
 800b4d4:	f853 3020 	ldr.w	r3, [r3, r0, lsl #2]
 800b4d8:	b949      	cbnz	r1, 800b4ee <__kernel_rem_pio2f+0x242>
 800b4da:	b12b      	cbz	r3, 800b4e8 <__kernel_rem_pio2f+0x23c>
 800b4dc:	aa06      	add	r2, sp, #24
 800b4de:	f5c3 7380 	rsb	r3, r3, #256	; 0x100
 800b4e2:	f842 3020 	str.w	r3, [r2, r0, lsl #2]
 800b4e6:	2301      	movs	r3, #1
 800b4e8:	3001      	adds	r0, #1
 800b4ea:	4619      	mov	r1, r3
 800b4ec:	e781      	b.n	800b3f2 <__kernel_rem_pio2f+0x146>
 800b4ee:	aa06      	add	r2, sp, #24
 800b4f0:	f1c3 03ff 	rsb	r3, r3, #255	; 0xff
 800b4f4:	f842 3020 	str.w	r3, [r2, r0, lsl #2]
 800b4f8:	460b      	mov	r3, r1
 800b4fa:	e7f5      	b.n	800b4e8 <__kernel_rem_pio2f+0x23c>
 800b4fc:	1e68      	subs	r0, r5, #1
 800b4fe:	ab06      	add	r3, sp, #24
 800b500:	f853 3020 	ldr.w	r3, [r3, r0, lsl #2]
 800b504:	f003 037f 	and.w	r3, r3, #127	; 0x7f
 800b508:	aa06      	add	r2, sp, #24
 800b50a:	f842 3020 	str.w	r3, [r2, r0, lsl #2]
 800b50e:	e779      	b.n	800b404 <__kernel_rem_pio2f+0x158>
 800b510:	1e68      	subs	r0, r5, #1
 800b512:	ab06      	add	r3, sp, #24
 800b514:	f853 3020 	ldr.w	r3, [r3, r0, lsl #2]
 800b518:	f003 033f 	and.w	r3, r3, #63	; 0x3f
 800b51c:	e7f4      	b.n	800b508 <__kernel_rem_pio2f+0x25c>
 800b51e:	a906      	add	r1, sp, #24
 800b520:	f851 1020 	ldr.w	r1, [r1, r0, lsl #2]
 800b524:	3801      	subs	r0, #1
 800b526:	430a      	orrs	r2, r1
 800b528:	e7a9      	b.n	800b47e <__kernel_rem_pio2f+0x1d2>
 800b52a:	f10c 0c01 	add.w	ip, ip, #1
 800b52e:	f853 2d04 	ldr.w	r2, [r3, #-4]!
 800b532:	2a00      	cmp	r2, #0
 800b534:	d0f9      	beq.n	800b52a <__kernel_rem_pio2f+0x27e>
 800b536:	eb0b 0305 	add.w	r3, fp, r5
 800b53a:	aa1a      	add	r2, sp, #104	; 0x68
 800b53c:	009b      	lsls	r3, r3, #2
 800b53e:	1898      	adds	r0, r3, r2
 800b540:	3004      	adds	r0, #4
 800b542:	1c69      	adds	r1, r5, #1
 800b544:	3704      	adds	r7, #4
 800b546:	2200      	movs	r2, #0
 800b548:	4465      	add	r5, ip
 800b54a:	9005      	str	r0, [sp, #20]
 800b54c:	428d      	cmp	r5, r1
 800b54e:	f6ff af0a 	blt.w	800b366 <__kernel_rem_pio2f+0xba>
 800b552:	a81a      	add	r0, sp, #104	; 0x68
 800b554:	eb02 0c03 	add.w	ip, r2, r3
 800b558:	4484      	add	ip, r0
 800b55a:	9803      	ldr	r0, [sp, #12]
 800b55c:	f8dd e008 	ldr.w	lr, [sp, #8]
 800b560:	f850 0021 	ldr.w	r0, [r0, r1, lsl #2]
 800b564:	9001      	str	r0, [sp, #4]
 800b566:	ee07 0a90 	vmov	s15, r0
 800b56a:	eef8 7ae7 	vcvt.f32.s32	s15, s15
 800b56e:	9805      	ldr	r0, [sp, #20]
 800b570:	edcc 7a00 	vstr	s15, [ip]
 800b574:	eddf 7a13 	vldr	s15, [pc, #76]	; 800b5c4 <__kernel_rem_pio2f+0x318>
 800b578:	eb00 0802 	add.w	r8, r0, r2
 800b57c:	f04f 0c00 	mov.w	ip, #0
 800b580:	45d4      	cmp	ip, sl
 800b582:	dd0c      	ble.n	800b59e <__kernel_rem_pio2f+0x2f2>
 800b584:	eb02 0c07 	add.w	ip, r2, r7
 800b588:	a842      	add	r0, sp, #264	; 0x108
 800b58a:	4484      	add	ip, r0
 800b58c:	edcc 7a01 	vstr	s15, [ip, #4]
 800b590:	3101      	adds	r1, #1
 800b592:	3204      	adds	r2, #4
 800b594:	e7da      	b.n	800b54c <__kernel_rem_pio2f+0x2a0>
 800b596:	9b04      	ldr	r3, [sp, #16]
 800b598:	f04f 0c01 	mov.w	ip, #1
 800b59c:	e7c7      	b.n	800b52e <__kernel_rem_pio2f+0x282>
 800b59e:	ecfe 6a01 	vldmia	lr!, {s13}
 800b5a2:	ed38 7a01 	vldmdb	r8!, {s14}
 800b5a6:	f10c 0c01 	add.w	ip, ip, #1
 800b5aa:	eee6 7a87 	vfma.f32	s15, s13, s14
 800b5ae:	e7e7      	b.n	800b580 <__kernel_rem_pio2f+0x2d4>
 800b5b0:	3b01      	subs	r3, #1
 800b5b2:	e769      	b.n	800b488 <__kernel_rem_pio2f+0x1dc>
 800b5b4:	08033c74 	.word	0x08033c74
 800b5b8:	08033c48 	.word	0x08033c48
 800b5bc:	43800000 	.word	0x43800000
 800b5c0:	3b800000 	.word	0x3b800000
 800b5c4:	00000000 	.word	0x00000000
 800b5c8:	4260      	negs	r0, r4
 800b5ca:	eeb0 0a48 	vmov.f32	s0, s16
 800b5ce:	f000 fbbd 	bl	800bd4c <scalbnf>
 800b5d2:	ed1f 7a06 	vldr	s14, [pc, #-24]	; 800b5bc <__kernel_rem_pio2f+0x310>
 800b5d6:	eeb4 0ac7 	vcmpe.f32	s0, s14
 800b5da:	eef1 fa10 	vmrs	APSR_nzcv, fpscr
 800b5de:	db1a      	blt.n	800b616 <__kernel_rem_pio2f+0x36a>
 800b5e0:	ed5f 7a09 	vldr	s15, [pc, #-36]	; 800b5c0 <__kernel_rem_pio2f+0x314>
 800b5e4:	ee60 7a27 	vmul.f32	s15, s0, s15
 800b5e8:	aa06      	add	r2, sp, #24
 800b5ea:	eefd 7ae7 	vcvt.s32.f32	s15, s15
 800b5ee:	a906      	add	r1, sp, #24
 800b5f0:	eef8 7ae7 	vcvt.f32.s32	s15, s15
 800b5f4:	3408      	adds	r4, #8
 800b5f6:	eea7 0ac7 	vfms.f32	s0, s15, s14
 800b5fa:	eefd 7ae7 	vcvt.s32.f32	s15, s15
 800b5fe:	eebd 0ac0 	vcvt.s32.f32	s0, s0
 800b602:	ee10 3a10 	vmov	r3, s0
 800b606:	f842 3025 	str.w	r3, [r2, r5, lsl #2]
 800b60a:	1c6b      	adds	r3, r5, #1
 800b60c:	ee17 2a90 	vmov	r2, s15
 800b610:	f841 2023 	str.w	r2, [r1, r3, lsl #2]
 800b614:	e73f      	b.n	800b496 <__kernel_rem_pio2f+0x1ea>
 800b616:	eebd 0ac0 	vcvt.s32.f32	s0, s0
 800b61a:	aa06      	add	r2, sp, #24
 800b61c:	ee10 3a10 	vmov	r3, s0
 800b620:	f842 3025 	str.w	r3, [r2, r5, lsl #2]
 800b624:	462b      	mov	r3, r5
 800b626:	e736      	b.n	800b496 <__kernel_rem_pio2f+0x1ea>
 800b628:	aa06      	add	r2, sp, #24
 800b62a:	f852 2024 	ldr.w	r2, [r2, r4, lsl #2]
 800b62e:	9202      	str	r2, [sp, #8]
 800b630:	ee07 2a90 	vmov	s15, r2
 800b634:	eef8 7ae7 	vcvt.f32.s32	s15, s15
 800b638:	3c01      	subs	r4, #1
 800b63a:	ee67 7a80 	vmul.f32	s15, s15, s0
 800b63e:	ee20 0a07 	vmul.f32	s0, s0, s14
 800b642:	ed65 7a01 	vstmdb	r5!, {s15}
 800b646:	e734      	b.n	800b4b2 <__kernel_rem_pio2f+0x206>
 800b648:	eb00 0c84 	add.w	ip, r0, r4, lsl #2
 800b64c:	ecf7 6a01 	vldmia	r7!, {s13}
 800b650:	ed9c 7a00 	vldr	s14, [ip]
 800b654:	eee6 7a87 	vfma.f32	s15, s13, s14
 800b658:	3401      	adds	r4, #1
 800b65a:	454c      	cmp	r4, r9
 800b65c:	dc01      	bgt.n	800b662 <__kernel_rem_pio2f+0x3b6>
 800b65e:	42a5      	cmp	r5, r4
 800b660:	daf2      	bge.n	800b648 <__kernel_rem_pio2f+0x39c>
 800b662:	aa56      	add	r2, sp, #344	; 0x158
 800b664:	eb02 0485 	add.w	r4, r2, r5, lsl #2
 800b668:	ed44 7a28 	vstr	s15, [r4, #-160]	; 0xffffff60
 800b66c:	3501      	adds	r5, #1
 800b66e:	3804      	subs	r0, #4
 800b670:	e723      	b.n	800b4ba <__kernel_rem_pio2f+0x20e>
 800b672:	9a64      	ldr	r2, [sp, #400]	; 0x190
 800b674:	2a03      	cmp	r2, #3
 800b676:	d84d      	bhi.n	800b714 <__kernel_rem_pio2f+0x468>
 800b678:	e8df f002 	tbb	[pc, r2]
 800b67c:	021f1f3e 	.word	0x021f1f3e
 800b680:	aa56      	add	r2, sp, #344	; 0x158
 800b682:	4411      	add	r1, r2
 800b684:	399c      	subs	r1, #156	; 0x9c
 800b686:	4608      	mov	r0, r1
 800b688:	461c      	mov	r4, r3
 800b68a:	2c00      	cmp	r4, #0
 800b68c:	dc5f      	bgt.n	800b74e <__kernel_rem_pio2f+0x4a2>
 800b68e:	4608      	mov	r0, r1
 800b690:	461c      	mov	r4, r3
 800b692:	2c01      	cmp	r4, #1
 800b694:	dc6b      	bgt.n	800b76e <__kernel_rem_pio2f+0x4c2>
 800b696:	ed5f 7a35 	vldr	s15, [pc, #-212]	; 800b5c4 <__kernel_rem_pio2f+0x318>
 800b69a:	2b01      	cmp	r3, #1
 800b69c:	dc77      	bgt.n	800b78e <__kernel_rem_pio2f+0x4e2>
 800b69e:	eddd 6a2e 	vldr	s13, [sp, #184]	; 0xb8
 800b6a2:	ed9d 7a2f 	vldr	s14, [sp, #188]	; 0xbc
 800b6a6:	f1b8 0f00 	cmp.w	r8, #0
 800b6aa:	d176      	bne.n	800b79a <__kernel_rem_pio2f+0x4ee>
 800b6ac:	edc6 6a00 	vstr	s13, [r6]
 800b6b0:	ed86 7a01 	vstr	s14, [r6, #4]
 800b6b4:	edc6 7a02 	vstr	s15, [r6, #8]
 800b6b8:	e02c      	b.n	800b714 <__kernel_rem_pio2f+0x468>
 800b6ba:	aa56      	add	r2, sp, #344	; 0x158
 800b6bc:	4411      	add	r1, r2
 800b6be:	ed1f 7a3f 	vldr	s14, [pc, #-252]	; 800b5c4 <__kernel_rem_pio2f+0x318>
 800b6c2:	399c      	subs	r1, #156	; 0x9c
 800b6c4:	4618      	mov	r0, r3
 800b6c6:	2800      	cmp	r0, #0
 800b6c8:	da32      	bge.n	800b730 <__kernel_rem_pio2f+0x484>
 800b6ca:	f1b8 0f00 	cmp.w	r8, #0
 800b6ce:	d035      	beq.n	800b73c <__kernel_rem_pio2f+0x490>
 800b6d0:	eef1 7a47 	vneg.f32	s15, s14
 800b6d4:	edc6 7a00 	vstr	s15, [r6]
 800b6d8:	eddd 7a2e 	vldr	s15, [sp, #184]	; 0xb8
 800b6dc:	ee77 7ac7 	vsub.f32	s15, s15, s14
 800b6e0:	a82f      	add	r0, sp, #188	; 0xbc
 800b6e2:	2101      	movs	r1, #1
 800b6e4:	428b      	cmp	r3, r1
 800b6e6:	da2c      	bge.n	800b742 <__kernel_rem_pio2f+0x496>
 800b6e8:	f1b8 0f00 	cmp.w	r8, #0
 800b6ec:	d001      	beq.n	800b6f2 <__kernel_rem_pio2f+0x446>
 800b6ee:	eef1 7a67 	vneg.f32	s15, s15
 800b6f2:	edc6 7a01 	vstr	s15, [r6, #4]
 800b6f6:	e00d      	b.n	800b714 <__kernel_rem_pio2f+0x468>
 800b6f8:	aa56      	add	r2, sp, #344	; 0x158
 800b6fa:	4411      	add	r1, r2
 800b6fc:	ed5f 7a4f 	vldr	s15, [pc, #-316]	; 800b5c4 <__kernel_rem_pio2f+0x318>
 800b700:	399c      	subs	r1, #156	; 0x9c
 800b702:	2b00      	cmp	r3, #0
 800b704:	da0e      	bge.n	800b724 <__kernel_rem_pio2f+0x478>
 800b706:	f1b8 0f00 	cmp.w	r8, #0
 800b70a:	d001      	beq.n	800b710 <__kernel_rem_pio2f+0x464>
 800b70c:	eef1 7a67 	vneg.f32	s15, s15
 800b710:	edc6 7a00 	vstr	s15, [r6]
 800b714:	9b01      	ldr	r3, [sp, #4]
 800b716:	f003 0007 	and.w	r0, r3, #7
 800b71a:	b057      	add	sp, #348	; 0x15c
 800b71c:	ecbd 8b04 	vpop	{d8-d9}
 800b720:	e8bd 8ff0 	ldmia.w	sp!, {r4, r5, r6, r7, r8, r9, sl, fp, pc}
 800b724:	ed31 7a01 	vldmdb	r1!, {s14}
 800b728:	3b01      	subs	r3, #1
 800b72a:	ee77 7a87 	vadd.f32	s15, s15, s14
 800b72e:	e7e8      	b.n	800b702 <__kernel_rem_pio2f+0x456>
 800b730:	ed71 7a01 	vldmdb	r1!, {s15}
 800b734:	3801      	subs	r0, #1
 800b736:	ee37 7a27 	vadd.f32	s14, s14, s15
 800b73a:	e7c4      	b.n	800b6c6 <__kernel_rem_pio2f+0x41a>
 800b73c:	eef0 7a47 	vmov.f32	s15, s14
 800b740:	e7c8      	b.n	800b6d4 <__kernel_rem_pio2f+0x428>
 800b742:	ecb0 7a01 	vldmia	r0!, {s14}
 800b746:	3101      	adds	r1, #1
 800b748:	ee77 7a87 	vadd.f32	s15, s15, s14
 800b74c:	e7ca      	b.n	800b6e4 <__kernel_rem_pio2f+0x438>
 800b74e:	ed50 7a02 	vldr	s15, [r0, #-8]
 800b752:	ed70 6a01 	vldmdb	r0!, {s13}
 800b756:	ee37 7aa6 	vadd.f32	s14, s15, s13
 800b75a:	3c01      	subs	r4, #1
 800b75c:	ee77 7ac7 	vsub.f32	s15, s15, s14
 800b760:	ed00 7a01 	vstr	s14, [r0, #-4]
 800b764:	ee77 7aa6 	vadd.f32	s15, s15, s13
 800b768:	edc0 7a00 	vstr	s15, [r0]
 800b76c:	e78d      	b.n	800b68a <__kernel_rem_pio2f+0x3de>
 800b76e:	ed50 7a02 	vldr	s15, [r0, #-8]
 800b772:	ed70 6a01 	vldmdb	r0!, {s13}
 800b776:	ee37 7aa6 	vadd.f32	s14, s15, s13
 800b77a:	3c01      	subs	r4, #1
 800b77c:	ee77 7ac7 	vsub.f32	s15, s15, s14
 800b780:	ed00 7a01 	vstr	s14, [r0, #-4]
 800b784:	ee77 7aa6 	vadd.f32	s15, s15, s13
 800b788:	edc0 7a00 	vstr	s15, [r0]
 800b78c:	e781      	b.n	800b692 <__kernel_rem_pio2f+0x3e6>
 800b78e:	ed31 7a01 	vldmdb	r1!, {s14}
 800b792:	3b01      	subs	r3, #1
 800b794:	ee77 7a87 	vadd.f32	s15, s15, s14
 800b798:	e77f      	b.n	800b69a <__kernel_rem_pio2f+0x3ee>
 800b79a:	eef1 6a66 	vneg.f32	s13, s13
 800b79e:	eeb1 7a47 	vneg.f32	s14, s14
 800b7a2:	edc6 6a00 	vstr	s13, [r6]
 800b7a6:	ed86 7a01 	vstr	s14, [r6, #4]
 800b7aa:	eef1 7a67 	vneg.f32	s15, s15
 800b7ae:	e781      	b.n	800b6b4 <__kernel_rem_pio2f+0x408>

0800b7b0 <__kernel_sinf>:
 800b7b0:	ee10 3a10 	vmov	r3, s0
 800b7b4:	f023 4300 	bic.w	r3, r3, #2147483648	; 0x80000000
 800b7b8:	f1b3 5f48 	cmp.w	r3, #838860800	; 0x32000000
 800b7bc:	da04      	bge.n	800b7c8 <__kernel_sinf+0x18>
 800b7be:	eefd 7ac0 	vcvt.s32.f32	s15, s0
 800b7c2:	ee17 3a90 	vmov	r3, s15
 800b7c6:	b35b      	cbz	r3, 800b820 <__kernel_sinf+0x70>
 800b7c8:	ee20 7a00 	vmul.f32	s14, s0, s0
 800b7cc:	eddf 7a15 	vldr	s15, [pc, #84]	; 800b824 <__kernel_sinf+0x74>
 800b7d0:	ed9f 6a15 	vldr	s12, [pc, #84]	; 800b828 <__kernel_sinf+0x78>
 800b7d4:	eea7 6a27 	vfma.f32	s12, s14, s15
 800b7d8:	eddf 7a14 	vldr	s15, [pc, #80]	; 800b82c <__kernel_sinf+0x7c>
 800b7dc:	eee6 7a07 	vfma.f32	s15, s12, s14
 800b7e0:	ed9f 6a13 	vldr	s12, [pc, #76]	; 800b830 <__kernel_sinf+0x80>
 800b7e4:	eea7 6a87 	vfma.f32	s12, s15, s14
 800b7e8:	eddf 7a12 	vldr	s15, [pc, #72]	; 800b834 <__kernel_sinf+0x84>
 800b7ec:	ee60 6a07 	vmul.f32	s13, s0, s14
 800b7f0:	eee6 7a07 	vfma.f32	s15, s12, s14
 800b7f4:	b930      	cbnz	r0, 800b804 <__kernel_sinf+0x54>
 800b7f6:	ed9f 6a10 	vldr	s12, [pc, #64]	; 800b838 <__kernel_sinf+0x88>
 800b7fa:	eea7 6a27 	vfma.f32	s12, s14, s15
 800b7fe:	eea6 0a26 	vfma.f32	s0, s12, s13
 800b802:	4770      	bx	lr
 800b804:	ee67 7ae6 	vnmul.f32	s15, s15, s13
 800b808:	eeb6 6a00 	vmov.f32	s12, #96	; 0x3f000000  0.5
 800b80c:	eee0 7a86 	vfma.f32	s15, s1, s12
 800b810:	eed7 0a87 	vfnms.f32	s1, s15, s14
 800b814:	eddf 7a09 	vldr	s15, [pc, #36]	; 800b83c <__kernel_sinf+0x8c>
 800b818:	eee6 0aa7 	vfma.f32	s1, s13, s15
 800b81c:	ee30 0a60 	vsub.f32	s0, s0, s1
 800b820:	4770      	bx	lr
 800b822:	bf00      	nop
 800b824:	2f2ec9d3 	.word	0x2f2ec9d3
 800b828:	b2d72f34 	.word	0xb2d72f34
 800b82c:	3638ef1b 	.word	0x3638ef1b
 800b830:	b9500d01 	.word	0xb9500d01
 800b834:	3c088889 	.word	0x3c088889
 800b838:	be2aaaab 	.word	0xbe2aaaab
 800b83c:	3e2aaaab 	.word	0x3e2aaaab

0800b840 <__kernel_tanf>:
 800b840:	b508      	push	{r3, lr}
 800b842:	ee10 3a10 	vmov	r3, s0
 800b846:	f023 4200 	bic.w	r2, r3, #2147483648	; 0x80000000
 800b84a:	f1b2 5f46 	cmp.w	r2, #830472192	; 0x31800000
 800b84e:	eef0 7a40 	vmov.f32	s15, s0
 800b852:	da17      	bge.n	800b884 <__kernel_tanf+0x44>
 800b854:	eebd 7ac0 	vcvt.s32.f32	s14, s0
 800b858:	ee17 1a10 	vmov	r1, s14
 800b85c:	bb41      	cbnz	r1, 800b8b0 <__kernel_tanf+0x70>
 800b85e:	1c43      	adds	r3, r0, #1
 800b860:	4313      	orrs	r3, r2
 800b862:	d108      	bne.n	800b876 <__kernel_tanf+0x36>
 800b864:	f7fd fc1c 	bl	80090a0 <fabsf>
 800b868:	eeb7 7a00 	vmov.f32	s14, #112	; 0x3f800000  1.0
 800b86c:	eec7 7a00 	vdiv.f32	s15, s14, s0
 800b870:	eeb0 0a67 	vmov.f32	s0, s15
 800b874:	bd08      	pop	{r3, pc}
 800b876:	2801      	cmp	r0, #1
 800b878:	d0fa      	beq.n	800b870 <__kernel_tanf+0x30>
 800b87a:	eebf 7a00 	vmov.f32	s14, #240	; 0xbf800000 -1.0
 800b87e:	eec7 7a00 	vdiv.f32	s15, s14, s0
 800b882:	e7f5      	b.n	800b870 <__kernel_tanf+0x30>
 800b884:	494e      	ldr	r1, [pc, #312]	; (800b9c0 <__kernel_tanf+0x180>)
 800b886:	428a      	cmp	r2, r1
 800b888:	dd12      	ble.n	800b8b0 <__kernel_tanf+0x70>
 800b88a:	2b00      	cmp	r3, #0
 800b88c:	ed9f 7a4d 	vldr	s14, [pc, #308]	; 800b9c4 <__kernel_tanf+0x184>
 800b890:	bfb8      	it	lt
 800b892:	eef1 7a40 	vneglt.f32	s15, s0
 800b896:	ee77 7a67 	vsub.f32	s15, s14, s15
 800b89a:	ed9f 7a4b 	vldr	s14, [pc, #300]	; 800b9c8 <__kernel_tanf+0x188>
 800b89e:	bfb8      	it	lt
 800b8a0:	eef1 0a60 	vneglt.f32	s1, s1
 800b8a4:	ee77 0a60 	vsub.f32	s1, s14, s1
 800b8a8:	ee70 7aa7 	vadd.f32	s15, s1, s15
 800b8ac:	eddf 0a47 	vldr	s1, [pc, #284]	; 800b9cc <__kernel_tanf+0x18c>
 800b8b0:	ed9f 6a47 	vldr	s12, [pc, #284]	; 800b9d0 <__kernel_tanf+0x190>
 800b8b4:	eddf 5a47 	vldr	s11, [pc, #284]	; 800b9d4 <__kernel_tanf+0x194>
 800b8b8:	ed9f 5a47 	vldr	s10, [pc, #284]	; 800b9d8 <__kernel_tanf+0x198>
 800b8bc:	4940      	ldr	r1, [pc, #256]	; (800b9c0 <__kernel_tanf+0x180>)
 800b8be:	ee67 6aa7 	vmul.f32	s13, s15, s15
 800b8c2:	428a      	cmp	r2, r1
 800b8c4:	ee26 7aa6 	vmul.f32	s14, s13, s13
 800b8c8:	ee67 4aa6 	vmul.f32	s9, s15, s13
 800b8cc:	eee7 5a06 	vfma.f32	s11, s14, s12
 800b8d0:	ed9f 6a42 	vldr	s12, [pc, #264]	; 800b9dc <__kernel_tanf+0x19c>
 800b8d4:	eea5 6a87 	vfma.f32	s12, s11, s14
 800b8d8:	eddf 5a41 	vldr	s11, [pc, #260]	; 800b9e0 <__kernel_tanf+0x1a0>
 800b8dc:	eee6 5a07 	vfma.f32	s11, s12, s14
 800b8e0:	ed9f 6a40 	vldr	s12, [pc, #256]	; 800b9e4 <__kernel_tanf+0x1a4>
 800b8e4:	eea5 6a87 	vfma.f32	s12, s11, s14
 800b8e8:	eddf 5a3f 	vldr	s11, [pc, #252]	; 800b9e8 <__kernel_tanf+0x1a8>
 800b8ec:	eee6 5a07 	vfma.f32	s11, s12, s14
 800b8f0:	ed9f 6a3e 	vldr	s12, [pc, #248]	; 800b9ec <__kernel_tanf+0x1ac>
 800b8f4:	eea7 6a05 	vfma.f32	s12, s14, s10
 800b8f8:	ed9f 5a3d 	vldr	s10, [pc, #244]	; 800b9f0 <__kernel_tanf+0x1b0>
 800b8fc:	eea6 5a07 	vfma.f32	s10, s12, s14
 800b900:	ed9f 6a3c 	vldr	s12, [pc, #240]	; 800b9f4 <__kernel_tanf+0x1b4>
 800b904:	eea5 6a07 	vfma.f32	s12, s10, s14
 800b908:	ed9f 5a3b 	vldr	s10, [pc, #236]	; 800b9f8 <__kernel_tanf+0x1b8>
 800b90c:	eea6 5a07 	vfma.f32	s10, s12, s14
 800b910:	ed9f 6a3a 	vldr	s12, [pc, #232]	; 800b9fc <__kernel_tanf+0x1bc>
 800b914:	eea5 6a07 	vfma.f32	s12, s10, s14
 800b918:	eeb0 7a46 	vmov.f32	s14, s12
 800b91c:	eea5 7aa6 	vfma.f32	s14, s11, s13
 800b920:	eeb0 6a60 	vmov.f32	s12, s1
 800b924:	eea7 6a24 	vfma.f32	s12, s14, s9
 800b928:	ed9f 7a35 	vldr	s14, [pc, #212]	; 800ba00 <__kernel_tanf+0x1c0>
 800b92c:	eee6 0a26 	vfma.f32	s1, s12, s13
 800b930:	eee4 0a87 	vfma.f32	s1, s9, s14
 800b934:	ee77 6aa0 	vadd.f32	s13, s15, s1
 800b938:	dd1d      	ble.n	800b976 <__kernel_tanf+0x136>
 800b93a:	ee07 0a10 	vmov	s14, r0
 800b93e:	eeb8 7ac7 	vcvt.f32.s32	s14, s14
 800b942:	ee66 5aa6 	vmul.f32	s11, s13, s13
 800b946:	ee76 6a87 	vadd.f32	s13, s13, s14
 800b94a:	179b      	asrs	r3, r3, #30
 800b94c:	ee85 6aa6 	vdiv.f32	s12, s11, s13
 800b950:	f003 0302 	and.w	r3, r3, #2
 800b954:	f1c3 0301 	rsb	r3, r3, #1
 800b958:	eef0 6a00 	vmov.f32	s13, #0	; 0x40000000  2.0
 800b95c:	ee76 0a60 	vsub.f32	s1, s12, s1
 800b960:	ee77 7ae0 	vsub.f32	s15, s15, s1
 800b964:	eea7 7ae6 	vfms.f32	s14, s15, s13
 800b968:	ee07 3a90 	vmov	s15, r3
 800b96c:	eef8 7ae7 	vcvt.f32.s32	s15, s15
 800b970:	ee67 7a27 	vmul.f32	s15, s14, s15
 800b974:	e77c      	b.n	800b870 <__kernel_tanf+0x30>
 800b976:	2801      	cmp	r0, #1
 800b978:	d01f      	beq.n	800b9ba <__kernel_tanf+0x17a>
 800b97a:	eebf 7a00 	vmov.f32	s14, #240	; 0xbf800000 -1.0
 800b97e:	eec7 5a26 	vdiv.f32	s11, s14, s13
 800b982:	4b20      	ldr	r3, [pc, #128]	; (800ba04 <__kernel_tanf+0x1c4>)
 800b984:	ee16 2a90 	vmov	r2, s13
 800b988:	401a      	ands	r2, r3
 800b98a:	ee06 2a10 	vmov	s12, r2
 800b98e:	ee15 2a90 	vmov	r2, s11
 800b992:	4013      	ands	r3, r2
 800b994:	ee07 3a10 	vmov	s14, r3
 800b998:	eef7 6a00 	vmov.f32	s13, #112	; 0x3f800000  1.0
 800b99c:	eee6 6a07 	vfma.f32	s13, s12, s14
 800b9a0:	ee76 7a67 	vsub.f32	s15, s12, s15
 800b9a4:	ee70 0ae7 	vsub.f32	s1, s1, s15
 800b9a8:	eef0 7a66 	vmov.f32	s15, s13
 800b9ac:	eee7 7a20 	vfma.f32	s15, s14, s1
 800b9b0:	eea7 7aa5 	vfma.f32	s14, s15, s11
 800b9b4:	eef0 7a47 	vmov.f32	s15, s14
 800b9b8:	e75a      	b.n	800b870 <__kernel_tanf+0x30>
 800b9ba:	eef0 7a66 	vmov.f32	s15, s13
 800b9be:	e757      	b.n	800b870 <__kernel_tanf+0x30>
 800b9c0:	3f2ca13f 	.word	0x3f2ca13f
 800b9c4:	3f490fda 	.word	0x3f490fda
 800b9c8:	33222168 	.word	0x33222168
 800b9cc:	00000000 	.word	0x00000000
 800b9d0:	37d95384 	.word	0x37d95384
 800b9d4:	3895c07a 	.word	0x3895c07a
 800b9d8:	b79bae5f 	.word	0xb79bae5f
 800b9dc:	398137b9 	.word	0x398137b9
 800b9e0:	3abede48 	.word	0x3abede48
 800b9e4:	3c11371f 	.word	0x3c11371f
 800b9e8:	3d5d0dd1 	.word	0x3d5d0dd1
 800b9ec:	38a3f445 	.word	0x38a3f445
 800b9f0:	3a1a26c8 	.word	0x3a1a26c8
 800b9f4:	3b6b6916 	.word	0x3b6b6916
 800b9f8:	3cb327a4 	.word	0x3cb327a4
 800b9fc:	3e088889 	.word	0x3e088889
 800ba00:	3eaaaaab 	.word	0x3eaaaaab
 800ba04:	fffff000 	.word	0xfffff000

0800ba08 <matherr>:
 800ba08:	2000      	movs	r0, #0
 800ba0a:	4770      	bx	lr
 800ba0c:	0000      	movs	r0, r0
	...

0800ba10 <nan>:
 800ba10:	ed9f 0b01 	vldr	d0, [pc, #4]	; 800ba18 <nan+0x8>
 800ba14:	4770      	bx	lr
 800ba16:	bf00      	nop
 800ba18:	00000000 	.word	0x00000000
 800ba1c:	7ff80000 	.word	0x7ff80000

0800ba20 <expm1f>:
 800ba20:	ee10 2a10 	vmov	r2, s0
 800ba24:	4985      	ldr	r1, [pc, #532]	; (800bc3c <expm1f+0x21c>)
 800ba26:	f022 4300 	bic.w	r3, r2, #2147483648	; 0x80000000
 800ba2a:	428b      	cmp	r3, r1
 800ba2c:	d924      	bls.n	800ba78 <expm1f+0x58>
 800ba2e:	f1b3 4fff 	cmp.w	r3, #2139095040	; 0x7f800000
 800ba32:	d902      	bls.n	800ba3a <expm1f+0x1a>
 800ba34:	ee30 0a00 	vadd.f32	s0, s0, s0
 800ba38:	4770      	bx	lr
 800ba3a:	d106      	bne.n	800ba4a <expm1f+0x2a>
 800ba3c:	2a00      	cmp	r2, #0
 800ba3e:	eeff 7a00 	vmov.f32	s15, #240	; 0xbf800000 -1.0
 800ba42:	bfb8      	it	lt
 800ba44:	eeb0 0a67 	vmovlt.f32	s0, s15
 800ba48:	4770      	bx	lr
 800ba4a:	2a00      	cmp	r2, #0
 800ba4c:	db08      	blt.n	800ba60 <expm1f+0x40>
 800ba4e:	4a7c      	ldr	r2, [pc, #496]	; (800bc40 <expm1f+0x220>)
 800ba50:	4293      	cmp	r3, r2
 800ba52:	f240 80eb 	bls.w	800bc2c <expm1f+0x20c>
 800ba56:	ed9f 0a7b 	vldr	s0, [pc, #492]	; 800bc44 <expm1f+0x224>
 800ba5a:	ee20 0a00 	vmul.f32	s0, s0, s0
 800ba5e:	4770      	bx	lr
 800ba60:	eddf 7a79 	vldr	s15, [pc, #484]	; 800bc48 <expm1f+0x228>
 800ba64:	ee70 7a27 	vadd.f32	s15, s0, s15
 800ba68:	eef5 7ac0 	vcmpe.f32	s15, #0.0
 800ba6c:	eef1 fa10 	vmrs	APSR_nzcv, fpscr
 800ba70:	d554      	bpl.n	800bb1c <expm1f+0xfc>
 800ba72:	eebf 0a00 	vmov.f32	s0, #240	; 0xbf800000 -1.0
 800ba76:	4770      	bx	lr
 800ba78:	4974      	ldr	r1, [pc, #464]	; (800bc4c <expm1f+0x22c>)
 800ba7a:	428b      	cmp	r3, r1
 800ba7c:	d96d      	bls.n	800bb5a <expm1f+0x13a>
 800ba7e:	4974      	ldr	r1, [pc, #464]	; (800bc50 <expm1f+0x230>)
 800ba80:	428b      	cmp	r3, r1
 800ba82:	d84b      	bhi.n	800bb1c <expm1f+0xfc>
 800ba84:	ed9f 7a73 	vldr	s14, [pc, #460]	; 800bc54 <expm1f+0x234>
 800ba88:	2a00      	cmp	r2, #0
 800ba8a:	bfa7      	ittee	ge
 800ba8c:	ee30 7a47 	vsubge.f32	s14, s0, s14
 800ba90:	eddf 7a71 	vldrge	s15, [pc, #452]	; 800bc58 <expm1f+0x238>
 800ba94:	eddf 7a71 	vldrlt	s15, [pc, #452]	; 800bc5c <expm1f+0x23c>
 800ba98:	ee30 7a07 	vaddlt.f32	s14, s0, s14
 800ba9c:	bfac      	ite	ge
 800ba9e:	2301      	movge	r3, #1
 800baa0:	f04f 33ff 	movlt.w	r3, #4294967295
 800baa4:	ee37 0a67 	vsub.f32	s0, s14, s15
 800baa8:	ee37 7a40 	vsub.f32	s14, s14, s0
 800baac:	ee77 7a67 	vsub.f32	s15, s14, s15
 800bab0:	eef6 5a00 	vmov.f32	s11, #96	; 0x3f000000  0.5
 800bab4:	ee20 5a25 	vmul.f32	s10, s0, s11
 800bab8:	eddf 6a69 	vldr	s13, [pc, #420]	; 800bc60 <expm1f+0x240>
 800babc:	ed9f 6a69 	vldr	s12, [pc, #420]	; 800bc64 <expm1f+0x244>
 800bac0:	ee20 7a05 	vmul.f32	s14, s0, s10
 800bac4:	eea7 6a26 	vfma.f32	s12, s14, s13
 800bac8:	eddf 6a67 	vldr	s13, [pc, #412]	; 800bc68 <expm1f+0x248>
 800bacc:	eee6 6a07 	vfma.f32	s13, s12, s14
 800bad0:	ed9f 6a66 	vldr	s12, [pc, #408]	; 800bc6c <expm1f+0x24c>
 800bad4:	eea6 6a87 	vfma.f32	s12, s13, s14
 800bad8:	eddf 6a65 	vldr	s13, [pc, #404]	; 800bc70 <expm1f+0x250>
 800badc:	eee6 6a07 	vfma.f32	s13, s12, s14
 800bae0:	eeb7 6a00 	vmov.f32	s12, #112	; 0x3f800000  1.0
 800bae4:	eef0 4a46 	vmov.f32	s9, s12
 800bae8:	eee6 4a87 	vfma.f32	s9, s13, s14
 800baec:	eef0 6a64 	vmov.f32	s13, s9
 800baf0:	eef0 4a08 	vmov.f32	s9, #8	; 0x40400000  3.0
 800baf4:	eee5 4a66 	vfms.f32	s9, s10, s13
 800baf8:	ee36 5ae4 	vsub.f32	s10, s13, s9
 800bafc:	eef1 6a08 	vmov.f32	s13, #24	; 0x40c00000  6.0
 800bb00:	eee0 6a64 	vfms.f32	s13, s0, s9
 800bb04:	eef0 4a66 	vmov.f32	s9, s13
 800bb08:	eec5 6a24 	vdiv.f32	s13, s10, s9
 800bb0c:	ee66 6a87 	vmul.f32	s13, s13, s14
 800bb10:	bb8b      	cbnz	r3, 800bb76 <expm1f+0x156>
 800bb12:	eef0 7a47 	vmov.f32	s15, s14
 800bb16:	eed0 7a26 	vfnms.f32	s15, s0, s13
 800bb1a:	e027      	b.n	800bb6c <expm1f+0x14c>
 800bb1c:	eddf 7a55 	vldr	s15, [pc, #340]	; 800bc74 <expm1f+0x254>
 800bb20:	2a00      	cmp	r2, #0
 800bb22:	ee20 7a27 	vmul.f32	s14, s0, s15
 800bb26:	eef6 6a00 	vmov.f32	s13, #96	; 0x3f000000  0.5
 800bb2a:	eefe 7a00 	vmov.f32	s15, #224	; 0xbf000000 -0.5
 800bb2e:	bfa8      	it	ge
 800bb30:	eef0 7a66 	vmovge.f32	s15, s13
 800bb34:	ee77 7a87 	vadd.f32	s15, s15, s14
 800bb38:	ed9f 7a46 	vldr	s14, [pc, #280]	; 800bc54 <expm1f+0x234>
 800bb3c:	eddf 6a46 	vldr	s13, [pc, #280]	; 800bc58 <expm1f+0x238>
 800bb40:	eefd 7ae7 	vcvt.s32.f32	s15, s15
 800bb44:	ee17 3a90 	vmov	r3, s15
 800bb48:	eef8 7ae7 	vcvt.f32.s32	s15, s15
 800bb4c:	eea7 0ac7 	vfms.f32	s0, s15, s14
 800bb50:	ee67 7aa6 	vmul.f32	s15, s15, s13
 800bb54:	eeb0 7a40 	vmov.f32	s14, s0
 800bb58:	e7a4      	b.n	800baa4 <expm1f+0x84>
 800bb5a:	f1b3 5f4c 	cmp.w	r3, #855638016	; 0x33000000
 800bb5e:	d208      	bcs.n	800bb72 <expm1f+0x152>
 800bb60:	eddf 7a38 	vldr	s15, [pc, #224]	; 800bc44 <expm1f+0x224>
 800bb64:	ee70 7a27 	vadd.f32	s15, s0, s15
 800bb68:	ee77 7ae7 	vsub.f32	s15, s15, s15
 800bb6c:	ee30 0a67 	vsub.f32	s0, s0, s15
 800bb70:	4770      	bx	lr
 800bb72:	2300      	movs	r3, #0
 800bb74:	e79c      	b.n	800bab0 <expm1f+0x90>
 800bb76:	ee76 6ae7 	vsub.f32	s13, s13, s15
 800bb7a:	1c5a      	adds	r2, r3, #1
 800bb7c:	eed6 7a80 	vfnms.f32	s15, s13, s0
 800bb80:	ee77 7ac7 	vsub.f32	s15, s15, s14
 800bb84:	d106      	bne.n	800bb94 <expm1f+0x174>
 800bb86:	ee70 7a67 	vsub.f32	s15, s0, s15
 800bb8a:	eebe 0a00 	vmov.f32	s0, #224	; 0xbf000000 -0.5
 800bb8e:	eea7 0aa5 	vfma.f32	s0, s15, s11
 800bb92:	4770      	bx	lr
 800bb94:	2b01      	cmp	r3, #1
 800bb96:	d118      	bne.n	800bbca <expm1f+0x1aa>
 800bb98:	eebd 7a00 	vmov.f32	s14, #208	; 0xbe800000 -0.250
 800bb9c:	eeb4 0ac7 	vcmpe.f32	s0, s14
 800bba0:	eef1 fa10 	vmrs	APSR_nzcv, fpscr
 800bba4:	bf41      	itttt	mi
 800bba6:	ee30 0a25 	vaddmi.f32	s0, s0, s11
 800bbaa:	ee37 0ac0 	vsubmi.f32	s0, s15, s0
 800bbae:	eef8 7a00 	vmovmi.f32	s15, #128	; 0xc0000000 -2.0
 800bbb2:	ee20 0a27 	vmulmi.f32	s0, s0, s15
 800bbb6:	bf5f      	itttt	pl
 800bbb8:	ee30 0a67 	vsubpl.f32	s0, s0, s15
 800bbbc:	eef0 7a00 	vmovpl.f32	s15, #0	; 0x40000000  2.0
 800bbc0:	eea0 6a27 	vfmapl.f32	s12, s0, s15
 800bbc4:	eeb0 0a46 	vmovpl.f32	s0, s12
 800bbc8:	4770      	bx	lr
 800bbca:	1c5a      	adds	r2, r3, #1
 800bbcc:	2a39      	cmp	r2, #57	; 0x39
 800bbce:	ea4f 51c3 	mov.w	r1, r3, lsl #23
 800bbd2:	d90b      	bls.n	800bbec <expm1f+0x1cc>
 800bbd4:	ee37 0ac0 	vsub.f32	s0, s15, s0
 800bbd8:	ee36 0a40 	vsub.f32	s0, s12, s0
 800bbdc:	ee10 3a10 	vmov	r3, s0
 800bbe0:	440b      	add	r3, r1
 800bbe2:	ee00 3a10 	vmov	s0, r3
 800bbe6:	ee30 0a46 	vsub.f32	s0, s0, s12
 800bbea:	4770      	bx	lr
 800bbec:	2b16      	cmp	r3, #22
 800bbee:	dc11      	bgt.n	800bc14 <expm1f+0x1f4>
 800bbf0:	f04f 7280 	mov.w	r2, #16777216	; 0x1000000
 800bbf4:	fa42 f303 	asr.w	r3, r2, r3
 800bbf8:	f1c3 537e 	rsb	r3, r3, #1065353216	; 0x3f800000
 800bbfc:	ee37 0ac0 	vsub.f32	s0, s15, s0
 800bc00:	ee07 3a90 	vmov	s15, r3
 800bc04:	ee37 0ac0 	vsub.f32	s0, s15, s0
 800bc08:	ee10 3a10 	vmov	r3, s0
 800bc0c:	440b      	add	r3, r1
 800bc0e:	ee00 3a10 	vmov	s0, r3
 800bc12:	4770      	bx	lr
 800bc14:	f1c3 037f 	rsb	r3, r3, #127	; 0x7f
 800bc18:	05db      	lsls	r3, r3, #23
 800bc1a:	ee07 3a10 	vmov	s14, r3
 800bc1e:	ee77 7a87 	vadd.f32	s15, s15, s14
 800bc22:	ee30 0a67 	vsub.f32	s0, s0, s15
 800bc26:	ee30 0a06 	vadd.f32	s0, s0, s12
 800bc2a:	e7ed      	b.n	800bc08 <expm1f+0x1e8>
 800bc2c:	eddf 7a11 	vldr	s15, [pc, #68]	; 800bc74 <expm1f+0x254>
 800bc30:	ee20 7a27 	vmul.f32	s14, s0, s15
 800bc34:	eef6 7a00 	vmov.f32	s15, #96	; 0x3f000000  0.5
 800bc38:	e77c      	b.n	800bb34 <expm1f+0x114>
 800bc3a:	bf00      	nop
 800bc3c:	4195b843 	.word	0x4195b843
 800bc40:	42b17217 	.word	0x42b17217
 800bc44:	7149f2ca 	.word	0x7149f2ca
 800bc48:	0da24260 	.word	0x0da24260
 800bc4c:	3eb17218 	.word	0x3eb17218
 800bc50:	3f851591 	.word	0x3f851591
 800bc54:	3f317180 	.word	0x3f317180
 800bc58:	3717f7d1 	.word	0x3717f7d1
 800bc5c:	b717f7d1 	.word	0xb717f7d1
 800bc60:	b457edbb 	.word	0xb457edbb
 800bc64:	36867e54 	.word	0x36867e54
 800bc68:	b8a670cd 	.word	0xb8a670cd
 800bc6c:	3ad00d01 	.word	0x3ad00d01
 800bc70:	bd088889 	.word	0xbd088889
 800bc74:	3fb8aa3b 	.word	0x3fb8aa3b

0800bc78 <finitef>:
 800bc78:	ee10 3a10 	vmov	r3, s0
 800bc7c:	f023 4000 	bic.w	r0, r3, #2147483648	; 0x80000000
 800bc80:	f1b0 4fff 	cmp.w	r0, #2139095040	; 0x7f800000
 800bc84:	bfac      	ite	ge
 800bc86:	2000      	movge	r0, #0
 800bc88:	2001      	movlt	r0, #1
 800bc8a:	4770      	bx	lr

0800bc8c <nanf>:
 800bc8c:	ed9f 0a01 	vldr	s0, [pc, #4]	; 800bc94 <nanf+0x8>
 800bc90:	4770      	bx	lr
 800bc92:	bf00      	nop
 800bc94:	7fc00000 	.word	0x7fc00000

0800bc98 <rintf>:
 800bc98:	b513      	push	{r0, r1, r4, lr}
 800bc9a:	ee10 1a10 	vmov	r1, s0
 800bc9e:	f021 4300 	bic.w	r3, r1, #2147483648	; 0x80000000
 800bca2:	0ddc      	lsrs	r4, r3, #23
 800bca4:	3c7f      	subs	r4, #127	; 0x7f
 800bca6:	2c16      	cmp	r4, #22
 800bca8:	dc46      	bgt.n	800bd38 <rintf+0xa0>
 800bcaa:	b32b      	cbz	r3, 800bcf8 <rintf+0x60>
 800bcac:	2c00      	cmp	r4, #0
 800bcae:	ee10 2a10 	vmov	r2, s0
 800bcb2:	ea4f 70d1 	mov.w	r0, r1, lsr #31
 800bcb6:	da21      	bge.n	800bcfc <rintf+0x64>
 800bcb8:	f3c1 0316 	ubfx	r3, r1, #0, #23
 800bcbc:	425b      	negs	r3, r3
 800bcbe:	4a21      	ldr	r2, [pc, #132]	; (800bd44 <rintf+0xac>)
 800bcc0:	0a5b      	lsrs	r3, r3, #9
 800bcc2:	0d09      	lsrs	r1, r1, #20
 800bcc4:	f403 0380 	and.w	r3, r3, #4194304	; 0x400000
 800bcc8:	0509      	lsls	r1, r1, #20
 800bcca:	430b      	orrs	r3, r1
 800bccc:	eb02 0280 	add.w	r2, r2, r0, lsl #2
 800bcd0:	ee07 3a90 	vmov	s15, r3
 800bcd4:	edd2 6a00 	vldr	s13, [r2]
 800bcd8:	ee36 7aa7 	vadd.f32	s14, s13, s15
 800bcdc:	ed8d 7a01 	vstr	s14, [sp, #4]
 800bce0:	eddd 7a01 	vldr	s15, [sp, #4]
 800bce4:	ee77 7ae6 	vsub.f32	s15, s15, s13
 800bce8:	ee17 3a90 	vmov	r3, s15
 800bcec:	f023 4300 	bic.w	r3, r3, #2147483648	; 0x80000000
 800bcf0:	ea43 73c0 	orr.w	r3, r3, r0, lsl #31
 800bcf4:	ee00 3a10 	vmov	s0, r3
 800bcf8:	b002      	add	sp, #8
 800bcfa:	bd10      	pop	{r4, pc}
 800bcfc:	4b12      	ldr	r3, [pc, #72]	; (800bd48 <rintf+0xb0>)
 800bcfe:	4123      	asrs	r3, r4
 800bd00:	4219      	tst	r1, r3
 800bd02:	d0f9      	beq.n	800bcf8 <rintf+0x60>
 800bd04:	085b      	lsrs	r3, r3, #1
 800bd06:	4219      	tst	r1, r3
 800bd08:	d006      	beq.n	800bd18 <rintf+0x80>
 800bd0a:	ea21 0203 	bic.w	r2, r1, r3
 800bd0e:	f44f 1300 	mov.w	r3, #2097152	; 0x200000
 800bd12:	fa43 f404 	asr.w	r4, r3, r4
 800bd16:	4322      	orrs	r2, r4
 800bd18:	4b0a      	ldr	r3, [pc, #40]	; (800bd44 <rintf+0xac>)
 800bd1a:	eb03 0080 	add.w	r0, r3, r0, lsl #2
 800bd1e:	ed90 7a00 	vldr	s14, [r0]
 800bd22:	ee07 2a90 	vmov	s15, r2
 800bd26:	ee77 7a27 	vadd.f32	s15, s14, s15
 800bd2a:	edcd 7a01 	vstr	s15, [sp, #4]
 800bd2e:	ed9d 0a01 	vldr	s0, [sp, #4]
 800bd32:	ee30 0a47 	vsub.f32	s0, s0, s14
 800bd36:	e7df      	b.n	800bcf8 <rintf+0x60>
 800bd38:	f1b3 4fff 	cmp.w	r3, #2139095040	; 0x7f800000
 800bd3c:	d3dc      	bcc.n	800bcf8 <rintf+0x60>
 800bd3e:	ee30 0a00 	vadd.f32	s0, s0, s0
 800bd42:	e7d9      	b.n	800bcf8 <rintf+0x60>
 800bd44:	08033c80 	.word	0x08033c80
 800bd48:	007fffff 	.word	0x007fffff

0800bd4c <scalbnf>:
 800bd4c:	b508      	push	{r3, lr}
 800bd4e:	ee10 2a10 	vmov	r2, s0
 800bd52:	f032 4300 	bics.w	r3, r2, #2147483648	; 0x80000000
 800bd56:	ed2d 8b02 	vpush	{d8}
 800bd5a:	eef0 0a40 	vmov.f32	s1, s0
 800bd5e:	d004      	beq.n	800bd6a <scalbnf+0x1e>
 800bd60:	f1b3 4fff 	cmp.w	r3, #2139095040	; 0x7f800000
 800bd64:	d306      	bcc.n	800bd74 <scalbnf+0x28>
 800bd66:	ee70 0a00 	vadd.f32	s1, s0, s0
 800bd6a:	ecbd 8b02 	vpop	{d8}
 800bd6e:	eeb0 0a60 	vmov.f32	s0, s1
 800bd72:	bd08      	pop	{r3, pc}
 800bd74:	f5b3 0f00 	cmp.w	r3, #8388608	; 0x800000
 800bd78:	d21c      	bcs.n	800bdb4 <scalbnf+0x68>
 800bd7a:	4b1f      	ldr	r3, [pc, #124]	; (800bdf8 <scalbnf+0xac>)
 800bd7c:	eddf 7a1f 	vldr	s15, [pc, #124]	; 800bdfc <scalbnf+0xb0>
 800bd80:	4298      	cmp	r0, r3
 800bd82:	ee60 0a27 	vmul.f32	s1, s0, s15
 800bd86:	db10      	blt.n	800bdaa <scalbnf+0x5e>
 800bd88:	ee10 2a90 	vmov	r2, s1
 800bd8c:	f3c2 53c7 	ubfx	r3, r2, #23, #8
 800bd90:	3b19      	subs	r3, #25
 800bd92:	4403      	add	r3, r0
 800bd94:	2bfe      	cmp	r3, #254	; 0xfe
 800bd96:	dd0f      	ble.n	800bdb8 <scalbnf+0x6c>
 800bd98:	ed9f 8a19 	vldr	s16, [pc, #100]	; 800be00 <scalbnf+0xb4>
 800bd9c:	eeb0 0a48 	vmov.f32	s0, s16
 800bda0:	f000 f834 	bl	800be0c <copysignf>
 800bda4:	ee60 0a08 	vmul.f32	s1, s0, s16
 800bda8:	e7df      	b.n	800bd6a <scalbnf+0x1e>
 800bdaa:	eddf 7a16 	vldr	s15, [pc, #88]	; 800be04 <scalbnf+0xb8>
 800bdae:	ee60 0aa7 	vmul.f32	s1, s1, s15
 800bdb2:	e7da      	b.n	800bd6a <scalbnf+0x1e>
 800bdb4:	0ddb      	lsrs	r3, r3, #23
 800bdb6:	e7ec      	b.n	800bd92 <scalbnf+0x46>
 800bdb8:	2b00      	cmp	r3, #0
 800bdba:	dd06      	ble.n	800bdca <scalbnf+0x7e>
 800bdbc:	f022 42ff 	bic.w	r2, r2, #2139095040	; 0x7f800000
 800bdc0:	ea42 53c3 	orr.w	r3, r2, r3, lsl #23
 800bdc4:	ee00 3a90 	vmov	s1, r3
 800bdc8:	e7cf      	b.n	800bd6a <scalbnf+0x1e>
 800bdca:	f113 0f16 	cmn.w	r3, #22
 800bdce:	da06      	bge.n	800bdde <scalbnf+0x92>
 800bdd0:	f24c 3350 	movw	r3, #50000	; 0xc350
 800bdd4:	4298      	cmp	r0, r3
 800bdd6:	dcdf      	bgt.n	800bd98 <scalbnf+0x4c>
 800bdd8:	ed9f 8a0a 	vldr	s16, [pc, #40]	; 800be04 <scalbnf+0xb8>
 800bddc:	e7de      	b.n	800bd9c <scalbnf+0x50>
 800bdde:	3319      	adds	r3, #25
 800bde0:	f022 42ff 	bic.w	r2, r2, #2139095040	; 0x7f800000
 800bde4:	ea42 53c3 	orr.w	r3, r2, r3, lsl #23
 800bde8:	eddf 7a07 	vldr	s15, [pc, #28]	; 800be08 <scalbnf+0xbc>
 800bdec:	ee07 3a10 	vmov	s14, r3
 800bdf0:	ee67 0a27 	vmul.f32	s1, s14, s15
 800bdf4:	e7b9      	b.n	800bd6a <scalbnf+0x1e>
 800bdf6:	bf00      	nop
 800bdf8:	ffff3cb0 	.word	0xffff3cb0
 800bdfc:	4c000000 	.word	0x4c000000
 800be00:	7149f2ca 	.word	0x7149f2ca
 800be04:	0da24260 	.word	0x0da24260
 800be08:	33000000 	.word	0x33000000

0800be0c <copysignf>:
 800be0c:	ee10 3a10 	vmov	r3, s0
 800be10:	ee10 2a90 	vmov	r2, s1
 800be14:	f023 4300 	bic.w	r3, r3, #2147483648	; 0x80000000
 800be18:	f002 4200 	and.w	r2, r2, #2147483648	; 0x80000000
 800be1c:	4313      	orrs	r3, r2
 800be1e:	ee00 3a10 	vmov	s0, r3
 800be22:	4770      	bx	lr

0800be24 <__errno>:
 800be24:	4b01      	ldr	r3, [pc, #4]	; (800be2c <__errno+0x8>)
 800be26:	6818      	ldr	r0, [r3, #0]
 800be28:	4770      	bx	lr
 800be2a:	bf00      	nop
 800be2c:	20000aa0 	.word	0x20000aa0

0800be30 <_sbrk>:
 800be30:	4b04      	ldr	r3, [pc, #16]	; (800be44 <_sbrk+0x14>)
 800be32:	6819      	ldr	r1, [r3, #0]
 800be34:	4602      	mov	r2, r0
 800be36:	b909      	cbnz	r1, 800be3c <_sbrk+0xc>
 800be38:	4903      	ldr	r1, [pc, #12]	; (800be48 <_sbrk+0x18>)
 800be3a:	6019      	str	r1, [r3, #0]
 800be3c:	6818      	ldr	r0, [r3, #0]
 800be3e:	4402      	add	r2, r0
 800be40:	601a      	str	r2, [r3, #0]
 800be42:	4770      	bx	lr
 800be44:	200094e4 	.word	0x200094e4
 800be48:	200094f0 	.word	0x200094f0

0800be4c <_init>:
 800be4c:	b5f8      	push	{r3, r4, r5, r6, r7, lr}
 800be4e:	bf00      	nop
 800be50:	bcf8      	pop	{r3, r4, r5, r6, r7}
 800be52:	bc08      	pop	{r3}
 800be54:	469e      	mov	lr, r3
 800be56:	4770      	bx	lr

0800be58 <_fini>:
 800be58:	b5f8      	push	{r3, r4, r5, r6, r7, lr}
 800be5a:	bf00      	nop
 800be5c:	bcf8      	pop	{r3, r4, r5, r6, r7}
 800be5e:	bc08      	pop	{r3}
 800be60:	469e      	mov	lr, r3
 800be62:	4770      	bx	lr
